ARM GAS  C:\DOCUME~1\ADMINI~1\LOCALS~1\Temp\ccSs2r3y.s 			page 1


   1              		.cpu arm7tdmi
   2              		.fpu softvfp
   3              		.eabi_attribute 20, 1
   4              		.eabi_attribute 21, 1
   5              		.eabi_attribute 23, 3
   6              		.eabi_attribute 24, 1
   7              		.eabi_attribute 25, 1
   8              		.eabi_attribute 26, 2
   9              		.eabi_attribute 30, 2
  10              		.eabi_attribute 18, 4
  11              		.file	"device.c"
  18 0000 92000000 		.text
  18      02004000 
  18      00000201 
  18      FB0E0D00 
  18      01010101 
  19              	.Ltext0:
  20              		.cfi_sections	.debug_frame
  21              		.align	2
  22              		.global	DEV_HardwareInit
  23              		.type	DEV_HardwareInit, %function
  24              	DEV_HardwareInit:
  25              		.fnstart
  26              	.LFB0:
  27              		.file 1 "../srccode/device.c"
   1:../srccode/device.c **** 
   2:../srccode/device.c **** #include "device.h"
   3:../srccode/device.c **** 
   4:../srccode/device.c **** 
   5:../srccode/device.c **** /***********************************************************************************
   6:../srccode/device.c **** 函数功能: 初始化硬件.
   7:../srccode/device.c **** 入口参数: none.
   8:../srccode/device.c **** 返 回 值: none.
   9:../srccode/device.c **** ***********************************************************************************/
  10:../srccode/device.c **** void DEV_HardwareInit(void)
  11:../srccode/device.c **** {
  28              		.loc 1 11 0
  29              		.cfi_startproc
  30              		@ Function supports interworking.
  31              		@ args = 0, pretend = 0, frame = 0
  32              		@ frame_needed = 0, uses_anonymous_args = 0
  33              		@ link register save eliminated.
  34              	.LBB8:
  35              	.LBB9:
  12:../srccode/device.c ****     /* 设置GPIO管脚模式 */
  13:../srccode/device.c ****     DEV_SetGpioMode();
  14:../srccode/device.c **** 
  15:../srccode/device.c ****     /* 初始化串口 */
  16:../srccode/device.c ****     DEV_UartInit();
  17:../srccode/device.c **** }
  18:../srccode/device.c **** 
ARM GAS  C:\DOCUME~1\ADMINI~1\LOCALS~1\Temp\ccSs2r3y.s 			page 2


  19:../srccode/device.c **** /***********************************************************************************
  20:../srccode/device.c **** 函数功能: 初始化串口.
  21:../srccode/device.c **** 入口参数: none.
  22:../srccode/device.c **** 返 回 值: none.
  23:../srccode/device.c **** ***********************************************************************************/
  24:../srccode/device.c **** void DEV_UartInit(void)
  25:../srccode/device.c **** {
  26:../srccode/device.c ****     COMDIV2 = 0;
  27:../srccode/device.c ****     COMIEN0 = 0;        /* 关闭串口收发中断 */
  28:../srccode/device.c **** 
  29:../srccode/device.c ****     /* 允许访问COMDIV0和COMDIV1寄存器 */
  30:../srccode/device.c ****     COMCON0 = 0x83;
  31:../srccode/device.c ****     COMDIV0 = 0x88;     /* 9600波特率 */
  32:../srccode/device.c ****     COMDIV1 = 0;
  33:../srccode/device.c **** 
  34:../srccode/device.c ****     /* 允许访问COMRX和COMTX, 1开始位1停止位8bits */
  35:../srccode/device.c ****     COMCON0 = 3;
  36:../srccode/device.c **** }
  37:../srccode/device.c **** 
  38:../srccode/device.c **** /***********************************************************************************
  39:../srccode/device.c **** 函数功能: 向串口发送一个字符.
  40:../srccode/device.c **** 入口参数: ucChar: 输出的字符.
  41:../srccode/device.c **** 返 回 值: none.
  42:../srccode/device.c **** ***********************************************************************************/
  43:../srccode/device.c **** void DEV_PutChar(U8 ucChar)
  44:../srccode/device.c **** {
  45:../srccode/device.c ****     /* 串口发送忙状态 */
  46:../srccode/device.c ****     while(0x0 == (COMSTA0 & 0x40))
  47:../srccode/device.c ****     {
  48:../srccode/device.c ****         ;
  49:../srccode/device.c ****     }
  50:../srccode/device.c **** 
  51:../srccode/device.c ****     COMTX = ucChar;
  52:../srccode/device.c **** }
  53:../srccode/device.c **** 
  54:../srccode/device.c **** /***********************************************************************************
  55:../srccode/device.c **** 函数功能: 向串口发送字符串, 采用软件查询方式.
  56:../srccode/device.c **** 入口参数: pucChar: 输出的字符串指针.
  57:../srccode/device.c **** 返 回 值: none.
  58:../srccode/device.c **** ***********************************************************************************/
  59:../srccode/device.c **** void DEV_PutString(U8* pucChar)
  60:../srccode/device.c **** {
  61:../srccode/device.c ****     U8 i;
  62:../srccode/device.c **** 
  63:../srccode/device.c ****     i = 0;
  64:../srccode/device.c **** 
  65:../srccode/device.c ****     while(0 != *(pucChar + i))
  66:../srccode/device.c ****     {
  67:../srccode/device.c ****         DEV_PutChar(*(pucChar + i));
  68:../srccode/device.c ****         i++;
  69:../srccode/device.c ****     }
  70:../srccode/device.c **** }
  71:../srccode/device.c **** 
  72:../srccode/device.c **** /***********************************************************************************
  73:../srccode/device.c **** 函数功能: 设置各个GPIO的工作模式.
  74:../srccode/device.c **** 入口参数: none.
  75:../srccode/device.c **** 返 回 值: none.
ARM GAS  C:\DOCUME~1\ADMINI~1\LOCALS~1\Temp\ccSs2r3y.s 			page 3


  76:../srccode/device.c **** ***********************************************************************************/
  77:../srccode/device.c **** void DEV_SetGpioMode(void)
  78:../srccode/device.c **** {
  79:../srccode/device.c ****     GP1CON = 0x00000011;    /* P1.0和P1.1设置为串口 */
  36              		.loc 1 79 0
  37 0000 1120A0E3 		mov	r2, #17
  38 0004 0010E0E3 		mvn	r1, #0
  39 0008 FB2B01E5 		str	r2, [r1, #-3067]
  40              	.LBE9:
  41              	.LBE8:
  42              	.LBB10:
  43              	.LBB11:
  26:../srccode/device.c ****     COMDIV2 = 0;
  44              		.loc 1 26 0
  45 000c 0F3AE0E3 		mvn	r3, #61440
  46 0010 00C0A0E3 		mov	ip, #0
  30:../srccode/device.c ****     COMCON0 = 0x83;
  47              		.loc 1 30 0
  48 0014 8300A0E3 		mov	r0, #131
  31:../srccode/device.c ****     COMDIV0 = 0x88;     /* 9600波特率 */
  49              		.loc 1 31 0
  50 0018 8810A0E3 		mov	r1, #136
  35:../srccode/device.c ****     COMCON0 = 3;
  51              		.loc 1 35 0
  52 001c 0320A0E3 		mov	r2, #3
  26:../srccode/device.c ****     COMDIV2 = 0;
  53              		.loc 1 26 0
  54 0020 D3C803E5 		str	ip, [r3, #-2259]
  27:../srccode/device.c ****     COMIEN0 = 0;        /* 关闭串口收发中断 */
  55              		.loc 1 27 0
  56 0024 FBC803E5 		str	ip, [r3, #-2299]
  30:../srccode/device.c ****     COMCON0 = 0x83;
  57              		.loc 1 30 0
  58 0028 F30803E5 		str	r0, [r3, #-2291]
  31:../srccode/device.c ****     COMDIV0 = 0x88;     /* 9600波特率 */
  59              		.loc 1 31 0
  60 002c FF1803E5 		str	r1, [r3, #-2303]
  32:../srccode/device.c ****     COMDIV1 = 0;
  61              		.loc 1 32 0
  62 0030 FBC803E5 		str	ip, [r3, #-2299]
  35:../srccode/device.c ****     COMCON0 = 3;
  63              		.loc 1 35 0
  64 0034 F32803E5 		str	r2, [r3, #-2291]
  65              	.LBE11:
  66              	.LBE10:
  17:../srccode/device.c **** }
  67              		.loc 1 17 0
  68 0038 1EFF2FE1 		bx	lr
  69              		.cfi_endproc
  70              	.LFE0:
  71              		.fnend
  72              		.size	DEV_HardwareInit, .-DEV_HardwareInit
  73              		.align	2
  74              		.global	DEV_UartInit
  75              		.type	DEV_UartInit, %function
  76              	DEV_UartInit:
  77              		.fnstart
ARM GAS  C:\DOCUME~1\ADMINI~1\LOCALS~1\Temp\ccSs2r3y.s 			page 4


  78              	.LFB1:
  25:../srccode/device.c **** {
  79              		.loc 1 25 0
  80              		.cfi_startproc
  81              		@ Function supports interworking.
  82              		@ args = 0, pretend = 0, frame = 0
  83              		@ frame_needed = 0, uses_anonymous_args = 0
  84              		@ link register save eliminated.
  26:../srccode/device.c ****     COMDIV2 = 0;
  85              		.loc 1 26 0
  86 003c 0F3AE0E3 		mvn	r3, #61440
  87 0040 0000A0E3 		mov	r0, #0
  30:../srccode/device.c ****     COMCON0 = 0x83;
  88              		.loc 1 30 0
  89 0044 83C0A0E3 		mov	ip, #131
  31:../srccode/device.c ****     COMDIV0 = 0x88;     /* 9600波特率 */
  90              		.loc 1 31 0
  91 0048 8810A0E3 		mov	r1, #136
  35:../srccode/device.c ****     COMCON0 = 3;
  92              		.loc 1 35 0
  93 004c 0320A0E3 		mov	r2, #3
  26:../srccode/device.c ****     COMDIV2 = 0;
  94              		.loc 1 26 0
  95 0050 D30803E5 		str	r0, [r3, #-2259]
  27:../srccode/device.c ****     COMIEN0 = 0;        /* 关闭串口收发中断 */
  96              		.loc 1 27 0
  97 0054 FB0803E5 		str	r0, [r3, #-2299]
  30:../srccode/device.c ****     COMCON0 = 0x83;
  98              		.loc 1 30 0
  99 0058 F3C803E5 		str	ip, [r3, #-2291]
  31:../srccode/device.c ****     COMDIV0 = 0x88;     /* 9600波特率 */
 100              		.loc 1 31 0
 101 005c FF1803E5 		str	r1, [r3, #-2303]
  32:../srccode/device.c ****     COMDIV1 = 0;
 102              		.loc 1 32 0
 103 0060 FB0803E5 		str	r0, [r3, #-2299]
  35:../srccode/device.c ****     COMCON0 = 3;
 104              		.loc 1 35 0
 105 0064 F32803E5 		str	r2, [r3, #-2291]
  36:../srccode/device.c **** }
 106              		.loc 1 36 0
 107 0068 1EFF2FE1 		bx	lr
 108              		.cfi_endproc
 109              	.LFE1:
 110              		.fnend
 111              		.size	DEV_UartInit, .-DEV_UartInit
 112              		.align	2
 113              		.global	DEV_PutChar
 114              		.type	DEV_PutChar, %function
 115              	DEV_PutChar:
 116              		.fnstart
 117              	.LFB2:
  44:../srccode/device.c **** {
 118              		.loc 1 44 0
 119              		.cfi_startproc
 120              		@ Function supports interworking.
 121              		@ args = 0, pretend = 0, frame = 0
ARM GAS  C:\DOCUME~1\ADMINI~1\LOCALS~1\Temp\ccSs2r3y.s 			page 5


 122              		@ frame_needed = 0, uses_anonymous_args = 0
 123              		@ link register save eliminated.
 124              	.LVL0:
  46:../srccode/device.c ****     while(0x0 == (COMSTA0 & 0x40))
 125              		.loc 1 46 0
 126 006c 0F2AE0E3 		mvn	r2, #61440
 127              	.L4:
  46:../srccode/device.c ****     while(0x0 == (COMSTA0 & 0x40))
 128              		.loc 1 46 0 is_stmt 0 discriminator 1
 129 0070 EB3812E5 		ldr	r3, [r2, #-2283]
 130 0074 400013E3 		tst	r3, #64
 131 0078 FCFFFF0A 		beq	.L4
  51:../srccode/device.c ****     COMTX = ucChar;
 132              		.loc 1 51 0 is_stmt 1
 133 007c 0F1AE0E3 		mvn	r1, #61440
 134 0080 FF0801E5 		str	r0, [r1, #-2303]
  52:../srccode/device.c **** }
 135              		.loc 1 52 0
 136 0084 1EFF2FE1 		bx	lr
 137              		.cfi_endproc
 138              	.LFE2:
 139              		.fnend
 140              		.size	DEV_PutChar, .-DEV_PutChar
 141              		.align	2
 142              		.global	DEV_PutString
 143              		.type	DEV_PutString, %function
 144              	DEV_PutString:
 145              		.fnstart
 146              	.LFB3:
  60:../srccode/device.c **** {
 147              		.loc 1 60 0
 148              		.cfi_startproc
 149              		@ Function supports interworking.
 150              		@ args = 0, pretend = 0, frame = 0
 151              		@ frame_needed = 0, uses_anonymous_args = 0
 152              		@ link register save eliminated.
 153              	.LVL1:
  65:../srccode/device.c ****     while(0 != *(pucChar + i))
 154              		.loc 1 65 0
 155 0088 0010D0E5 		ldrb	r1, [r0, #0]	@ zero_extendqisi2
 156 008c 000051E3 		cmp	r1, #0
 157 0090 1EFF2F01 		bxeq	lr
 158 0094 00C0A0E3 		mov	ip, #0
 159              	.LBB12:
 160              	.LBB13:
  46:../srccode/device.c ****     while(0x0 == (COMSTA0 & 0x40))
 161              		.loc 1 46 0
 162 0098 0F2AE0E3 		mvn	r2, #61440
 163              	.LVL2:
 164              	.L13:
 165 009c EB3812E5 		ldr	r3, [r2, #-2283]
 166 00a0 400013E3 		tst	r3, #64
 167 00a4 FCFFFF0A 		beq	.L13
  51:../srccode/device.c ****     COMTX = ucChar;
 168              		.loc 1 51 0
 169 00a8 FF1802E5 		str	r1, [r2, #-2303]
 170              	.LBE13:
ARM GAS  C:\DOCUME~1\ADMINI~1\LOCALS~1\Temp\ccSs2r3y.s 			page 6


 171              	.LBE12:
  68:../srccode/device.c ****         i++;
 172              		.loc 1 68 0
 173 00ac 01C08CE2 		add	ip, ip, #1
 174 00b0 FFC00CE2 		and	ip, ip, #255
 175              	.LVL3:
  65:../srccode/device.c ****     while(0 != *(pucChar + i))
 176              		.loc 1 65 0
 177 00b4 0C10D0E7 		ldrb	r1, [r0, ip]	@ zero_extendqisi2
 178 00b8 000051E3 		cmp	r1, #0
 179 00bc F6FFFF1A 		bne	.L13
 180 00c0 1EFF2FE1 		bx	lr
 181              		.cfi_endproc
 182              	.LFE3:
 183              		.fnend
 184              		.size	DEV_PutString, .-DEV_PutString
 185              		.align	2
 186              		.global	DEV_SetGpioMode
 187              		.type	DEV_SetGpioMode, %function
 188              	DEV_SetGpioMode:
 189              		.fnstart
 190              	.LFB4:
  78:../srccode/device.c **** {
 191              		.loc 1 78 0
 192              		.cfi_startproc
 193              		@ Function supports interworking.
 194              		@ args = 0, pretend = 0, frame = 0
 195              		@ frame_needed = 0, uses_anonymous_args = 0
 196              		@ link register save eliminated.
 197              		.loc 1 79 0
 198 00c4 1120A0E3 		mov	r2, #17
 199 00c8 0030E0E3 		mvn	r3, #0
 200 00cc FB2B03E5 		str	r2, [r3, #-3067]
  80:../srccode/device.c **** }
 201              		.loc 1 80 0
 202 00d0 1EFF2FE1 		bx	lr
 203              		.cfi_endproc
 204              	.LFE4:
 205              		.fnend
 206              		.size	DEV_SetGpioMode, .-DEV_SetGpioMode
 207              	.Letext0:
 699              		.section	.note.GNU-stack,"",%progbits
ARM GAS  C:\DOCUME~1\ADMINI~1\LOCALS~1\Temp\ccSs2r3y.s 			page 17

