ARM GAS  C:\DOCUME~1\ADMINI~1\LOCALS~1\Temp\ccSs2r3y.s 			page 1


   1              		.cpu arm7tdmi
   2              		.fpu softvfp
   3              		.eabi_attribute 20, 1
   4              		.eabi_attribute 21, 1
   5              		.eabi_attribute 23, 3
   6              		.eabi_attribute 24, 1
   7              		.eabi_attribute 25, 1
   8              		.eabi_attribute 26, 2
   9              		.eabi_attribute 30, 2
  10              		.eabi_attribute 18, 4
  11              		.file	"device.c"
  12              		.section	.debug_abbrev,"",%progbits
  13              	.Ldebug_abbrev0:
  14              		.section	.debug_info,"",%progbits
  15              	.Ldebug_info0:
  16              		.section	.debug_line,"",%progbits
  17              	.Ldebug_line0:
  18 0000 92000000 		.text
  18      02004000 
  18      00000201 
  18      FB0E0D00 
  18      01010101 
  19              	.Ltext0:
  20              		.cfi_sections	.debug_frame
  21              		.align	2
  22              		.global	DEV_HardwareInit
  23              		.type	DEV_HardwareInit, %function
  24              	DEV_HardwareInit:
  25              		.fnstart
  26              	.LFB0:
  27              		.file 1 "../srccode/device.c"
   1:../srccode/device.c **** 
   2:../srccode/device.c **** #include "device.h"
   3:../srccode/device.c **** 
   4:../srccode/device.c **** 
   5:../srccode/device.c **** /***********************************************************************************
   6:../srccode/device.c **** 函数功能: 初始化硬件.
   7:../srccode/device.c **** 入口参数: none.
   8:../srccode/device.c **** 返 回 值: none.
   9:../srccode/device.c **** ***********************************************************************************/
  10:../srccode/device.c **** void DEV_HardwareInit(void)
  11:../srccode/device.c **** {
  28              		.loc 1 11 0
  29              		.cfi_startproc
  30              		@ Function supports interworking.
  31              		@ args = 0, pretend = 0, frame = 0
  32              		@ frame_needed = 0, uses_anonymous_args = 0
  33              		@ link register save eliminated.
  34              	.LBB8:
  35              	.LBB9:
  12:../srccode/device.c ****     /* 设置GPIO管脚模式 */
  13:../srccode/device.c ****     DEV_SetGpioMode();
  14:../srccode/device.c **** 
  15:../srccode/device.c ****     /* 初始化串口 */
  16:../srccode/device.c ****     DEV_UartInit();
  17:../srccode/device.c **** }
  18:../srccode/device.c **** 
ARM GAS  C:\DOCUME~1\ADMINI~1\LOCALS~1\Temp\ccSs2r3y.s 			page 2


  19:../srccode/device.c **** /***********************************************************************************
  20:../srccode/device.c **** 函数功能: 初始化串口.
  21:../srccode/device.c **** 入口参数: none.
  22:../srccode/device.c **** 返 回 值: none.
  23:../srccode/device.c **** ***********************************************************************************/
  24:../srccode/device.c **** void DEV_UartInit(void)
  25:../srccode/device.c **** {
  26:../srccode/device.c ****     COMDIV2 = 0;
  27:../srccode/device.c ****     COMIEN0 = 0;        /* 关闭串口收发中断 */
  28:../srccode/device.c **** 
  29:../srccode/device.c ****     /* 允许访问COMDIV0和COMDIV1寄存器 */
  30:../srccode/device.c ****     COMCON0 = 0x83;
  31:../srccode/device.c ****     COMDIV0 = 0x88;     /* 9600波特率 */
  32:../srccode/device.c ****     COMDIV1 = 0;
  33:../srccode/device.c **** 
  34:../srccode/device.c ****     /* 允许访问COMRX和COMTX, 1开始位1停止位8bits */
  35:../srccode/device.c ****     COMCON0 = 3;
  36:../srccode/device.c **** }
  37:../srccode/device.c **** 
  38:../srccode/device.c **** /***********************************************************************************
  39:../srccode/device.c **** 函数功能: 向串口发送一个字符.
  40:../srccode/device.c **** 入口参数: ucChar: 输出的字符.
  41:../srccode/device.c **** 返 回 值: none.
  42:../srccode/device.c **** ***********************************************************************************/
  43:../srccode/device.c **** void DEV_PutChar(U8 ucChar)
  44:../srccode/device.c **** {
  45:../srccode/device.c ****     /* 串口发送忙状态 */
  46:../srccode/device.c ****     while(0x0 == (COMSTA0 & 0x40))
  47:../srccode/device.c ****     {
  48:../srccode/device.c ****         ;
  49:../srccode/device.c ****     }
  50:../srccode/device.c **** 
  51:../srccode/device.c ****     COMTX = ucChar;
  52:../srccode/device.c **** }
  53:../srccode/device.c **** 
  54:../srccode/device.c **** /***********************************************************************************
  55:../srccode/device.c **** 函数功能: 向串口发送字符串, 采用软件查询方式.
  56:../srccode/device.c **** 入口参数: pucChar: 输出的字符串指针.
  57:../srccode/device.c **** 返 回 值: none.
  58:../srccode/device.c **** ***********************************************************************************/
  59:../srccode/device.c **** void DEV_PutString(U8* pucChar)
  60:../srccode/device.c **** {
  61:../srccode/device.c ****     U8 i;
  62:../srccode/device.c **** 
  63:../srccode/device.c ****     i = 0;
  64:../srccode/device.c **** 
  65:../srccode/device.c ****     while(0 != *(pucChar + i))
  66:../srccode/device.c ****     {
  67:../srccode/device.c ****         DEV_PutChar(*(pucChar + i));
  68:../srccode/device.c ****         i++;
  69:../srccode/device.c ****     }
  70:../srccode/device.c **** }
  71:../srccode/device.c **** 
  72:../srccode/device.c **** /***********************************************************************************
  73:../srccode/device.c **** 函数功能: 设置各个GPIO的工作模式.
  74:../srccode/device.c **** 入口参数: none.
  75:../srccode/device.c **** 返 回 值: none.
ARM GAS  C:\DOCUME~1\ADMINI~1\LOCALS~1\Temp\ccSs2r3y.s 			page 3


  76:../srccode/device.c **** ***********************************************************************************/
  77:../srccode/device.c **** void DEV_SetGpioMode(void)
  78:../srccode/device.c **** {
  79:../srccode/device.c ****     GP1CON = 0x00000011;    /* P1.0和P1.1设置为串口 */
  36              		.loc 1 79 0
  37 0000 1120A0E3 		mov	r2, #17
  38 0004 0010E0E3 		mvn	r1, #0
  39 0008 FB2B01E5 		str	r2, [r1, #-3067]
  40              	.LBE9:
  41              	.LBE8:
  42              	.LBB10:
  43              	.LBB11:
  26:../srccode/device.c ****     COMDIV2 = 0;
  44              		.loc 1 26 0
  45 000c 0F3AE0E3 		mvn	r3, #61440
  46 0010 00C0A0E3 		mov	ip, #0
  30:../srccode/device.c ****     COMCON0 = 0x83;
  47              		.loc 1 30 0
  48 0014 8300A0E3 		mov	r0, #131
  31:../srccode/device.c ****     COMDIV0 = 0x88;     /* 9600波特率 */
  49              		.loc 1 31 0
  50 0018 8810A0E3 		mov	r1, #136
  35:../srccode/device.c ****     COMCON0 = 3;
  51              		.loc 1 35 0
  52 001c 0320A0E3 		mov	r2, #3
  26:../srccode/device.c ****     COMDIV2 = 0;
  53              		.loc 1 26 0
  54 0020 D3C803E5 		str	ip, [r3, #-2259]
  27:../srccode/device.c ****     COMIEN0 = 0;        /* 关闭串口收发中断 */
  55              		.loc 1 27 0
  56 0024 FBC803E5 		str	ip, [r3, #-2299]
  30:../srccode/device.c ****     COMCON0 = 0x83;
  57              		.loc 1 30 0
  58 0028 F30803E5 		str	r0, [r3, #-2291]
  31:../srccode/device.c ****     COMDIV0 = 0x88;     /* 9600波特率 */
  59              		.loc 1 31 0
  60 002c FF1803E5 		str	r1, [r3, #-2303]
  32:../srccode/device.c ****     COMDIV1 = 0;
  61              		.loc 1 32 0
  62 0030 FBC803E5 		str	ip, [r3, #-2299]
  35:../srccode/device.c ****     COMCON0 = 3;
  63              		.loc 1 35 0
  64 0034 F32803E5 		str	r2, [r3, #-2291]
  65              	.LBE11:
  66              	.LBE10:
  17:../srccode/device.c **** }
  67              		.loc 1 17 0
  68 0038 1EFF2FE1 		bx	lr
  69              		.cfi_endproc
  70              	.LFE0:
  71              		.fnend
  72              		.size	DEV_HardwareInit, .-DEV_HardwareInit
  73              		.align	2
  74              		.global	DEV_UartInit
  75              		.type	DEV_UartInit, %function
  76              	DEV_UartInit:
  77              		.fnstart
ARM GAS  C:\DOCUME~1\ADMINI~1\LOCALS~1\Temp\ccSs2r3y.s 			page 4


  78              	.LFB1:
  25:../srccode/device.c **** {
  79              		.loc 1 25 0
  80              		.cfi_startproc
  81              		@ Function supports interworking.
  82              		@ args = 0, pretend = 0, frame = 0
  83              		@ frame_needed = 0, uses_anonymous_args = 0
  84              		@ link register save eliminated.
  26:../srccode/device.c ****     COMDIV2 = 0;
  85              		.loc 1 26 0
  86 003c 0F3AE0E3 		mvn	r3, #61440
  87 0040 0000A0E3 		mov	r0, #0
  30:../srccode/device.c ****     COMCON0 = 0x83;
  88              		.loc 1 30 0
  89 0044 83C0A0E3 		mov	ip, #131
  31:../srccode/device.c ****     COMDIV0 = 0x88;     /* 9600波特率 */
  90              		.loc 1 31 0
  91 0048 8810A0E3 		mov	r1, #136
  35:../srccode/device.c ****     COMCON0 = 3;
  92              		.loc 1 35 0
  93 004c 0320A0E3 		mov	r2, #3
  26:../srccode/device.c ****     COMDIV2 = 0;
  94              		.loc 1 26 0
  95 0050 D30803E5 		str	r0, [r3, #-2259]
  27:../srccode/device.c ****     COMIEN0 = 0;        /* 关闭串口收发中断 */
  96              		.loc 1 27 0
  97 0054 FB0803E5 		str	r0, [r3, #-2299]
  30:../srccode/device.c ****     COMCON0 = 0x83;
  98              		.loc 1 30 0
  99 0058 F3C803E5 		str	ip, [r3, #-2291]
  31:../srccode/device.c ****     COMDIV0 = 0x88;     /* 9600波特率 */
 100              		.loc 1 31 0
 101 005c FF1803E5 		str	r1, [r3, #-2303]
  32:../srccode/device.c ****     COMDIV1 = 0;
 102              		.loc 1 32 0
 103 0060 FB0803E5 		str	r0, [r3, #-2299]
  35:../srccode/device.c ****     COMCON0 = 3;
 104              		.loc 1 35 0
 105 0064 F32803E5 		str	r2, [r3, #-2291]
  36:../srccode/device.c **** }
 106              		.loc 1 36 0
 107 0068 1EFF2FE1 		bx	lr
 108              		.cfi_endproc
 109              	.LFE1:
 110              		.fnend
 111              		.size	DEV_UartInit, .-DEV_UartInit
 112              		.align	2
 113              		.global	DEV_PutChar
 114              		.type	DEV_PutChar, %function
 115              	DEV_PutChar:
 116              		.fnstart
 117              	.LFB2:
  44:../srccode/device.c **** {
 118              		.loc 1 44 0
 119              		.cfi_startproc
 120              		@ Function supports interworking.
 121              		@ args = 0, pretend = 0, frame = 0
ARM GAS  C:\DOCUME~1\ADMINI~1\LOCALS~1\Temp\ccSs2r3y.s 			page 5


 122              		@ frame_needed = 0, uses_anonymous_args = 0
 123              		@ link register save eliminated.
 124              	.LVL0:
  46:../srccode/device.c ****     while(0x0 == (COMSTA0 & 0x40))
 125              		.loc 1 46 0
 126 006c 0F2AE0E3 		mvn	r2, #61440
 127              	.L4:
  46:../srccode/device.c ****     while(0x0 == (COMSTA0 & 0x40))
 128              		.loc 1 46 0 is_stmt 0 discriminator 1
 129 0070 EB3812E5 		ldr	r3, [r2, #-2283]
 130 0074 400013E3 		tst	r3, #64
 131 0078 FCFFFF0A 		beq	.L4
  51:../srccode/device.c ****     COMTX = ucChar;
 132              		.loc 1 51 0 is_stmt 1
 133 007c 0F1AE0E3 		mvn	r1, #61440
 134 0080 FF0801E5 		str	r0, [r1, #-2303]
  52:../srccode/device.c **** }
 135              		.loc 1 52 0
 136 0084 1EFF2FE1 		bx	lr
 137              		.cfi_endproc
 138              	.LFE2:
 139              		.fnend
 140              		.size	DEV_PutChar, .-DEV_PutChar
 141              		.align	2
 142              		.global	DEV_PutString
 143              		.type	DEV_PutString, %function
 144              	DEV_PutString:
 145              		.fnstart
 146              	.LFB3:
  60:../srccode/device.c **** {
 147              		.loc 1 60 0
 148              		.cfi_startproc
 149              		@ Function supports interworking.
 150              		@ args = 0, pretend = 0, frame = 0
 151              		@ frame_needed = 0, uses_anonymous_args = 0
 152              		@ link register save eliminated.
 153              	.LVL1:
  65:../srccode/device.c ****     while(0 != *(pucChar + i))
 154              		.loc 1 65 0
 155 0088 0010D0E5 		ldrb	r1, [r0, #0]	@ zero_extendqisi2
 156 008c 000051E3 		cmp	r1, #0
 157 0090 1EFF2F01 		bxeq	lr
 158 0094 00C0A0E3 		mov	ip, #0
 159              	.LBB12:
 160              	.LBB13:
  46:../srccode/device.c ****     while(0x0 == (COMSTA0 & 0x40))
 161              		.loc 1 46 0
 162 0098 0F2AE0E3 		mvn	r2, #61440
 163              	.LVL2:
 164              	.L13:
 165 009c EB3812E5 		ldr	r3, [r2, #-2283]
 166 00a0 400013E3 		tst	r3, #64
 167 00a4 FCFFFF0A 		beq	.L13
  51:../srccode/device.c ****     COMTX = ucChar;
 168              		.loc 1 51 0
 169 00a8 FF1802E5 		str	r1, [r2, #-2303]
 170              	.LBE13:
ARM GAS  C:\DOCUME~1\ADMINI~1\LOCALS~1\Temp\ccSs2r3y.s 			page 6


 171              	.LBE12:
  68:../srccode/device.c ****         i++;
 172              		.loc 1 68 0
 173 00ac 01C08CE2 		add	ip, ip, #1
 174 00b0 FFC00CE2 		and	ip, ip, #255
 175              	.LVL3:
  65:../srccode/device.c ****     while(0 != *(pucChar + i))
 176              		.loc 1 65 0
 177 00b4 0C10D0E7 		ldrb	r1, [r0, ip]	@ zero_extendqisi2
 178 00b8 000051E3 		cmp	r1, #0
 179 00bc F6FFFF1A 		bne	.L13
 180 00c0 1EFF2FE1 		bx	lr
 181              		.cfi_endproc
 182              	.LFE3:
 183              		.fnend
 184              		.size	DEV_PutString, .-DEV_PutString
 185              		.align	2
 186              		.global	DEV_SetGpioMode
 187              		.type	DEV_SetGpioMode, %function
 188              	DEV_SetGpioMode:
 189              		.fnstart
 190              	.LFB4:
  78:../srccode/device.c **** {
 191              		.loc 1 78 0
 192              		.cfi_startproc
 193              		@ Function supports interworking.
 194              		@ args = 0, pretend = 0, frame = 0
 195              		@ frame_needed = 0, uses_anonymous_args = 0
 196              		@ link register save eliminated.
 197              		.loc 1 79 0
 198 00c4 1120A0E3 		mov	r2, #17
 199 00c8 0030E0E3 		mvn	r3, #0
 200 00cc FB2B03E5 		str	r2, [r3, #-3067]
  80:../srccode/device.c **** }
 201              		.loc 1 80 0
 202 00d0 1EFF2FE1 		bx	lr
 203              		.cfi_endproc
 204              	.LFE4:
 205              		.fnend
 206              		.size	DEV_SetGpioMode, .-DEV_SetGpioMode
 207              	.Letext0:
 208              		.section	.debug_loc,"",%progbits
 209              	.Ldebug_loc0:
 210              	.LLST0:
 211 0000 88000000 		.4byte	.LVL1-.Ltext0
 212 0004 9C000000 		.4byte	.LVL2-.Ltext0
 213 0008 0200     		.2byte	0x2
 214 000a 30       		.byte	0x30
 215 000b 9F       		.byte	0x9f
 216 000c B4000000 		.4byte	.LVL3-.Ltext0
 217 0010 C4000000 		.4byte	.LFE3-.Ltext0
 218 0014 0100     		.2byte	0x1
 219 0016 5C       		.byte	0x5c
 220 0017 00000000 		.4byte	0x0
 221 001b 00000000 		.4byte	0x0
 222              		.file 2 "../wanlix/wanlix.h"
 223              		.section	.debug_info
ARM GAS  C:\DOCUME~1\ADMINI~1\LOCALS~1\Temp\ccSs2r3y.s 			page 7


 224 0000 4C010000 		.4byte	0x14c
 225 0004 0200     		.2byte	0x2
 226 0006 00000000 		.4byte	.Ldebug_abbrev0
 227 000a 04       		.byte	0x4
 228 000b 01       		.uleb128 0x1
 229 000c 00000000 		.4byte	.LASF10
 230 0010 01       		.byte	0x1
 231 0011 75000000 		.4byte	.LASF11
 232 0015 19000000 		.4byte	.LASF12
 233 0019 00000000 		.4byte	.Ltext0
 234 001d D4000000 		.4byte	.Letext0
 235 0021 00000000 		.4byte	.Ldebug_line0
 236 0025 02       		.uleb128 0x2
 237 0026 04       		.byte	0x4
 238 0027 07       		.byte	0x7
 239 0028 49000000 		.4byte	.LASF0
 240 002c 02       		.uleb128 0x2
 241 002d 04       		.byte	0x4
 242 002e 07       		.byte	0x7
 243 002f 0C000000 		.4byte	.LASF1
 244 0033 03       		.uleb128 0x3
 245 0034 553800   		.ascii	"U8\000"
 246 0037 02       		.byte	0x2
 247 0038 07       		.byte	0x7
 248 0039 3D000000 		.4byte	0x3d
 249 003d 02       		.uleb128 0x2
 250 003e 01       		.byte	0x1
 251 003f 08       		.byte	0x8
 252 0040 89000000 		.4byte	.LASF2
 253 0044 02       		.uleb128 0x2
 254 0045 02       		.byte	0x2
 255 0046 07       		.byte	0x7
 256 0047 B4000000 		.4byte	.LASF3
 257 004b 02       		.uleb128 0x2
 258 004c 01       		.byte	0x1
 259 004d 08       		.byte	0x8
 260 004e 97000000 		.4byte	.LASF4
 261 0052 02       		.uleb128 0x2
 262 0053 02       		.byte	0x2
 263 0054 05       		.byte	0x5
 264 0055 DB000000 		.4byte	.LASF5
 265 0059 04       		.uleb128 0x4
 266 005a 04       		.byte	0x4
 267 005b 05       		.byte	0x5
 268 005c 696E7400 		.ascii	"int\000"
 269 0060 05       		.uleb128 0x5
 270 0061 01       		.byte	0x1
 271 0062 69000000 		.4byte	.LASF13
 272 0066 01       		.byte	0x1
 273 0067 2B       		.byte	0x2b
 274 0068 01       		.byte	0x1
 275 0069 01       		.byte	0x1
 276 006a 7A000000 		.4byte	0x7a
 277 006e 06       		.uleb128 0x6
 278 006f C7000000 		.4byte	.LASF14
 279 0073 01       		.byte	0x1
 280 0074 2B       		.byte	0x2b
ARM GAS  C:\DOCUME~1\ADMINI~1\LOCALS~1\Temp\ccSs2r3y.s 			page 8


 281 0075 33000000 		.4byte	0x33
 282 0079 00       		.byte	0x0
 283 007a 07       		.uleb128 0x7
 284 007b 01       		.byte	0x1
 285 007c A4000000 		.4byte	.LASF6
 286 0080 01       		.byte	0x1
 287 0081 4D       		.byte	0x4d
 288 0082 01       		.byte	0x1
 289 0083 01       		.byte	0x1
 290 0084 07       		.uleb128 0x7
 291 0085 01       		.byte	0x1
 292 0086 CE000000 		.4byte	.LASF7
 293 008a 01       		.byte	0x1
 294 008b 18       		.byte	0x18
 295 008c 01       		.byte	0x1
 296 008d 01       		.byte	0x1
 297 008e 08       		.uleb128 0x8
 298 008f 01       		.byte	0x1
 299 0090 38000000 		.4byte	.LASF8
 300 0094 01       		.byte	0x1
 301 0095 0A       		.byte	0xa
 302 0096 01       		.byte	0x1
 303 0097 00000000 		.4byte	.LFB0
 304 009b 3C000000 		.4byte	.LFE0
 305 009f 02       		.byte	0x2
 306 00a0 7D       		.byte	0x7d
 307 00a1 00       		.sleb128 0
 308 00a2 C5000000 		.4byte	0xc5
 309 00a6 09       		.uleb128 0x9
 310 00a7 7A000000 		.4byte	0x7a
 311 00ab 00000000 		.4byte	.LBB8
 312 00af 0C000000 		.4byte	.LBE8
 313 00b3 01       		.byte	0x1
 314 00b4 0D       		.byte	0xd
 315 00b5 09       		.uleb128 0x9
 316 00b6 84000000 		.4byte	0x84
 317 00ba 0C000000 		.4byte	.LBB10
 318 00be 38000000 		.4byte	.LBE10
 319 00c2 01       		.byte	0x1
 320 00c3 10       		.byte	0x10
 321 00c4 00       		.byte	0x0
 322 00c5 0A       		.uleb128 0xa
 323 00c6 84000000 		.4byte	0x84
 324 00ca 3C000000 		.4byte	.LFB1
 325 00ce 6C000000 		.4byte	.LFE1
 326 00d2 02       		.byte	0x2
 327 00d3 7D       		.byte	0x7d
 328 00d4 00       		.sleb128 0
 329 00d5 0B       		.uleb128 0xb
 330 00d6 60000000 		.4byte	0x60
 331 00da 6C000000 		.4byte	.LFB2
 332 00de 88000000 		.4byte	.LFE2
 333 00e2 02       		.byte	0x2
 334 00e3 7D       		.byte	0x7d
 335 00e4 00       		.sleb128 0
 336 00e5 F1000000 		.4byte	0xf1
 337 00e9 0C       		.uleb128 0xc
ARM GAS  C:\DOCUME~1\ADMINI~1\LOCALS~1\Temp\ccSs2r3y.s 			page 9


 338 00ea 6E000000 		.4byte	0x6e
 339 00ee 01       		.byte	0x1
 340 00ef 50       		.byte	0x50
 341 00f0 00       		.byte	0x0
 342 00f1 08       		.uleb128 0x8
 343 00f2 01       		.byte	0x1
 344 00f3 5B000000 		.4byte	.LASF9
 345 00f7 01       		.byte	0x1
 346 00f8 3B       		.byte	0x3b
 347 00f9 01       		.byte	0x1
 348 00fa 88000000 		.4byte	.LFB3
 349 00fe C4000000 		.4byte	.LFE3
 350 0102 02       		.byte	0x2
 351 0103 7D       		.byte	0x7d
 352 0104 00       		.sleb128 0
 353 0105 39010000 		.4byte	0x139
 354 0109 0D       		.uleb128 0xd
 355 010a 9C000000 		.4byte	.LASF15
 356 010e 01       		.byte	0x1
 357 010f 3B       		.byte	0x3b
 358 0110 39010000 		.4byte	0x139
 359 0114 01       		.byte	0x1
 360 0115 50       		.byte	0x50
 361 0116 0E       		.uleb128 0xe
 362 0117 6900     		.ascii	"i\000"
 363 0119 01       		.byte	0x1
 364 011a 3D       		.byte	0x3d
 365 011b 33000000 		.4byte	0x33
 366 011f 00000000 		.4byte	.LLST0
 367 0123 0F       		.uleb128 0xf
 368 0124 60000000 		.4byte	0x60
 369 0128 98000000 		.4byte	.LBB12
 370 012c AC000000 		.4byte	.LBE12
 371 0130 01       		.byte	0x1
 372 0131 43       		.byte	0x43
 373 0132 10       		.uleb128 0x10
 374 0133 6E000000 		.4byte	0x6e
 375 0137 00       		.byte	0x0
 376 0138 00       		.byte	0x0
 377 0139 11       		.uleb128 0x11
 378 013a 04       		.byte	0x4
 379 013b 33000000 		.4byte	0x33
 380 013f 0A       		.uleb128 0xa
 381 0140 7A000000 		.4byte	0x7a
 382 0144 C4000000 		.4byte	.LFB4
 383 0148 D4000000 		.4byte	.LFE4
 384 014c 02       		.byte	0x2
 385 014d 7D       		.byte	0x7d
 386 014e 00       		.sleb128 0
 387 014f 00       		.byte	0x0
 388              		.section	.debug_abbrev
 389 0000 01       		.uleb128 0x1
 390 0001 11       		.uleb128 0x11
 391 0002 01       		.byte	0x1
 392 0003 25       		.uleb128 0x25
 393 0004 0E       		.uleb128 0xe
 394 0005 13       		.uleb128 0x13
ARM GAS  C:\DOCUME~1\ADMINI~1\LOCALS~1\Temp\ccSs2r3y.s 			page 10


 395 0006 0B       		.uleb128 0xb
 396 0007 03       		.uleb128 0x3
 397 0008 0E       		.uleb128 0xe
 398 0009 1B       		.uleb128 0x1b
 399 000a 0E       		.uleb128 0xe
 400 000b 11       		.uleb128 0x11
 401 000c 01       		.uleb128 0x1
 402 000d 12       		.uleb128 0x12
 403 000e 01       		.uleb128 0x1
 404 000f 10       		.uleb128 0x10
 405 0010 06       		.uleb128 0x6
 406 0011 00       		.byte	0x0
 407 0012 00       		.byte	0x0
 408 0013 02       		.uleb128 0x2
 409 0014 24       		.uleb128 0x24
 410 0015 00       		.byte	0x0
 411 0016 0B       		.uleb128 0xb
 412 0017 0B       		.uleb128 0xb
 413 0018 3E       		.uleb128 0x3e
 414 0019 0B       		.uleb128 0xb
 415 001a 03       		.uleb128 0x3
 416 001b 0E       		.uleb128 0xe
 417 001c 00       		.byte	0x0
 418 001d 00       		.byte	0x0
 419 001e 03       		.uleb128 0x3
 420 001f 16       		.uleb128 0x16
 421 0020 00       		.byte	0x0
 422 0021 03       		.uleb128 0x3
 423 0022 08       		.uleb128 0x8
 424 0023 3A       		.uleb128 0x3a
 425 0024 0B       		.uleb128 0xb
 426 0025 3B       		.uleb128 0x3b
 427 0026 0B       		.uleb128 0xb
 428 0027 49       		.uleb128 0x49
 429 0028 13       		.uleb128 0x13
 430 0029 00       		.byte	0x0
 431 002a 00       		.byte	0x0
 432 002b 04       		.uleb128 0x4
 433 002c 24       		.uleb128 0x24
 434 002d 00       		.byte	0x0
 435 002e 0B       		.uleb128 0xb
 436 002f 0B       		.uleb128 0xb
 437 0030 3E       		.uleb128 0x3e
 438 0031 0B       		.uleb128 0xb
 439 0032 03       		.uleb128 0x3
 440 0033 08       		.uleb128 0x8
 441 0034 00       		.byte	0x0
 442 0035 00       		.byte	0x0
 443 0036 05       		.uleb128 0x5
 444 0037 2E       		.uleb128 0x2e
 445 0038 01       		.byte	0x1
 446 0039 3F       		.uleb128 0x3f
 447 003a 0C       		.uleb128 0xc
 448 003b 03       		.uleb128 0x3
 449 003c 0E       		.uleb128 0xe
 450 003d 3A       		.uleb128 0x3a
 451 003e 0B       		.uleb128 0xb
ARM GAS  C:\DOCUME~1\ADMINI~1\LOCALS~1\Temp\ccSs2r3y.s 			page 11


 452 003f 3B       		.uleb128 0x3b
 453 0040 0B       		.uleb128 0xb
 454 0041 27       		.uleb128 0x27
 455 0042 0C       		.uleb128 0xc
 456 0043 20       		.uleb128 0x20
 457 0044 0B       		.uleb128 0xb
 458 0045 01       		.uleb128 0x1
 459 0046 13       		.uleb128 0x13
 460 0047 00       		.byte	0x0
 461 0048 00       		.byte	0x0
 462 0049 06       		.uleb128 0x6
 463 004a 05       		.uleb128 0x5
 464 004b 00       		.byte	0x0
 465 004c 03       		.uleb128 0x3
 466 004d 0E       		.uleb128 0xe
 467 004e 3A       		.uleb128 0x3a
 468 004f 0B       		.uleb128 0xb
 469 0050 3B       		.uleb128 0x3b
 470 0051 0B       		.uleb128 0xb
 471 0052 49       		.uleb128 0x49
 472 0053 13       		.uleb128 0x13
 473 0054 00       		.byte	0x0
 474 0055 00       		.byte	0x0
 475 0056 07       		.uleb128 0x7
 476 0057 2E       		.uleb128 0x2e
 477 0058 00       		.byte	0x0
 478 0059 3F       		.uleb128 0x3f
 479 005a 0C       		.uleb128 0xc
 480 005b 03       		.uleb128 0x3
 481 005c 0E       		.uleb128 0xe
 482 005d 3A       		.uleb128 0x3a
 483 005e 0B       		.uleb128 0xb
 484 005f 3B       		.uleb128 0x3b
 485 0060 0B       		.uleb128 0xb
 486 0061 27       		.uleb128 0x27
 487 0062 0C       		.uleb128 0xc
 488 0063 20       		.uleb128 0x20
 489 0064 0B       		.uleb128 0xb
 490 0065 00       		.byte	0x0
 491 0066 00       		.byte	0x0
 492 0067 08       		.uleb128 0x8
 493 0068 2E       		.uleb128 0x2e
 494 0069 01       		.byte	0x1
 495 006a 3F       		.uleb128 0x3f
 496 006b 0C       		.uleb128 0xc
 497 006c 03       		.uleb128 0x3
 498 006d 0E       		.uleb128 0xe
 499 006e 3A       		.uleb128 0x3a
 500 006f 0B       		.uleb128 0xb
 501 0070 3B       		.uleb128 0x3b
 502 0071 0B       		.uleb128 0xb
 503 0072 27       		.uleb128 0x27
 504 0073 0C       		.uleb128 0xc
 505 0074 11       		.uleb128 0x11
 506 0075 01       		.uleb128 0x1
 507 0076 12       		.uleb128 0x12
 508 0077 01       		.uleb128 0x1
ARM GAS  C:\DOCUME~1\ADMINI~1\LOCALS~1\Temp\ccSs2r3y.s 			page 12


 509 0078 40       		.uleb128 0x40
 510 0079 0A       		.uleb128 0xa
 511 007a 01       		.uleb128 0x1
 512 007b 13       		.uleb128 0x13
 513 007c 00       		.byte	0x0
 514 007d 00       		.byte	0x0
 515 007e 09       		.uleb128 0x9
 516 007f 1D       		.uleb128 0x1d
 517 0080 00       		.byte	0x0
 518 0081 31       		.uleb128 0x31
 519 0082 13       		.uleb128 0x13
 520 0083 11       		.uleb128 0x11
 521 0084 01       		.uleb128 0x1
 522 0085 12       		.uleb128 0x12
 523 0086 01       		.uleb128 0x1
 524 0087 58       		.uleb128 0x58
 525 0088 0B       		.uleb128 0xb
 526 0089 59       		.uleb128 0x59
 527 008a 0B       		.uleb128 0xb
 528 008b 00       		.byte	0x0
 529 008c 00       		.byte	0x0
 530 008d 0A       		.uleb128 0xa
 531 008e 2E       		.uleb128 0x2e
 532 008f 00       		.byte	0x0
 533 0090 31       		.uleb128 0x31
 534 0091 13       		.uleb128 0x13
 535 0092 11       		.uleb128 0x11
 536 0093 01       		.uleb128 0x1
 537 0094 12       		.uleb128 0x12
 538 0095 01       		.uleb128 0x1
 539 0096 40       		.uleb128 0x40
 540 0097 0A       		.uleb128 0xa
 541 0098 00       		.byte	0x0
 542 0099 00       		.byte	0x0
 543 009a 0B       		.uleb128 0xb
 544 009b 2E       		.uleb128 0x2e
 545 009c 01       		.byte	0x1
 546 009d 31       		.uleb128 0x31
 547 009e 13       		.uleb128 0x13
 548 009f 11       		.uleb128 0x11
 549 00a0 01       		.uleb128 0x1
 550 00a1 12       		.uleb128 0x12
 551 00a2 01       		.uleb128 0x1
 552 00a3 40       		.uleb128 0x40
 553 00a4 0A       		.uleb128 0xa
 554 00a5 01       		.uleb128 0x1
 555 00a6 13       		.uleb128 0x13
 556 00a7 00       		.byte	0x0
 557 00a8 00       		.byte	0x0
 558 00a9 0C       		.uleb128 0xc
 559 00aa 05       		.uleb128 0x5
 560 00ab 00       		.byte	0x0
 561 00ac 31       		.uleb128 0x31
 562 00ad 13       		.uleb128 0x13
 563 00ae 02       		.uleb128 0x2
 564 00af 0A       		.uleb128 0xa
 565 00b0 00       		.byte	0x0
ARM GAS  C:\DOCUME~1\ADMINI~1\LOCALS~1\Temp\ccSs2r3y.s 			page 13


 566 00b1 00       		.byte	0x0
 567 00b2 0D       		.uleb128 0xd
 568 00b3 05       		.uleb128 0x5
 569 00b4 00       		.byte	0x0
 570 00b5 03       		.uleb128 0x3
 571 00b6 0E       		.uleb128 0xe
 572 00b7 3A       		.uleb128 0x3a
 573 00b8 0B       		.uleb128 0xb
 574 00b9 3B       		.uleb128 0x3b
 575 00ba 0B       		.uleb128 0xb
 576 00bb 49       		.uleb128 0x49
 577 00bc 13       		.uleb128 0x13
 578 00bd 02       		.uleb128 0x2
 579 00be 0A       		.uleb128 0xa
 580 00bf 00       		.byte	0x0
 581 00c0 00       		.byte	0x0
 582 00c1 0E       		.uleb128 0xe
 583 00c2 34       		.uleb128 0x34
 584 00c3 00       		.byte	0x0
 585 00c4 03       		.uleb128 0x3
 586 00c5 08       		.uleb128 0x8
 587 00c6 3A       		.uleb128 0x3a
 588 00c7 0B       		.uleb128 0xb
 589 00c8 3B       		.uleb128 0x3b
 590 00c9 0B       		.uleb128 0xb
 591 00ca 49       		.uleb128 0x49
 592 00cb 13       		.uleb128 0x13
 593 00cc 02       		.uleb128 0x2
 594 00cd 06       		.uleb128 0x6
 595 00ce 00       		.byte	0x0
 596 00cf 00       		.byte	0x0
 597 00d0 0F       		.uleb128 0xf
 598 00d1 1D       		.uleb128 0x1d
 599 00d2 01       		.byte	0x1
 600 00d3 31       		.uleb128 0x31
 601 00d4 13       		.uleb128 0x13
 602 00d5 11       		.uleb128 0x11
 603 00d6 01       		.uleb128 0x1
 604 00d7 12       		.uleb128 0x12
 605 00d8 01       		.uleb128 0x1
 606 00d9 58       		.uleb128 0x58
 607 00da 0B       		.uleb128 0xb
 608 00db 59       		.uleb128 0x59
 609 00dc 0B       		.uleb128 0xb
 610 00dd 00       		.byte	0x0
 611 00de 00       		.byte	0x0
 612 00df 10       		.uleb128 0x10
 613 00e0 05       		.uleb128 0x5
 614 00e1 00       		.byte	0x0
 615 00e2 31       		.uleb128 0x31
 616 00e3 13       		.uleb128 0x13
 617 00e4 00       		.byte	0x0
 618 00e5 00       		.byte	0x0
 619 00e6 11       		.uleb128 0x11
 620 00e7 0F       		.uleb128 0xf
 621 00e8 00       		.byte	0x0
 622 00e9 0B       		.uleb128 0xb
ARM GAS  C:\DOCUME~1\ADMINI~1\LOCALS~1\Temp\ccSs2r3y.s 			page 14


 623 00ea 0B       		.uleb128 0xb
 624 00eb 49       		.uleb128 0x49
 625 00ec 13       		.uleb128 0x13
 626 00ed 00       		.byte	0x0
 627 00ee 00       		.byte	0x0
 628 00ef 00       		.byte	0x0
 629              		.section	.debug_pubnames,"",%progbits
 630 0000 6A000000 		.4byte	0x6a
 631 0004 0200     		.2byte	0x2
 632 0006 00000000 		.4byte	.Ldebug_info0
 633 000a 50010000 		.4byte	0x150
 634 000e 8E000000 		.4byte	0x8e
 635 0012 4445565F 		.ascii	"DEV_HardwareInit\000"
 635      48617264 
 635      77617265 
 635      496E6974 
 635      00
 636 0023 C5000000 		.4byte	0xc5
 637 0027 4445565F 		.ascii	"DEV_UartInit\000"
 637      55617274 
 637      496E6974 
 637      00
 638 0034 D5000000 		.4byte	0xd5
 639 0038 4445565F 		.ascii	"DEV_PutChar\000"
 639      50757443 
 639      68617200 
 640 0044 F1000000 		.4byte	0xf1
 641 0048 4445565F 		.ascii	"DEV_PutString\000"
 641      50757453 
 641      7472696E 
 641      6700
 642 0056 3F010000 		.4byte	0x13f
 643 005a 4445565F 		.ascii	"DEV_SetGpioMode\000"
 643      53657447 
 643      70696F4D 
 643      6F646500 
 644 006a 00000000 		.4byte	0x0
 645              		.section	.debug_pubtypes,"",%progbits
 646 0000 15000000 		.4byte	0x15
 647 0004 0200     		.2byte	0x2
 648 0006 00000000 		.4byte	.Ldebug_info0
 649 000a 50010000 		.4byte	0x150
 650 000e 33000000 		.4byte	0x33
 651 0012 553800   		.ascii	"U8\000"
 652 0015 00000000 		.4byte	0x0
 653              		.section	.debug_aranges,"",%progbits
 654 0000 1C000000 		.4byte	0x1c
 655 0004 0200     		.2byte	0x2
 656 0006 00000000 		.4byte	.Ldebug_info0
 657 000a 04       		.byte	0x4
 658 000b 00       		.byte	0x0
 659 000c 0000     		.2byte	0x0
 660 000e 0000     		.2byte	0x0
 661 0010 00000000 		.4byte	.Ltext0
 662 0014 D4000000 		.4byte	.Letext0-.Ltext0
 663 0018 00000000 		.4byte	0x0
 664 001c 00000000 		.4byte	0x0
ARM GAS  C:\DOCUME~1\ADMINI~1\LOCALS~1\Temp\ccSs2r3y.s 			page 15


 665              		.section	.debug_str,"MS",%progbits,1
 666              	.LASF10:
 667 0000 474E5520 		.ascii	"GNU C 4.5.2\000"
 667      4320342E 
 667      352E3200 
 668              	.LASF1:
 669 000c 756E7369 		.ascii	"unsigned int\000"
 669      676E6564 
 669      20696E74 
 669      00
 670              	.LASF12:
 671 0019 463A5C77 		.ascii	"F:\\workdir\\RTOS_Wanlix\\project\000"
 671      6F726B64 
 671      69725C52 
 671      544F535F 
 671      57616E6C 
 672              	.LASF8:
 673 0038 4445565F 		.ascii	"DEV_HardwareInit\000"
 673      48617264 
 673      77617265 
 673      496E6974 
 673      00
 674              	.LASF0:
 675 0049 6C6F6E67 		.ascii	"long unsigned int\000"
 675      20756E73 
 675      69676E65 
 675      6420696E 
 675      7400
 676              	.LASF9:
 677 005b 4445565F 		.ascii	"DEV_PutString\000"
 677      50757453 
 677      7472696E 
 677      6700
 678              	.LASF13:
 679 0069 4445565F 		.ascii	"DEV_PutChar\000"
 679      50757443 
 679      68617200 
 680              	.LASF11:
 681 0075 2E2E2F73 		.ascii	"../srccode/device.c\000"
 681      7263636F 
 681      64652F64 
 681      65766963 
 681      652E6300 
 682              	.LASF2:
 683 0089 756E7369 		.ascii	"unsigned char\000"
 683      676E6564 
 683      20636861 
 683      7200
 684              	.LASF4:
 685 0097 63686172 		.ascii	"char\000"
 685      00
 686              	.LASF15:
 687 009c 70756343 		.ascii	"pucChar\000"
 687      68617200 
 688              	.LASF6:
 689 00a4 4445565F 		.ascii	"DEV_SetGpioMode\000"
 689      53657447 
ARM GAS  C:\DOCUME~1\ADMINI~1\LOCALS~1\Temp\ccSs2r3y.s 			page 16


 689      70696F4D 
 689      6F646500 
 690              	.LASF3:
 691 00b4 73686F72 		.ascii	"short unsigned int\000"
 691      7420756E 
 691      7369676E 
 691      65642069 
 691      6E7400
 692              	.LASF14:
 693 00c7 75634368 		.ascii	"ucChar\000"
 693      617200
 694              	.LASF7:
 695 00ce 4445565F 		.ascii	"DEV_UartInit\000"
 695      55617274 
 695      496E6974 
 695      00
 696              	.LASF5:
 697 00db 73686F72 		.ascii	"short int\000"
 697      7420696E 
 697      7400
 698              		.ident	"GCC: (Sourcery G++ Lite 2011.03-41) 4.5.2"
 699              		.section	.note.GNU-stack,"",%progbits
ARM GAS  C:\DOCUME~1\ADMINI~1\LOCALS~1\Temp\ccSs2r3y.s 			page 17


DEFINED SYMBOLS
                            *ABS*:00000000 device.c
C:\DOCUME~1\ADMINI~1\LOCALS~1\Temp\ccSs2r3y.s:21     .text:00000000 $a
C:\DOCUME~1\ADMINI~1\LOCALS~1\Temp\ccSs2r3y.s:24     .text:00000000 DEV_HardwareInit
                       .ARM.exidx:00000000 $d
C:\DOCUME~1\ADMINI~1\LOCALS~1\Temp\ccSs2r3y.s:76     .text:0000003c DEV_UartInit
C:\DOCUME~1\ADMINI~1\LOCALS~1\Temp\ccSs2r3y.s:115    .text:0000006c DEV_PutChar
C:\DOCUME~1\ADMINI~1\LOCALS~1\Temp\ccSs2r3y.s:144    .text:00000088 DEV_PutString
C:\DOCUME~1\ADMINI~1\LOCALS~1\Temp\ccSs2r3y.s:188    .text:000000c4 DEV_SetGpioMode
                     .debug_frame:00000010 $d

UNDEFINED SYMBOLS
__aeabi_unwind_cpp_pr0
