ARM GAS  C:\DOCUME~1\ADMINI~1\LOCALS~1\Temp\ccOl1E3i.s 			page 1


   1              		.cpu arm7tdmi
   2              		.fpu softvfp
   3              		.eabi_attribute 20, 1
   4              		.eabi_attribute 21, 1
   5              		.eabi_attribute 23, 3
   6              		.eabi_attribute 24, 1
   7              		.eabi_attribute 25, 1
   8              		.eabi_attribute 26, 2
   9              		.eabi_attribute 30, 2
  10              		.eabi_attribute 18, 4
  11              		.file	"wlx_core_c.c"
  18 0000 CA000000 		.text
  18      02003900 
  18      00000201 
  18      FB0E0D00 
  18      01010101 
  19              	.Ltext0:
  20              		.cfi_sections	.debug_frame
  21              		.align	2
  22              		.global	WLX_TaskTcbInit
  23              		.type	WLX_TaskTcbInit, %function
  24              	WLX_TaskTcbInit:
  25              		.fnstart
  26              	.LFB2:
  27              		.file 1 "../wanlix/wlx_core_c.c"
   1:../wanlix/wlx_core_c.c **** 
   2:../wanlix/wlx_core_c.c **** #include "wlx_core_c.h"
   3:../wanlix/wlx_core_c.c **** 
   4:../wanlix/wlx_core_c.c **** 
   5:../wanlix/wlx_core_c.c **** W_TCB* gpstrCurTcb;             /* 当前运行的任务的TCB */
   6:../wanlix/wlx_core_c.c **** U32 guiNextTaskSp;              /* 将要运行的任务堆栈指针 */
   7:../wanlix/wlx_core_c.c **** U32* gpuiCurTaskSpAddr;         /* 存放当前运行任务堆栈指针的地址 */
   8:../wanlix/wlx_core_c.c **** W_TCB* gpstrRootTaskTcb;        /* 根任务的TCB指针 */
   9:../wanlix/wlx_core_c.c **** 
  10:../wanlix/wlx_core_c.c **** U8 gaucRootTaskStack[ROOTTASKSTACK];    /* 根任务的堆栈 */
  11:../wanlix/wlx_core_c.c **** 
  12:../wanlix/wlx_core_c.c **** 
  13:../wanlix/wlx_core_c.c **** /***********************************************************************************
  14:../wanlix/wlx_core_c.c **** 函数功能: 主函数, C程序从此函数开始运行. 该函数创建系统任务并从非任务状态切换到Root
  15:../wanlix/wlx_core_c.c ****           任务运行.
  16:../wanlix/wlx_core_c.c **** 入口参数: none.
  17:../wanlix/wlx_core_c.c **** 返 回 值: none.
  18:../wanlix/wlx_core_c.c **** ***********************************************************************************/
  19:../wanlix/wlx_core_c.c **** S32 main(void)
  20:../wanlix/wlx_core_c.c **** {
  21:../wanlix/wlx_core_c.c ****     /* 创建根任务 */
  22:../wanlix/wlx_core_c.c ****     gpstrRootTaskTcb = WLX_TaskCreate((VFUNC)WLX_RootTask, gaucRootTaskStack,
  23:../wanlix/wlx_core_c.c ****                                       ROOTTASKSTACK);
  24:../wanlix/wlx_core_c.c **** 
  25:../wanlix/wlx_core_c.c ****     /* 开始任务调度, 从根任务开始执行 */
  26:../wanlix/wlx_core_c.c ****     WLX_TaskStart(gpstrRootTaskTcb);
ARM GAS  C:\DOCUME~1\ADMINI~1\LOCALS~1\Temp\ccOl1E3i.s 			page 2


  27:../wanlix/wlx_core_c.c **** 
  28:../wanlix/wlx_core_c.c ****     return 0;
  29:../wanlix/wlx_core_c.c **** }
  30:../wanlix/wlx_core_c.c **** 
  31:../wanlix/wlx_core_c.c **** /***********************************************************************************
  32:../wanlix/wlx_core_c.c **** 函数功能: 创建一个任务.
  33:../wanlix/wlx_core_c.c **** 入口参数: vfFuncPointer: 创建任务所使用函数的指针.
  34:../wanlix/wlx_core_c.c ****           pucTaskStack: 任务所使用堆栈的最低起始地址.
  35:../wanlix/wlx_core_c.c ****           uiStackSize: 堆栈大小, 单位: 字节.
  36:../wanlix/wlx_core_c.c **** 返 回 值: NULL: 创建任务失败.
  37:../wanlix/wlx_core_c.c ****           其它: 任务的TCB指针.
  38:../wanlix/wlx_core_c.c **** ***********************************************************************************/
  39:../wanlix/wlx_core_c.c **** W_TCB* WLX_TaskCreate(VFUNC vfFuncPointer, U8* pucTaskStack, U32 uiStackSize)
  40:../wanlix/wlx_core_c.c **** {
  41:../wanlix/wlx_core_c.c ****     W_TCB* pstrTcb;
  42:../wanlix/wlx_core_c.c **** 
  43:../wanlix/wlx_core_c.c ****     /* 对创建任务所使用函数的指针合法性进行检查 */
  44:../wanlix/wlx_core_c.c ****     if(NULL == vfFuncPointer)
  45:../wanlix/wlx_core_c.c ****     {
  46:../wanlix/wlx_core_c.c ****         /* 指针为空, 返回失败 */
  47:../wanlix/wlx_core_c.c ****         return (W_TCB*)NULL;
  48:../wanlix/wlx_core_c.c ****     }
  49:../wanlix/wlx_core_c.c **** 
  50:../wanlix/wlx_core_c.c ****     /* 对任务堆栈合法性进行检查 */
  51:../wanlix/wlx_core_c.c ****     if((NULL == pucTaskStack) || (0 == uiStackSize))
  52:../wanlix/wlx_core_c.c ****     {
  53:../wanlix/wlx_core_c.c ****         /* 堆栈不合法, 返回失败 */
  54:../wanlix/wlx_core_c.c ****         return (W_TCB*)NULL;
  55:../wanlix/wlx_core_c.c ****     }
  56:../wanlix/wlx_core_c.c **** 
  57:../wanlix/wlx_core_c.c ****     /* 初始化TCB */
  58:../wanlix/wlx_core_c.c ****     pstrTcb = WLX_TaskTcbInit(pucTaskStack, uiStackSize);
  59:../wanlix/wlx_core_c.c **** 
  60:../wanlix/wlx_core_c.c ****     /* 初始化任务堆栈 */
  61:../wanlix/wlx_core_c.c ****     WLX_TaskStackInit(pstrTcb, vfFuncPointer);
  62:../wanlix/wlx_core_c.c **** 
  63:../wanlix/wlx_core_c.c ****     return pstrTcb;
  64:../wanlix/wlx_core_c.c **** }
  65:../wanlix/wlx_core_c.c **** 
  66:../wanlix/wlx_core_c.c **** /***********************************************************************************
  67:../wanlix/wlx_core_c.c **** 函数功能: 初始化任务TCB, 用来创建任务运行前TCB的状态.
  68:../wanlix/wlx_core_c.c **** 入口参数: pucTaskStack: 任务所使用的堆栈地址.
  69:../wanlix/wlx_core_c.c ****           uiStackSize: 堆栈大小, 单位: 字节.
  70:../wanlix/wlx_core_c.c **** 返 回 值: 任务TCB的指针.
  71:../wanlix/wlx_core_c.c **** ***********************************************************************************/
  72:../wanlix/wlx_core_c.c **** W_TCB* WLX_TaskTcbInit(U8* pucTaskStack, U32 uiStackSize)
  73:../wanlix/wlx_core_c.c **** {
  28              		.loc 1 73 0
  29              		.cfi_startproc
  30              		@ Function supports interworking.
  31              		@ args = 0, pretend = 0, frame = 0
  32              		@ frame_needed = 0, uses_anonymous_args = 0
  33              		@ link register save eliminated.
  34              	.LVL0:
  74:../wanlix/wlx_core_c.c ****     W_TCB* pstrTcb;
  75:../wanlix/wlx_core_c.c ****     U8* pucStackBy4;
  76:../wanlix/wlx_core_c.c **** 
ARM GAS  C:\DOCUME~1\ADMINI~1\LOCALS~1\Temp\ccOl1E3i.s 			page 3


  77:../wanlix/wlx_core_c.c ****     /* 堆栈满地址, 需要4字节对齐 */
  78:../wanlix/wlx_core_c.c ****     pucStackBy4 = (U8*)(((U32)pucTaskStack + uiStackSize) & 0xFFFFFFFC);
  35              		.loc 1 78 0
  36 0000 011080E0 		add	r1, r0, r1
  37              	.LVL1:
  38 0004 0300C1E3 		bic	r0, r1, #3
  39              	.LVL2:
  79:../wanlix/wlx_core_c.c **** 
  80:../wanlix/wlx_core_c.c ****     /* TCB结构存放的地址, 需要4字节对齐 */
  81:../wanlix/wlx_core_c.c ****     pstrTcb = (W_TCB*)(((U32)pucStackBy4 - sizeof(W_TCB)) & 0xFFFFFFFC);
  40              		.loc 1 81 0
  41 0008 040040E2 		sub	r0, r0, #4
  42              	.LVL3:
  82:../wanlix/wlx_core_c.c **** 
  83:../wanlix/wlx_core_c.c ****     /* 初始化TCB结构 */
  84:../wanlix/wlx_core_c.c ****     pstrTcb->uiTaskCurSp = (U32)pstrTcb;
  43              		.loc 1 84 0
  44 000c 000080E5 		str	r0, [r0, #0]
  85:../wanlix/wlx_core_c.c **** 
  86:../wanlix/wlx_core_c.c ****     return pstrTcb;
  87:../wanlix/wlx_core_c.c **** }
  45              		.loc 1 87 0
  46 0010 1EFF2FE1 		bx	lr
  47              		.cfi_endproc
  48              	.LFE2:
  49              		.fnend
  50              		.size	WLX_TaskTcbInit, .-WLX_TaskTcbInit
  51              		.align	2
  52              		.global	WLX_TaskStackInit
  53              		.type	WLX_TaskStackInit, %function
  54              	WLX_TaskStackInit:
  55              		.fnstart
  56              	.LFB3:
  88:../wanlix/wlx_core_c.c **** 
  89:../wanlix/wlx_core_c.c **** /***********************************************************************************
  90:../wanlix/wlx_core_c.c **** 函数功能: 初始化任务堆栈函数, 用来创建任务运行前的堆栈状态.
  91:../wanlix/wlx_core_c.c **** 入口参数: pstrTcb: 任务的TCB指针.
  92:../wanlix/wlx_core_c.c ****           vfFuncPointer: 任务运行的函数.
  93:../wanlix/wlx_core_c.c **** 返 回 值: none.
  94:../wanlix/wlx_core_c.c **** ***********************************************************************************/
  95:../wanlix/wlx_core_c.c **** void WLX_TaskStackInit(W_TCB* pstrTcb, VFUNC vfFuncPointer)
  96:../wanlix/wlx_core_c.c **** {
  57              		.loc 1 96 0
  58              		.cfi_startproc
  59              		@ Function supports interworking.
  60              		@ args = 0, pretend = 0, frame = 32
  61              		@ frame_needed = 0, uses_anonymous_args = 0
  62              		@ link register save eliminated.
  63              	.LVL4:
  64 0014 F0072DE9 		stmfd	sp!, {r4, r5, r6, r7, r8, r9, sl}
  65              		.save {r4, r5, r6, r7, r8, r9, sl}
  66              	.LCFI0:
  67              		.cfi_def_cfa_offset 28
  97:../wanlix/wlx_core_c.c ****     U32* puiSp;
  98:../wanlix/wlx_core_c.c **** 
  99:../wanlix/wlx_core_c.c ****     /* 对堆栈初始化 */
 100:../wanlix/wlx_core_c.c ****     puiSp = (U32*)pstrTcb->uiTaskCurSp; /* 获取存放变量的堆栈指针 */
ARM GAS  C:\DOCUME~1\ADMINI~1\LOCALS~1\Temp\ccOl1E3i.s 			page 4


  68              		.loc 1 100 0
  69 0018 007090E5 		ldr	r7, [r0, #0]
  70              		.cfi_offset 10, -4
  71              		.cfi_offset 9, -8
  72              		.cfi_offset 8, -12
  73              		.cfi_offset 7, -16
  74              		.cfi_offset 6, -20
  75              		.cfi_offset 5, -24
  76              		.cfi_offset 4, -28
  77              	.LVL5:
  96:../wanlix/wlx_core_c.c **** {
  78              		.loc 1 96 0
  79              		.pad #36
  80 001c 24D04DE2 		sub	sp, sp, #36
  81              	.LCFI1:
  82              		.cfi_def_cfa_offset 64
 101:../wanlix/wlx_core_c.c **** 
 102:../wanlix/wlx_core_c.c ****     *(--puiSp) = (U32)vfFuncPointer;    /* R14 */
 103:../wanlix/wlx_core_c.c ****     *(--puiSp) = pstrTcb->uiTaskCurSp;  /* R13 */
 104:../wanlix/wlx_core_c.c ****     *(--puiSp) = 0;                     /* R12 */
 105:../wanlix/wlx_core_c.c ****     *(--puiSp) = 0;                     /* R11 */
 106:../wanlix/wlx_core_c.c ****     *(--puiSp) = 0;                     /* R10 */
 107:../wanlix/wlx_core_c.c ****     *(--puiSp) = 0;                     /* R9 */
  83              		.loc 1 107 0
  84 0020 189047E2 		sub	r9, r7, #24
  85 0024 04908DE5 		str	r9, [sp, #4]
 108:../wanlix/wlx_core_c.c ****     *(--puiSp) = 0;                     /* R8 */
  86              		.loc 1 108 0
  87 0028 1C9047E2 		sub	r9, r7, #28
 109:../wanlix/wlx_core_c.c ****     *(--puiSp) = 0;                     /* R7 */
 110:../wanlix/wlx_core_c.c ****     *(--puiSp) = 0;                     /* R6 */
  88              		.loc 1 110 0
  89 002c 24C047E2 		sub	ip, r7, #36
 111:../wanlix/wlx_core_c.c ****     *(--puiSp) = 0;                     /* R5 */
  90              		.loc 1 111 0
  91 0030 0C8049E2 		sub	r8, r9, #12
 112:../wanlix/wlx_core_c.c ****     *(--puiSp) = 0;                     /* R4 */
  92              		.loc 1 112 0
  93 0034 08A04CE2 		sub	sl, ip, #8
 113:../wanlix/wlx_core_c.c ****     *(--puiSp) = 0;                     /* R3 */
  94              		.loc 1 113 0
  95 0038 082048E2 		sub	r2, r8, #8
 109:../wanlix/wlx_core_c.c ****     *(--puiSp) = 0;                     /* R7 */
  96              		.loc 1 109 0
  97 003c 203047E2 		sub	r3, r7, #32
  98 0040 08308DE5 		str	r3, [sp, #8]
 110:../wanlix/wlx_core_c.c ****     *(--puiSp) = 0;                     /* R6 */
  99              		.loc 1 110 0
 100 0044 0CC08DE5 		str	ip, [sp, #12]
 111:../wanlix/wlx_core_c.c ****     *(--puiSp) = 0;                     /* R5 */
 101              		.loc 1 111 0
 102 0048 10808DE5 		str	r8, [sp, #16]
 112:../wanlix/wlx_core_c.c ****     *(--puiSp) = 0;                     /* R4 */
 103              		.loc 1 112 0
 104 004c 14A08DE5 		str	sl, [sp, #20]
 105              		.loc 1 113 0
 106 0050 18208DE5 		str	r2, [sp, #24]
ARM GAS  C:\DOCUME~1\ADMINI~1\LOCALS~1\Temp\ccOl1E3i.s 			page 5


 102:../wanlix/wlx_core_c.c ****     *(--puiSp) = (U32)vfFuncPointer;    /* R14 */
 107              		.loc 1 102 0
 108 0054 041007E5 		str	r1, [r7, #-4]
 108:../wanlix/wlx_core_c.c ****     *(--puiSp) = 0;                     /* R8 */
 109              		.loc 1 108 0
 110 0058 04809DE5 		ldr	r8, [sp, #4]
 103:../wanlix/wlx_core_c.c ****     *(--puiSp) = pstrTcb->uiTaskCurSp;  /* R13 */
 111              		.loc 1 103 0
 112 005c 00C090E5 		ldr	ip, [r0, #0]
 114:../wanlix/wlx_core_c.c ****     *(--puiSp) = 0;                     /* R2 */
 113              		.loc 1 114 0
 114 0060 08A04AE2 		sub	sl, sl, #8
 104:../wanlix/wlx_core_c.c ****     *(--puiSp) = 0;                     /* R12 */
 115              		.loc 1 104 0
 116 0064 0010A0E3 		mov	r1, #0
 117              	.LVL6:
 102:../wanlix/wlx_core_c.c ****     *(--puiSp) = (U32)vfFuncPointer;    /* R14 */
 118              		.loc 1 102 0
 119 0068 046047E2 		sub	r6, r7, #4
 120              	.LVL7:
 115:../wanlix/wlx_core_c.c ****     *(--puiSp) = 0;                     /* R1 */
 116:../wanlix/wlx_core_c.c ****     *(--puiSp) = 0;                     /* R0 */
 117:../wanlix/wlx_core_c.c ****     *(--puiSp) = MODE_USR;              /* CPSR */
 121              		.loc 1 117 0
 122 006c 0C304AE2 		sub	r3, sl, #12
 123 0070 1C308DE5 		str	r3, [sp, #28]
 124              	.LVL8:
 110:../wanlix/wlx_core_c.c ****     *(--puiSp) = 0;                     /* R6 */
 125              		.loc 1 110 0
 126 0074 08209DE5 		ldr	r2, [sp, #8]
 103:../wanlix/wlx_core_c.c ****     *(--puiSp) = pstrTcb->uiTaskCurSp;  /* R13 */
 127              		.loc 1 103 0
 128 0078 021006E9 		stmdb	r6, {r1, ip}	@ phole stm
 105:../wanlix/wlx_core_c.c ****     *(--puiSp) = 0;                     /* R11 */
 129              		.loc 1 105 0
 130 007c 0C1006E5 		str	r1, [r6, #-12]
 106:../wanlix/wlx_core_c.c ****     *(--puiSp) = 0;                     /* R10 */
 131              		.loc 1 106 0
 132 0080 101006E5 		str	r1, [r6, #-16]
 107:../wanlix/wlx_core_c.c ****     *(--puiSp) = 0;                     /* R9 */
 133              		.loc 1 107 0
 134 0084 141006E5 		str	r1, [r6, #-20]
 111:../wanlix/wlx_core_c.c ****     *(--puiSp) = 0;                     /* R5 */
 135              		.loc 1 111 0
 136 0088 0C309DE5 		ldr	r3, [sp, #12]
 137              	.LVL9:
 108:../wanlix/wlx_core_c.c ****     *(--puiSp) = 0;                     /* R8 */
 138              		.loc 1 108 0
 139 008c 041008E5 		str	r1, [r8, #-4]
 112:../wanlix/wlx_core_c.c ****     *(--puiSp) = 0;                     /* R4 */
 140              		.loc 1 112 0
 141 0090 10C09DE5 		ldr	ip, [sp, #16]
 113:../wanlix/wlx_core_c.c ****     *(--puiSp) = 0;                     /* R3 */
 142              		.loc 1 113 0
 143 0094 14809DE5 		ldr	r8, [sp, #20]
 109:../wanlix/wlx_core_c.c ****     *(--puiSp) = 0;                     /* R7 */
 144              		.loc 1 109 0
ARM GAS  C:\DOCUME~1\ADMINI~1\LOCALS~1\Temp\ccOl1E3i.s 			page 6


 145 0098 041009E5 		str	r1, [r9, #-4]
 110:../wanlix/wlx_core_c.c ****     *(--puiSp) = 0;                     /* R6 */
 146              		.loc 1 110 0
 147 009c 041002E5 		str	r1, [r2, #-4]
 111:../wanlix/wlx_core_c.c ****     *(--puiSp) = 0;                     /* R5 */
 148              		.loc 1 111 0
 149 00a0 041003E5 		str	r1, [r3, #-4]
 114:../wanlix/wlx_core_c.c ****     *(--puiSp) = 0;                     /* R2 */
 150              		.loc 1 114 0
 151 00a4 18209DE5 		ldr	r2, [sp, #24]
 112:../wanlix/wlx_core_c.c ****     *(--puiSp) = 0;                     /* R4 */
 152              		.loc 1 112 0
 153 00a8 04100CE5 		str	r1, [ip, #-4]
 113:../wanlix/wlx_core_c.c ****     *(--puiSp) = 0;                     /* R3 */
 154              		.loc 1 113 0
 155 00ac 041008E5 		str	r1, [r8, #-4]
 118:../wanlix/wlx_core_c.c **** 
 119:../wanlix/wlx_core_c.c ****     /* 记录当前任务的堆栈指针, 下次运行这个任务时可根据该值恢复堆栈 */
 120:../wanlix/wlx_core_c.c ****     pstrTcb->uiTaskCurSp = (U32)puiSp;
 156              		.loc 1 120 0
 157 00b0 1C809DE5 		ldr	r8, [sp, #28]
 117:../wanlix/wlx_core_c.c ****     *(--puiSp) = MODE_USR;              /* CPSR */
 158              		.loc 1 117 0
 159 00b4 1030A0E3 		mov	r3, #16
 114:../wanlix/wlx_core_c.c ****     *(--puiSp) = 0;                     /* R2 */
 160              		.loc 1 114 0
 161 00b8 041002E5 		str	r1, [r2, #-4]
 115:../wanlix/wlx_core_c.c ****     *(--puiSp) = 0;                     /* R1 */
 162              		.loc 1 115 0
 163 00bc 04100AE5 		str	r1, [sl, #-4]
 116:../wanlix/wlx_core_c.c ****     *(--puiSp) = 0;                     /* R0 */
 164              		.loc 1 116 0
 165 00c0 08100AE5 		str	r1, [sl, #-8]
 117:../wanlix/wlx_core_c.c ****     *(--puiSp) = MODE_USR;              /* CPSR */
 166              		.loc 1 117 0
 167 00c4 0C300AE5 		str	r3, [sl, #-12]
 168              		.loc 1 120 0
 169 00c8 008080E5 		str	r8, [r0, #0]
 121:../wanlix/wlx_core_c.c **** }
 170              		.loc 1 121 0
 171 00cc 24D08DE2 		add	sp, sp, #36
 172 00d0 F007BDE8 		ldmfd	sp!, {r4, r5, r6, r7, r8, r9, sl}
 173 00d4 1EFF2FE1 		bx	lr
 174              		.cfi_endproc
 175              	.LFE3:
 176              		.fnend
 177              		.size	WLX_TaskStackInit, .-WLX_TaskStackInit
 178              		.align	2
 179              		.global	WLX_TaskCreate
 180              		.type	WLX_TaskCreate, %function
 181              	WLX_TaskCreate:
 182              		.fnstart
 183              	.LFB1:
  40:../wanlix/wlx_core_c.c **** {
 184              		.loc 1 40 0
 185              		.cfi_startproc
 186              		@ Function supports interworking.
ARM GAS  C:\DOCUME~1\ADMINI~1\LOCALS~1\Temp\ccOl1E3i.s 			page 7


 187              		@ args = 0, pretend = 0, frame = 0
 188              		@ frame_needed = 1, uses_anonymous_args = 0
 189              	.LVL10:
 190              		.movsp ip
 191 00d8 0DC0A0E1 		mov	ip, sp
 192              	.LCFI2:
 193              		.cfi_def_cfa_register 12
 194 00dc 18D82DE9 		stmfd	sp!, {r3, r4, fp, ip, lr, pc}
 195              		.pad #4
 196              		.save {r3, r4, fp, ip, lr}
  44:../wanlix/wlx_core_c.c ****     if(NULL == vfFuncPointer)
 197              		.loc 1 44 0
 198 00e0 003050E2 		subs	r3, r0, #0
 199              		.cfi_offset 14, -8
 200              		.cfi_offset 13, -12
 201              		.cfi_offset 11, -16
 202              		.cfi_offset 4, -20
 203              		.cfi_offset 3, -24
  40:../wanlix/wlx_core_c.c **** {
 204              		.loc 1 40 0
 205              		.setfp fp, ip, #-4
 206 00e4 04B04CE2 		sub	fp, ip, #4
 207              	.LCFI3:
 208              		.cfi_def_cfa 11, 4
  47:../wanlix/wlx_core_c.c ****         return (W_TCB*)NULL;
 209              		.loc 1 47 0
 210 00e8 0340A001 		moveq	r4, r3
  44:../wanlix/wlx_core_c.c ****     if(NULL == vfFuncPointer)
 211              		.loc 1 44 0
 212 00ec 0300001A 		bne	.L8
 213              	.LVL11:
 214              	.L4:
  64:../wanlix/wlx_core_c.c **** }
 215              		.loc 1 64 0
 216 00f0 0400A0E1 		mov	r0, r4
 217 00f4 14D04BE2 		sub	sp, fp, #20
 218 00f8 18689DE8 		ldmfd	sp, {r3, r4, fp, sp, lr}
 219 00fc 1EFF2FE1 		bx	lr
 220              	.LVL12:
 221              	.L8:
  51:../wanlix/wlx_core_c.c ****     if((NULL == pucTaskStack) || (0 == uiStackSize))
 222              		.loc 1 51 0
 223 0100 000051E3 		cmp	r1, #0
 224 0104 00005213 		cmpne	r2, #0
  54:../wanlix/wlx_core_c.c ****         return (W_TCB*)NULL;
 225              		.loc 1 54 0
 226 0108 0040A003 		moveq	r4, #0
  51:../wanlix/wlx_core_c.c ****     if((NULL == pucTaskStack) || (0 == uiStackSize))
 227              		.loc 1 51 0
 228 010c F7FFFF0A 		beq	.L4
 229              	.LVL13:
 230              	.LBB4:
 231              	.LBB5:
  78:../wanlix/wlx_core_c.c ****     pucStackBy4 = (U8*)(((U32)pucTaskStack + uiStackSize) & 0xFFFFFFFC);
 232              		.loc 1 78 0
 233 0110 020081E0 		add	r0, r1, r2
 234              	.LVL14:
ARM GAS  C:\DOCUME~1\ADMINI~1\LOCALS~1\Temp\ccOl1E3i.s 			page 8


 235 0114 0340C0E3 		bic	r4, r0, #3
  81:../wanlix/wlx_core_c.c ****     pstrTcb = (W_TCB*)(((U32)pucStackBy4 - sizeof(W_TCB)) & 0xFFFFFFFC);
 236              		.loc 1 81 0
 237 0118 044044E2 		sub	r4, r4, #4
 238              	.LVL15:
  84:../wanlix/wlx_core_c.c ****     pstrTcb->uiTaskCurSp = (U32)pstrTcb;
 239              		.loc 1 84 0
 240 011c 004084E5 		str	r4, [r4, #0]
 241              	.LBE5:
 242              	.LBE4:
  61:../wanlix/wlx_core_c.c ****     WLX_TaskStackInit(pstrTcb, vfFuncPointer);
 243              		.loc 1 61 0
 244 0120 0400A0E1 		mov	r0, r4
 245 0124 0310A0E1 		mov	r1, r3
 246              	.LVL16:
 247 0128 FEFFFFEB 		bl	WLX_TaskStackInit
 248              	.LVL17:
  63:../wanlix/wlx_core_c.c ****     return pstrTcb;
 249              		.loc 1 63 0
 250 012c EFFFFFEA 		b	.L4
 251              		.cfi_endproc
 252              	.LFE1:
 253              		.fnend
 254              		.size	WLX_TaskCreate, .-WLX_TaskCreate
 255              		.align	2
 256              		.global	WLX_TaskSwitch
 257              		.type	WLX_TaskSwitch, %function
 258              	WLX_TaskSwitch:
 259              		.fnstart
 260              	.LFB4:
 122:../wanlix/wlx_core_c.c **** 
 123:../wanlix/wlx_core_c.c **** /***********************************************************************************
 124:../wanlix/wlx_core_c.c **** 函数功能: 调用该函数将发生任务切换.
 125:../wanlix/wlx_core_c.c **** 入口参数: pstrTcb: 即将运行的任务的TCB指针.
 126:../wanlix/wlx_core_c.c **** 返 回 值: none.
 127:../wanlix/wlx_core_c.c **** ***********************************************************************************/
 128:../wanlix/wlx_core_c.c **** void WLX_TaskSwitch(W_TCB* pstrTcb)
 129:../wanlix/wlx_core_c.c **** {
 261              		.loc 1 129 0
 262              		.cfi_startproc
 263              		@ Function supports interworking.
 264              		@ args = 0, pretend = 0, frame = 0
 265              		@ frame_needed = 1, uses_anonymous_args = 0
 266              	.LVL18:
 130:../wanlix/wlx_core_c.c ****     /* 保存当前任务堆栈指针的地址, 在汇编语言可以通过这个变量写入任务切换前最后时刻
 131:../wanlix/wlx_core_c.c ****        的堆栈地址 */
 132:../wanlix/wlx_core_c.c ****     gpuiCurTaskSpAddr = &gpstrCurTcb->uiTaskCurSp;
 267              		.loc 1 132 0
 268 0130 34309FE5 		ldr	r3, .L10
 129:../wanlix/wlx_core_c.c **** {
 269              		.loc 1 129 0
 270              		.movsp ip
 271 0134 0DC0A0E1 		mov	ip, sp
 272              	.LCFI4:
 273              		.cfi_def_cfa_register 12
 274 0138 00D82DE9 		stmfd	sp!, {fp, ip, lr, pc}
 275              		.pad #4
ARM GAS  C:\DOCUME~1\ADMINI~1\LOCALS~1\Temp\ccOl1E3i.s 			page 9


 276              		.save {fp, ip, lr}
 133:../wanlix/wlx_core_c.c **** 
 134:../wanlix/wlx_core_c.c ****     /* 保存即将运行任务的堆栈指针 */
 135:../wanlix/wlx_core_c.c ****     guiNextTaskSp = pstrTcb->uiTaskCurSp;
 277              		.loc 1 135 0
 278 013c 001090E5 		ldr	r1, [r0, #0]
 129:../wanlix/wlx_core_c.c **** {
 279              		.loc 1 129 0
 280              		.setfp fp, ip, #-4
 281 0140 04B04CE2 		sub	fp, ip, #4
 282              		.cfi_offset 14, -8
 283              		.cfi_offset 13, -12
 284              		.cfi_offset 11, -16
 285              	.LCFI5:
 286              		.cfi_def_cfa 11, 4
 132:../wanlix/wlx_core_c.c ****     gpuiCurTaskSpAddr = &gpstrCurTcb->uiTaskCurSp;
 287              		.loc 1 132 0
 288 0144 24E09FE5 		ldr	lr, .L10+4
 289 0148 00C093E5 		ldr	ip, [r3, #0]
 290              		.loc 1 135 0
 291 014c 20209FE5 		ldr	r2, .L10+8
 132:../wanlix/wlx_core_c.c ****     gpuiCurTaskSpAddr = &gpstrCurTcb->uiTaskCurSp;
 292              		.loc 1 132 0
 293 0150 00C08EE5 		str	ip, [lr, #0]
 294              		.loc 1 135 0
 295 0154 001082E5 		str	r1, [r2, #0]
 136:../wanlix/wlx_core_c.c **** 
 137:../wanlix/wlx_core_c.c ****     /* 保存即将运行任务的TCB */
 138:../wanlix/wlx_core_c.c ****     gpstrCurTcb = pstrTcb;
 296              		.loc 1 138 0
 297 0158 000083E5 		str	r0, [r3, #0]
 139:../wanlix/wlx_core_c.c **** 
 140:../wanlix/wlx_core_c.c ****     WLX_ContextSwitch();
 298              		.loc 1 140 0
 299 015c FEFFFFEB 		bl	WLX_ContextSwitch
 300              	.LVL19:
 141:../wanlix/wlx_core_c.c **** }
 301              		.loc 1 141 0
 302 0160 0CD04BE2 		sub	sp, fp, #12
 303 0164 00689DE8 		ldmfd	sp, {fp, sp, lr}
 304 0168 1EFF2FE1 		bx	lr
 305              	.L11:
 306              		.align	2
 307              	.L10:
 308 016c 00000000 		.word	gpstrCurTcb
 309 0170 00000000 		.word	gpuiCurTaskSpAddr
 310 0174 00000000 		.word	guiNextTaskSp
 311              		.cfi_endproc
 312              	.LFE4:
 313              		.fnend
 314              		.size	WLX_TaskSwitch, .-WLX_TaskSwitch
 315              		.align	2
 316              		.global	WLX_TaskStart
 317              		.type	WLX_TaskStart, %function
 318              	WLX_TaskStart:
 319              		.fnstart
 320              	.LFB5:
ARM GAS  C:\DOCUME~1\ADMINI~1\LOCALS~1\Temp\ccOl1E3i.s 			page 10


 142:../wanlix/wlx_core_c.c **** 
 143:../wanlix/wlx_core_c.c **** /***********************************************************************************
 144:../wanlix/wlx_core_c.c **** 函数功能: 开始进入任务调度.
 145:../wanlix/wlx_core_c.c **** 入口参数: pstrTcb: 即将运行的任务的TCB指针.
 146:../wanlix/wlx_core_c.c **** 返 回 值: none.
 147:../wanlix/wlx_core_c.c **** ***********************************************************************************/
 148:../wanlix/wlx_core_c.c **** void WLX_TaskStart(W_TCB* pstrTcb)
 149:../wanlix/wlx_core_c.c **** {
 321              		.loc 1 149 0
 322              		.cfi_startproc
 323              		@ Function supports interworking.
 324              		@ args = 0, pretend = 0, frame = 0
 325              		@ frame_needed = 1, uses_anonymous_args = 0
 326              	.LVL20:
 150:../wanlix/wlx_core_c.c ****     /* 保存即将运行任务的堆栈指针 */
 151:../wanlix/wlx_core_c.c ****     guiNextTaskSp = pstrTcb->uiTaskCurSp;
 327              		.loc 1 151 0
 328 0178 002090E5 		ldr	r2, [r0, #0]
 329 017c 24109FE5 		ldr	r1, .L13
 152:../wanlix/wlx_core_c.c **** 
 153:../wanlix/wlx_core_c.c ****     /* 保存即将运行任务的TCB */
 154:../wanlix/wlx_core_c.c ****     gpstrCurTcb = pstrTcb;
 330              		.loc 1 154 0
 331 0180 24309FE5 		ldr	r3, .L13+4
 149:../wanlix/wlx_core_c.c **** {
 332              		.loc 1 149 0
 333              		.movsp ip
 334 0184 0DC0A0E1 		mov	ip, sp
 335              	.LCFI6:
 336              		.cfi_def_cfa_register 12
 337 0188 00D82DE9 		stmfd	sp!, {fp, ip, lr, pc}
 338              		.pad #4
 339              		.save {fp, ip, lr}
 340              		.setfp fp, ip, #-4
 341 018c 04B04CE2 		sub	fp, ip, #4
 342              		.cfi_offset 14, -8
 343              		.cfi_offset 13, -12
 344              		.cfi_offset 11, -16
 345              	.LCFI7:
 346              		.cfi_def_cfa 11, 4
 151:../wanlix/wlx_core_c.c ****     guiNextTaskSp = pstrTcb->uiTaskCurSp;
 347              		.loc 1 151 0
 348 0190 002081E5 		str	r2, [r1, #0]
 349              		.loc 1 154 0
 350 0194 000083E5 		str	r0, [r3, #0]
 155:../wanlix/wlx_core_c.c **** 
 156:../wanlix/wlx_core_c.c ****     WLX_SwitchToTask();
 351              		.loc 1 156 0
 352 0198 FEFFFFEB 		bl	WLX_SwitchToTask
 353              	.LVL21:
 157:../wanlix/wlx_core_c.c **** }
 354              		.loc 1 157 0
 355 019c 0CD04BE2 		sub	sp, fp, #12
 356 01a0 00689DE8 		ldmfd	sp, {fp, sp, lr}
 357 01a4 1EFF2FE1 		bx	lr
 358              	.L14:
 359              		.align	2
ARM GAS  C:\DOCUME~1\ADMINI~1\LOCALS~1\Temp\ccOl1E3i.s 			page 11


 360              	.L13:
 361 01a8 00000000 		.word	guiNextTaskSp
 362 01ac 00000000 		.word	gpstrCurTcb
 363              		.cfi_endproc
 364              	.LFE5:
 365              		.fnend
 366              		.size	WLX_TaskStart, .-WLX_TaskStart
 367              		.align	2
 368              		.global	main
 369              		.type	main, %function
 370              	main:
 371              		.fnstart
 372              	.LFB0:
  20:../wanlix/wlx_core_c.c **** {
 373              		.loc 1 20 0
 374              		.cfi_startproc
 375              		@ Function supports interworking.
 376              		@ args = 0, pretend = 0, frame = 0
 377              		@ frame_needed = 1, uses_anonymous_args = 0
 378              		.movsp ip
 379 01b0 0DC0A0E1 		mov	ip, sp
 380              	.LCFI8:
 381              		.cfi_def_cfa_register 12
 382 01b4 00D82DE9 		stmfd	sp!, {fp, ip, lr, pc}
 383              		.pad #4
 384              		.save {fp, ip, lr}
  22:../wanlix/wlx_core_c.c ****     gpstrRootTaskTcb = WLX_TaskCreate((VFUNC)WLX_RootTask, gaucRootTaskStack,
 385              		.loc 1 22 0
 386 01b8 28109FE5 		ldr	r1, .L16
  20:../wanlix/wlx_core_c.c **** {
 387              		.loc 1 20 0
 388              		.setfp fp, ip, #-4
 389 01bc 04B04CE2 		sub	fp, ip, #4
 390              		.cfi_offset 14, -8
 391              		.cfi_offset 13, -12
 392              		.cfi_offset 11, -16
 393              	.LCFI9:
 394              		.cfi_def_cfa 11, 4
  22:../wanlix/wlx_core_c.c ****     gpstrRootTaskTcb = WLX_TaskCreate((VFUNC)WLX_RootTask, gaucRootTaskStack,
 395              		.loc 1 22 0
 396 01c0 192EA0E3 		mov	r2, #400
 397 01c4 20009FE5 		ldr	r0, .L16+4
 398 01c8 FEFFFFEB 		bl	WLX_TaskCreate
 399 01cc 1C309FE5 		ldr	r3, .L16+8
 400 01d0 000083E5 		str	r0, [r3, #0]
  26:../wanlix/wlx_core_c.c ****     WLX_TaskStart(gpstrRootTaskTcb);
 401              		.loc 1 26 0
 402 01d4 FEFFFFEB 		bl	WLX_TaskStart
  29:../wanlix/wlx_core_c.c **** }
 403              		.loc 1 29 0
 404 01d8 0000A0E3 		mov	r0, #0
 405 01dc 0CD04BE2 		sub	sp, fp, #12
 406 01e0 00689DE8 		ldmfd	sp, {fp, sp, lr}
 407 01e4 1EFF2FE1 		bx	lr
 408              	.L17:
 409              		.align	2
 410              	.L16:
ARM GAS  C:\DOCUME~1\ADMINI~1\LOCALS~1\Temp\ccOl1E3i.s 			page 12


 411 01e8 00000000 		.word	gaucRootTaskStack
 412 01ec 00000000 		.word	WLX_RootTask
 413 01f0 00000000 		.word	gpstrRootTaskTcb
 414              		.cfi_endproc
 415              	.LFE0:
 416              		.fnend
 417              		.size	main, .-main
 418              		.comm	gpstrCurTcb,4,4
 419              		.comm	guiNextTaskSp,4,4
 420              		.comm	gpuiCurTaskSpAddr,4,4
 421              		.comm	gpstrRootTaskTcb,4,4
 422              		.comm	gaucRootTaskStack,400,4
 423              	.Letext0:
 1575              		.section	.note.GNU-stack,"",%progbits
ARM GAS  C:\DOCUME~1\ADMINI~1\LOCALS~1\Temp\ccOl1E3i.s 			page 35

