ARM GAS  C:\DOCUME~1\ADMINI~1\LOCALS~1\Temp\ccOl1E3i.s 			page 1


   1              		.cpu arm7tdmi
   2              		.fpu softvfp
   3              		.eabi_attribute 20, 1
   4              		.eabi_attribute 21, 1
   5              		.eabi_attribute 23, 3
   6              		.eabi_attribute 24, 1
   7              		.eabi_attribute 25, 1
   8              		.eabi_attribute 26, 2
   9              		.eabi_attribute 30, 2
  10              		.eabi_attribute 18, 4
  11              		.file	"wlx_core_c.c"
  12              		.section	.debug_abbrev,"",%progbits
  13              	.Ldebug_abbrev0:
  14              		.section	.debug_info,"",%progbits
  15              	.Ldebug_info0:
  16              		.section	.debug_line,"",%progbits
  17              	.Ldebug_line0:
  18 0000 CA000000 		.text
  18      02003900 
  18      00000201 
  18      FB0E0D00 
  18      01010101 
  19              	.Ltext0:
  20              		.cfi_sections	.debug_frame
  21              		.align	2
  22              		.global	WLX_TaskTcbInit
  23              		.type	WLX_TaskTcbInit, %function
  24              	WLX_TaskTcbInit:
  25              		.fnstart
  26              	.LFB2:
  27              		.file 1 "../wanlix/wlx_core_c.c"
   1:../wanlix/wlx_core_c.c **** 
   2:../wanlix/wlx_core_c.c **** #include "wlx_core_c.h"
   3:../wanlix/wlx_core_c.c **** 
   4:../wanlix/wlx_core_c.c **** 
   5:../wanlix/wlx_core_c.c **** W_TCB* gpstrCurTcb;             /* 当前运行的任务的TCB */
   6:../wanlix/wlx_core_c.c **** U32 guiNextTaskSp;              /* 将要运行的任务堆栈指针 */
   7:../wanlix/wlx_core_c.c **** U32* gpuiCurTaskSpAddr;         /* 存放当前运行任务堆栈指针的地址 */
   8:../wanlix/wlx_core_c.c **** W_TCB* gpstrRootTaskTcb;        /* 根任务的TCB指针 */
   9:../wanlix/wlx_core_c.c **** 
  10:../wanlix/wlx_core_c.c **** U8 gaucRootTaskStack[ROOTTASKSTACK];    /* 根任务的堆栈 */
  11:../wanlix/wlx_core_c.c **** 
  12:../wanlix/wlx_core_c.c **** 
  13:../wanlix/wlx_core_c.c **** /***********************************************************************************
  14:../wanlix/wlx_core_c.c **** 函数功能: 主函数, C程序从此函数开始运行. 该函数创建系统任务并从非任务状态切换到Root
  15:../wanlix/wlx_core_c.c ****           任务运行.
  16:../wanlix/wlx_core_c.c **** 入口参数: none.
  17:../wanlix/wlx_core_c.c **** 返 回 值: none.
  18:../wanlix/wlx_core_c.c **** ***********************************************************************************/
  19:../wanlix/wlx_core_c.c **** S32 main(void)
  20:../wanlix/wlx_core_c.c **** {
  21:../wanlix/wlx_core_c.c ****     /* 创建根任务 */
  22:../wanlix/wlx_core_c.c ****     gpstrRootTaskTcb = WLX_TaskCreate((VFUNC)WLX_RootTask, gaucRootTaskStack,
  23:../wanlix/wlx_core_c.c ****                                       ROOTTASKSTACK);
  24:../wanlix/wlx_core_c.c **** 
  25:../wanlix/wlx_core_c.c ****     /* 开始任务调度, 从根任务开始执行 */
  26:../wanlix/wlx_core_c.c ****     WLX_TaskStart(gpstrRootTaskTcb);
ARM GAS  C:\DOCUME~1\ADMINI~1\LOCALS~1\Temp\ccOl1E3i.s 			page 2


  27:../wanlix/wlx_core_c.c **** 
  28:../wanlix/wlx_core_c.c ****     return 0;
  29:../wanlix/wlx_core_c.c **** }
  30:../wanlix/wlx_core_c.c **** 
  31:../wanlix/wlx_core_c.c **** /***********************************************************************************
  32:../wanlix/wlx_core_c.c **** 函数功能: 创建一个任务.
  33:../wanlix/wlx_core_c.c **** 入口参数: vfFuncPointer: 创建任务所使用函数的指针.
  34:../wanlix/wlx_core_c.c ****           pucTaskStack: 任务所使用堆栈的最低起始地址.
  35:../wanlix/wlx_core_c.c ****           uiStackSize: 堆栈大小, 单位: 字节.
  36:../wanlix/wlx_core_c.c **** 返 回 值: NULL: 创建任务失败.
  37:../wanlix/wlx_core_c.c ****           其它: 任务的TCB指针.
  38:../wanlix/wlx_core_c.c **** ***********************************************************************************/
  39:../wanlix/wlx_core_c.c **** W_TCB* WLX_TaskCreate(VFUNC vfFuncPointer, U8* pucTaskStack, U32 uiStackSize)
  40:../wanlix/wlx_core_c.c **** {
  41:../wanlix/wlx_core_c.c ****     W_TCB* pstrTcb;
  42:../wanlix/wlx_core_c.c **** 
  43:../wanlix/wlx_core_c.c ****     /* 对创建任务所使用函数的指针合法性进行检查 */
  44:../wanlix/wlx_core_c.c ****     if(NULL == vfFuncPointer)
  45:../wanlix/wlx_core_c.c ****     {
  46:../wanlix/wlx_core_c.c ****         /* 指针为空, 返回失败 */
  47:../wanlix/wlx_core_c.c ****         return (W_TCB*)NULL;
  48:../wanlix/wlx_core_c.c ****     }
  49:../wanlix/wlx_core_c.c **** 
  50:../wanlix/wlx_core_c.c ****     /* 对任务堆栈合法性进行检查 */
  51:../wanlix/wlx_core_c.c ****     if((NULL == pucTaskStack) || (0 == uiStackSize))
  52:../wanlix/wlx_core_c.c ****     {
  53:../wanlix/wlx_core_c.c ****         /* 堆栈不合法, 返回失败 */
  54:../wanlix/wlx_core_c.c ****         return (W_TCB*)NULL;
  55:../wanlix/wlx_core_c.c ****     }
  56:../wanlix/wlx_core_c.c **** 
  57:../wanlix/wlx_core_c.c ****     /* 初始化TCB */
  58:../wanlix/wlx_core_c.c ****     pstrTcb = WLX_TaskTcbInit(pucTaskStack, uiStackSize);
  59:../wanlix/wlx_core_c.c **** 
  60:../wanlix/wlx_core_c.c ****     /* 初始化任务堆栈 */
  61:../wanlix/wlx_core_c.c ****     WLX_TaskStackInit(pstrTcb, vfFuncPointer);
  62:../wanlix/wlx_core_c.c **** 
  63:../wanlix/wlx_core_c.c ****     return pstrTcb;
  64:../wanlix/wlx_core_c.c **** }
  65:../wanlix/wlx_core_c.c **** 
  66:../wanlix/wlx_core_c.c **** /***********************************************************************************
  67:../wanlix/wlx_core_c.c **** 函数功能: 初始化任务TCB, 用来创建任务运行前TCB的状态.
  68:../wanlix/wlx_core_c.c **** 入口参数: pucTaskStack: 任务所使用的堆栈地址.
  69:../wanlix/wlx_core_c.c ****           uiStackSize: 堆栈大小, 单位: 字节.
  70:../wanlix/wlx_core_c.c **** 返 回 值: 任务TCB的指针.
  71:../wanlix/wlx_core_c.c **** ***********************************************************************************/
  72:../wanlix/wlx_core_c.c **** W_TCB* WLX_TaskTcbInit(U8* pucTaskStack, U32 uiStackSize)
  73:../wanlix/wlx_core_c.c **** {
  28              		.loc 1 73 0
  29              		.cfi_startproc
  30              		@ Function supports interworking.
  31              		@ args = 0, pretend = 0, frame = 0
  32              		@ frame_needed = 0, uses_anonymous_args = 0
  33              		@ link register save eliminated.
  34              	.LVL0:
  74:../wanlix/wlx_core_c.c ****     W_TCB* pstrTcb;
  75:../wanlix/wlx_core_c.c ****     U8* pucStackBy4;
  76:../wanlix/wlx_core_c.c **** 
ARM GAS  C:\DOCUME~1\ADMINI~1\LOCALS~1\Temp\ccOl1E3i.s 			page 3


  77:../wanlix/wlx_core_c.c ****     /* 堆栈满地址, 需要4字节对齐 */
  78:../wanlix/wlx_core_c.c ****     pucStackBy4 = (U8*)(((U32)pucTaskStack + uiStackSize) & 0xFFFFFFFC);
  35              		.loc 1 78 0
  36 0000 011080E0 		add	r1, r0, r1
  37              	.LVL1:
  38 0004 0300C1E3 		bic	r0, r1, #3
  39              	.LVL2:
  79:../wanlix/wlx_core_c.c **** 
  80:../wanlix/wlx_core_c.c ****     /* TCB结构存放的地址, 需要4字节对齐 */
  81:../wanlix/wlx_core_c.c ****     pstrTcb = (W_TCB*)(((U32)pucStackBy4 - sizeof(W_TCB)) & 0xFFFFFFFC);
  40              		.loc 1 81 0
  41 0008 040040E2 		sub	r0, r0, #4
  42              	.LVL3:
  82:../wanlix/wlx_core_c.c **** 
  83:../wanlix/wlx_core_c.c ****     /* 初始化TCB结构 */
  84:../wanlix/wlx_core_c.c ****     pstrTcb->uiTaskCurSp = (U32)pstrTcb;
  43              		.loc 1 84 0
  44 000c 000080E5 		str	r0, [r0, #0]
  85:../wanlix/wlx_core_c.c **** 
  86:../wanlix/wlx_core_c.c ****     return pstrTcb;
  87:../wanlix/wlx_core_c.c **** }
  45              		.loc 1 87 0
  46 0010 1EFF2FE1 		bx	lr
  47              		.cfi_endproc
  48              	.LFE2:
  49              		.fnend
  50              		.size	WLX_TaskTcbInit, .-WLX_TaskTcbInit
  51              		.align	2
  52              		.global	WLX_TaskStackInit
  53              		.type	WLX_TaskStackInit, %function
  54              	WLX_TaskStackInit:
  55              		.fnstart
  56              	.LFB3:
  88:../wanlix/wlx_core_c.c **** 
  89:../wanlix/wlx_core_c.c **** /***********************************************************************************
  90:../wanlix/wlx_core_c.c **** 函数功能: 初始化任务堆栈函数, 用来创建任务运行前的堆栈状态.
  91:../wanlix/wlx_core_c.c **** 入口参数: pstrTcb: 任务的TCB指针.
  92:../wanlix/wlx_core_c.c ****           vfFuncPointer: 任务运行的函数.
  93:../wanlix/wlx_core_c.c **** 返 回 值: none.
  94:../wanlix/wlx_core_c.c **** ***********************************************************************************/
  95:../wanlix/wlx_core_c.c **** void WLX_TaskStackInit(W_TCB* pstrTcb, VFUNC vfFuncPointer)
  96:../wanlix/wlx_core_c.c **** {
  57              		.loc 1 96 0
  58              		.cfi_startproc
  59              		@ Function supports interworking.
  60              		@ args = 0, pretend = 0, frame = 32
  61              		@ frame_needed = 0, uses_anonymous_args = 0
  62              		@ link register save eliminated.
  63              	.LVL4:
  64 0014 F0072DE9 		stmfd	sp!, {r4, r5, r6, r7, r8, r9, sl}
  65              		.save {r4, r5, r6, r7, r8, r9, sl}
  66              	.LCFI0:
  67              		.cfi_def_cfa_offset 28
  97:../wanlix/wlx_core_c.c ****     U32* puiSp;
  98:../wanlix/wlx_core_c.c **** 
  99:../wanlix/wlx_core_c.c ****     /* 对堆栈初始化 */
 100:../wanlix/wlx_core_c.c ****     puiSp = (U32*)pstrTcb->uiTaskCurSp; /* 获取存放变量的堆栈指针 */
ARM GAS  C:\DOCUME~1\ADMINI~1\LOCALS~1\Temp\ccOl1E3i.s 			page 4


  68              		.loc 1 100 0
  69 0018 007090E5 		ldr	r7, [r0, #0]
  70              		.cfi_offset 10, -4
  71              		.cfi_offset 9, -8
  72              		.cfi_offset 8, -12
  73              		.cfi_offset 7, -16
  74              		.cfi_offset 6, -20
  75              		.cfi_offset 5, -24
  76              		.cfi_offset 4, -28
  77              	.LVL5:
  96:../wanlix/wlx_core_c.c **** {
  78              		.loc 1 96 0
  79              		.pad #36
  80 001c 24D04DE2 		sub	sp, sp, #36
  81              	.LCFI1:
  82              		.cfi_def_cfa_offset 64
 101:../wanlix/wlx_core_c.c **** 
 102:../wanlix/wlx_core_c.c ****     *(--puiSp) = (U32)vfFuncPointer;    /* R14 */
 103:../wanlix/wlx_core_c.c ****     *(--puiSp) = pstrTcb->uiTaskCurSp;  /* R13 */
 104:../wanlix/wlx_core_c.c ****     *(--puiSp) = 0;                     /* R12 */
 105:../wanlix/wlx_core_c.c ****     *(--puiSp) = 0;                     /* R11 */
 106:../wanlix/wlx_core_c.c ****     *(--puiSp) = 0;                     /* R10 */
 107:../wanlix/wlx_core_c.c ****     *(--puiSp) = 0;                     /* R9 */
  83              		.loc 1 107 0
  84 0020 189047E2 		sub	r9, r7, #24
  85 0024 04908DE5 		str	r9, [sp, #4]
 108:../wanlix/wlx_core_c.c ****     *(--puiSp) = 0;                     /* R8 */
  86              		.loc 1 108 0
  87 0028 1C9047E2 		sub	r9, r7, #28
 109:../wanlix/wlx_core_c.c ****     *(--puiSp) = 0;                     /* R7 */
 110:../wanlix/wlx_core_c.c ****     *(--puiSp) = 0;                     /* R6 */
  88              		.loc 1 110 0
  89 002c 24C047E2 		sub	ip, r7, #36
 111:../wanlix/wlx_core_c.c ****     *(--puiSp) = 0;                     /* R5 */
  90              		.loc 1 111 0
  91 0030 0C8049E2 		sub	r8, r9, #12
 112:../wanlix/wlx_core_c.c ****     *(--puiSp) = 0;                     /* R4 */
  92              		.loc 1 112 0
  93 0034 08A04CE2 		sub	sl, ip, #8
 113:../wanlix/wlx_core_c.c ****     *(--puiSp) = 0;                     /* R3 */
  94              		.loc 1 113 0
  95 0038 082048E2 		sub	r2, r8, #8
 109:../wanlix/wlx_core_c.c ****     *(--puiSp) = 0;                     /* R7 */
  96              		.loc 1 109 0
  97 003c 203047E2 		sub	r3, r7, #32
  98 0040 08308DE5 		str	r3, [sp, #8]
 110:../wanlix/wlx_core_c.c ****     *(--puiSp) = 0;                     /* R6 */
  99              		.loc 1 110 0
 100 0044 0CC08DE5 		str	ip, [sp, #12]
 111:../wanlix/wlx_core_c.c ****     *(--puiSp) = 0;                     /* R5 */
 101              		.loc 1 111 0
 102 0048 10808DE5 		str	r8, [sp, #16]
 112:../wanlix/wlx_core_c.c ****     *(--puiSp) = 0;                     /* R4 */
 103              		.loc 1 112 0
 104 004c 14A08DE5 		str	sl, [sp, #20]
 105              		.loc 1 113 0
 106 0050 18208DE5 		str	r2, [sp, #24]
ARM GAS  C:\DOCUME~1\ADMINI~1\LOCALS~1\Temp\ccOl1E3i.s 			page 5


 102:../wanlix/wlx_core_c.c ****     *(--puiSp) = (U32)vfFuncPointer;    /* R14 */
 107              		.loc 1 102 0
 108 0054 041007E5 		str	r1, [r7, #-4]
 108:../wanlix/wlx_core_c.c ****     *(--puiSp) = 0;                     /* R8 */
 109              		.loc 1 108 0
 110 0058 04809DE5 		ldr	r8, [sp, #4]
 103:../wanlix/wlx_core_c.c ****     *(--puiSp) = pstrTcb->uiTaskCurSp;  /* R13 */
 111              		.loc 1 103 0
 112 005c 00C090E5 		ldr	ip, [r0, #0]
 114:../wanlix/wlx_core_c.c ****     *(--puiSp) = 0;                     /* R2 */
 113              		.loc 1 114 0
 114 0060 08A04AE2 		sub	sl, sl, #8
 104:../wanlix/wlx_core_c.c ****     *(--puiSp) = 0;                     /* R12 */
 115              		.loc 1 104 0
 116 0064 0010A0E3 		mov	r1, #0
 117              	.LVL6:
 102:../wanlix/wlx_core_c.c ****     *(--puiSp) = (U32)vfFuncPointer;    /* R14 */
 118              		.loc 1 102 0
 119 0068 046047E2 		sub	r6, r7, #4
 120              	.LVL7:
 115:../wanlix/wlx_core_c.c ****     *(--puiSp) = 0;                     /* R1 */
 116:../wanlix/wlx_core_c.c ****     *(--puiSp) = 0;                     /* R0 */
 117:../wanlix/wlx_core_c.c ****     *(--puiSp) = MODE_USR;              /* CPSR */
 121              		.loc 1 117 0
 122 006c 0C304AE2 		sub	r3, sl, #12
 123 0070 1C308DE5 		str	r3, [sp, #28]
 124              	.LVL8:
 110:../wanlix/wlx_core_c.c ****     *(--puiSp) = 0;                     /* R6 */
 125              		.loc 1 110 0
 126 0074 08209DE5 		ldr	r2, [sp, #8]
 103:../wanlix/wlx_core_c.c ****     *(--puiSp) = pstrTcb->uiTaskCurSp;  /* R13 */
 127              		.loc 1 103 0
 128 0078 021006E9 		stmdb	r6, {r1, ip}	@ phole stm
 105:../wanlix/wlx_core_c.c ****     *(--puiSp) = 0;                     /* R11 */
 129              		.loc 1 105 0
 130 007c 0C1006E5 		str	r1, [r6, #-12]
 106:../wanlix/wlx_core_c.c ****     *(--puiSp) = 0;                     /* R10 */
 131              		.loc 1 106 0
 132 0080 101006E5 		str	r1, [r6, #-16]
 107:../wanlix/wlx_core_c.c ****     *(--puiSp) = 0;                     /* R9 */
 133              		.loc 1 107 0
 134 0084 141006E5 		str	r1, [r6, #-20]
 111:../wanlix/wlx_core_c.c ****     *(--puiSp) = 0;                     /* R5 */
 135              		.loc 1 111 0
 136 0088 0C309DE5 		ldr	r3, [sp, #12]
 137              	.LVL9:
 108:../wanlix/wlx_core_c.c ****     *(--puiSp) = 0;                     /* R8 */
 138              		.loc 1 108 0
 139 008c 041008E5 		str	r1, [r8, #-4]
 112:../wanlix/wlx_core_c.c ****     *(--puiSp) = 0;                     /* R4 */
 140              		.loc 1 112 0
 141 0090 10C09DE5 		ldr	ip, [sp, #16]
 113:../wanlix/wlx_core_c.c ****     *(--puiSp) = 0;                     /* R3 */
 142              		.loc 1 113 0
 143 0094 14809DE5 		ldr	r8, [sp, #20]
 109:../wanlix/wlx_core_c.c ****     *(--puiSp) = 0;                     /* R7 */
 144              		.loc 1 109 0
ARM GAS  C:\DOCUME~1\ADMINI~1\LOCALS~1\Temp\ccOl1E3i.s 			page 6


 145 0098 041009E5 		str	r1, [r9, #-4]
 110:../wanlix/wlx_core_c.c ****     *(--puiSp) = 0;                     /* R6 */
 146              		.loc 1 110 0
 147 009c 041002E5 		str	r1, [r2, #-4]
 111:../wanlix/wlx_core_c.c ****     *(--puiSp) = 0;                     /* R5 */
 148              		.loc 1 111 0
 149 00a0 041003E5 		str	r1, [r3, #-4]
 114:../wanlix/wlx_core_c.c ****     *(--puiSp) = 0;                     /* R2 */
 150              		.loc 1 114 0
 151 00a4 18209DE5 		ldr	r2, [sp, #24]
 112:../wanlix/wlx_core_c.c ****     *(--puiSp) = 0;                     /* R4 */
 152              		.loc 1 112 0
 153 00a8 04100CE5 		str	r1, [ip, #-4]
 113:../wanlix/wlx_core_c.c ****     *(--puiSp) = 0;                     /* R3 */
 154              		.loc 1 113 0
 155 00ac 041008E5 		str	r1, [r8, #-4]
 118:../wanlix/wlx_core_c.c **** 
 119:../wanlix/wlx_core_c.c ****     /* 记录当前任务的堆栈指针, 下次运行这个任务时可根据该值恢复堆栈 */
 120:../wanlix/wlx_core_c.c ****     pstrTcb->uiTaskCurSp = (U32)puiSp;
 156              		.loc 1 120 0
 157 00b0 1C809DE5 		ldr	r8, [sp, #28]
 117:../wanlix/wlx_core_c.c ****     *(--puiSp) = MODE_USR;              /* CPSR */
 158              		.loc 1 117 0
 159 00b4 1030A0E3 		mov	r3, #16
 114:../wanlix/wlx_core_c.c ****     *(--puiSp) = 0;                     /* R2 */
 160              		.loc 1 114 0
 161 00b8 041002E5 		str	r1, [r2, #-4]
 115:../wanlix/wlx_core_c.c ****     *(--puiSp) = 0;                     /* R1 */
 162              		.loc 1 115 0
 163 00bc 04100AE5 		str	r1, [sl, #-4]
 116:../wanlix/wlx_core_c.c ****     *(--puiSp) = 0;                     /* R0 */
 164              		.loc 1 116 0
 165 00c0 08100AE5 		str	r1, [sl, #-8]
 117:../wanlix/wlx_core_c.c ****     *(--puiSp) = MODE_USR;              /* CPSR */
 166              		.loc 1 117 0
 167 00c4 0C300AE5 		str	r3, [sl, #-12]
 168              		.loc 1 120 0
 169 00c8 008080E5 		str	r8, [r0, #0]
 121:../wanlix/wlx_core_c.c **** }
 170              		.loc 1 121 0
 171 00cc 24D08DE2 		add	sp, sp, #36
 172 00d0 F007BDE8 		ldmfd	sp!, {r4, r5, r6, r7, r8, r9, sl}
 173 00d4 1EFF2FE1 		bx	lr
 174              		.cfi_endproc
 175              	.LFE3:
 176              		.fnend
 177              		.size	WLX_TaskStackInit, .-WLX_TaskStackInit
 178              		.align	2
 179              		.global	WLX_TaskCreate
 180              		.type	WLX_TaskCreate, %function
 181              	WLX_TaskCreate:
 182              		.fnstart
 183              	.LFB1:
  40:../wanlix/wlx_core_c.c **** {
 184              		.loc 1 40 0
 185              		.cfi_startproc
 186              		@ Function supports interworking.
ARM GAS  C:\DOCUME~1\ADMINI~1\LOCALS~1\Temp\ccOl1E3i.s 			page 7


 187              		@ args = 0, pretend = 0, frame = 0
 188              		@ frame_needed = 1, uses_anonymous_args = 0
 189              	.LVL10:
 190              		.movsp ip
 191 00d8 0DC0A0E1 		mov	ip, sp
 192              	.LCFI2:
 193              		.cfi_def_cfa_register 12
 194 00dc 18D82DE9 		stmfd	sp!, {r3, r4, fp, ip, lr, pc}
 195              		.pad #4
 196              		.save {r3, r4, fp, ip, lr}
  44:../wanlix/wlx_core_c.c ****     if(NULL == vfFuncPointer)
 197              		.loc 1 44 0
 198 00e0 003050E2 		subs	r3, r0, #0
 199              		.cfi_offset 14, -8
 200              		.cfi_offset 13, -12
 201              		.cfi_offset 11, -16
 202              		.cfi_offset 4, -20
 203              		.cfi_offset 3, -24
  40:../wanlix/wlx_core_c.c **** {
 204              		.loc 1 40 0
 205              		.setfp fp, ip, #-4
 206 00e4 04B04CE2 		sub	fp, ip, #4
 207              	.LCFI3:
 208              		.cfi_def_cfa 11, 4
  47:../wanlix/wlx_core_c.c ****         return (W_TCB*)NULL;
 209              		.loc 1 47 0
 210 00e8 0340A001 		moveq	r4, r3
  44:../wanlix/wlx_core_c.c ****     if(NULL == vfFuncPointer)
 211              		.loc 1 44 0
 212 00ec 0300001A 		bne	.L8
 213              	.LVL11:
 214              	.L4:
  64:../wanlix/wlx_core_c.c **** }
 215              		.loc 1 64 0
 216 00f0 0400A0E1 		mov	r0, r4
 217 00f4 14D04BE2 		sub	sp, fp, #20
 218 00f8 18689DE8 		ldmfd	sp, {r3, r4, fp, sp, lr}
 219 00fc 1EFF2FE1 		bx	lr
 220              	.LVL12:
 221              	.L8:
  51:../wanlix/wlx_core_c.c ****     if((NULL == pucTaskStack) || (0 == uiStackSize))
 222              		.loc 1 51 0
 223 0100 000051E3 		cmp	r1, #0
 224 0104 00005213 		cmpne	r2, #0
  54:../wanlix/wlx_core_c.c ****         return (W_TCB*)NULL;
 225              		.loc 1 54 0
 226 0108 0040A003 		moveq	r4, #0
  51:../wanlix/wlx_core_c.c ****     if((NULL == pucTaskStack) || (0 == uiStackSize))
 227              		.loc 1 51 0
 228 010c F7FFFF0A 		beq	.L4
 229              	.LVL13:
 230              	.LBB4:
 231              	.LBB5:
  78:../wanlix/wlx_core_c.c ****     pucStackBy4 = (U8*)(((U32)pucTaskStack + uiStackSize) & 0xFFFFFFFC);
 232              		.loc 1 78 0
 233 0110 020081E0 		add	r0, r1, r2
 234              	.LVL14:
ARM GAS  C:\DOCUME~1\ADMINI~1\LOCALS~1\Temp\ccOl1E3i.s 			page 8


 235 0114 0340C0E3 		bic	r4, r0, #3
  81:../wanlix/wlx_core_c.c ****     pstrTcb = (W_TCB*)(((U32)pucStackBy4 - sizeof(W_TCB)) & 0xFFFFFFFC);
 236              		.loc 1 81 0
 237 0118 044044E2 		sub	r4, r4, #4
 238              	.LVL15:
  84:../wanlix/wlx_core_c.c ****     pstrTcb->uiTaskCurSp = (U32)pstrTcb;
 239              		.loc 1 84 0
 240 011c 004084E5 		str	r4, [r4, #0]
 241              	.LBE5:
 242              	.LBE4:
  61:../wanlix/wlx_core_c.c ****     WLX_TaskStackInit(pstrTcb, vfFuncPointer);
 243              		.loc 1 61 0
 244 0120 0400A0E1 		mov	r0, r4
 245 0124 0310A0E1 		mov	r1, r3
 246              	.LVL16:
 247 0128 FEFFFFEB 		bl	WLX_TaskStackInit
 248              	.LVL17:
  63:../wanlix/wlx_core_c.c ****     return pstrTcb;
 249              		.loc 1 63 0
 250 012c EFFFFFEA 		b	.L4
 251              		.cfi_endproc
 252              	.LFE1:
 253              		.fnend
 254              		.size	WLX_TaskCreate, .-WLX_TaskCreate
 255              		.align	2
 256              		.global	WLX_TaskSwitch
 257              		.type	WLX_TaskSwitch, %function
 258              	WLX_TaskSwitch:
 259              		.fnstart
 260              	.LFB4:
 122:../wanlix/wlx_core_c.c **** 
 123:../wanlix/wlx_core_c.c **** /***********************************************************************************
 124:../wanlix/wlx_core_c.c **** 函数功能: 调用该函数将发生任务切换.
 125:../wanlix/wlx_core_c.c **** 入口参数: pstrTcb: 即将运行的任务的TCB指针.
 126:../wanlix/wlx_core_c.c **** 返 回 值: none.
 127:../wanlix/wlx_core_c.c **** ***********************************************************************************/
 128:../wanlix/wlx_core_c.c **** void WLX_TaskSwitch(W_TCB* pstrTcb)
 129:../wanlix/wlx_core_c.c **** {
 261              		.loc 1 129 0
 262              		.cfi_startproc
 263              		@ Function supports interworking.
 264              		@ args = 0, pretend = 0, frame = 0
 265              		@ frame_needed = 1, uses_anonymous_args = 0
 266              	.LVL18:
 130:../wanlix/wlx_core_c.c ****     /* 保存当前任务堆栈指针的地址, 在汇编语言可以通过这个变量写入任务切换前最后时刻
 131:../wanlix/wlx_core_c.c ****        的堆栈地址 */
 132:../wanlix/wlx_core_c.c ****     gpuiCurTaskSpAddr = &gpstrCurTcb->uiTaskCurSp;
 267              		.loc 1 132 0
 268 0130 34309FE5 		ldr	r3, .L10
 129:../wanlix/wlx_core_c.c **** {
 269              		.loc 1 129 0
 270              		.movsp ip
 271 0134 0DC0A0E1 		mov	ip, sp
 272              	.LCFI4:
 273              		.cfi_def_cfa_register 12
 274 0138 00D82DE9 		stmfd	sp!, {fp, ip, lr, pc}
 275              		.pad #4
ARM GAS  C:\DOCUME~1\ADMINI~1\LOCALS~1\Temp\ccOl1E3i.s 			page 9


 276              		.save {fp, ip, lr}
 133:../wanlix/wlx_core_c.c **** 
 134:../wanlix/wlx_core_c.c ****     /* 保存即将运行任务的堆栈指针 */
 135:../wanlix/wlx_core_c.c ****     guiNextTaskSp = pstrTcb->uiTaskCurSp;
 277              		.loc 1 135 0
 278 013c 001090E5 		ldr	r1, [r0, #0]
 129:../wanlix/wlx_core_c.c **** {
 279              		.loc 1 129 0
 280              		.setfp fp, ip, #-4
 281 0140 04B04CE2 		sub	fp, ip, #4
 282              		.cfi_offset 14, -8
 283              		.cfi_offset 13, -12
 284              		.cfi_offset 11, -16
 285              	.LCFI5:
 286              		.cfi_def_cfa 11, 4
 132:../wanlix/wlx_core_c.c ****     gpuiCurTaskSpAddr = &gpstrCurTcb->uiTaskCurSp;
 287              		.loc 1 132 0
 288 0144 24E09FE5 		ldr	lr, .L10+4
 289 0148 00C093E5 		ldr	ip, [r3, #0]
 290              		.loc 1 135 0
 291 014c 20209FE5 		ldr	r2, .L10+8
 132:../wanlix/wlx_core_c.c ****     gpuiCurTaskSpAddr = &gpstrCurTcb->uiTaskCurSp;
 292              		.loc 1 132 0
 293 0150 00C08EE5 		str	ip, [lr, #0]
 294              		.loc 1 135 0
 295 0154 001082E5 		str	r1, [r2, #0]
 136:../wanlix/wlx_core_c.c **** 
 137:../wanlix/wlx_core_c.c ****     /* 保存即将运行任务的TCB */
 138:../wanlix/wlx_core_c.c ****     gpstrCurTcb = pstrTcb;
 296              		.loc 1 138 0
 297 0158 000083E5 		str	r0, [r3, #0]
 139:../wanlix/wlx_core_c.c **** 
 140:../wanlix/wlx_core_c.c ****     WLX_ContextSwitch();
 298              		.loc 1 140 0
 299 015c FEFFFFEB 		bl	WLX_ContextSwitch
 300              	.LVL19:
 141:../wanlix/wlx_core_c.c **** }
 301              		.loc 1 141 0
 302 0160 0CD04BE2 		sub	sp, fp, #12
 303 0164 00689DE8 		ldmfd	sp, {fp, sp, lr}
 304 0168 1EFF2FE1 		bx	lr
 305              	.L11:
 306              		.align	2
 307              	.L10:
 308 016c 00000000 		.word	gpstrCurTcb
 309 0170 00000000 		.word	gpuiCurTaskSpAddr
 310 0174 00000000 		.word	guiNextTaskSp
 311              		.cfi_endproc
 312              	.LFE4:
 313              		.fnend
 314              		.size	WLX_TaskSwitch, .-WLX_TaskSwitch
 315              		.align	2
 316              		.global	WLX_TaskStart
 317              		.type	WLX_TaskStart, %function
 318              	WLX_TaskStart:
 319              		.fnstart
 320              	.LFB5:
ARM GAS  C:\DOCUME~1\ADMINI~1\LOCALS~1\Temp\ccOl1E3i.s 			page 10


 142:../wanlix/wlx_core_c.c **** 
 143:../wanlix/wlx_core_c.c **** /***********************************************************************************
 144:../wanlix/wlx_core_c.c **** 函数功能: 开始进入任务调度.
 145:../wanlix/wlx_core_c.c **** 入口参数: pstrTcb: 即将运行的任务的TCB指针.
 146:../wanlix/wlx_core_c.c **** 返 回 值: none.
 147:../wanlix/wlx_core_c.c **** ***********************************************************************************/
 148:../wanlix/wlx_core_c.c **** void WLX_TaskStart(W_TCB* pstrTcb)
 149:../wanlix/wlx_core_c.c **** {
 321              		.loc 1 149 0
 322              		.cfi_startproc
 323              		@ Function supports interworking.
 324              		@ args = 0, pretend = 0, frame = 0
 325              		@ frame_needed = 1, uses_anonymous_args = 0
 326              	.LVL20:
 150:../wanlix/wlx_core_c.c ****     /* 保存即将运行任务的堆栈指针 */
 151:../wanlix/wlx_core_c.c ****     guiNextTaskSp = pstrTcb->uiTaskCurSp;
 327              		.loc 1 151 0
 328 0178 002090E5 		ldr	r2, [r0, #0]
 329 017c 24109FE5 		ldr	r1, .L13
 152:../wanlix/wlx_core_c.c **** 
 153:../wanlix/wlx_core_c.c ****     /* 保存即将运行任务的TCB */
 154:../wanlix/wlx_core_c.c ****     gpstrCurTcb = pstrTcb;
 330              		.loc 1 154 0
 331 0180 24309FE5 		ldr	r3, .L13+4
 149:../wanlix/wlx_core_c.c **** {
 332              		.loc 1 149 0
 333              		.movsp ip
 334 0184 0DC0A0E1 		mov	ip, sp
 335              	.LCFI6:
 336              		.cfi_def_cfa_register 12
 337 0188 00D82DE9 		stmfd	sp!, {fp, ip, lr, pc}
 338              		.pad #4
 339              		.save {fp, ip, lr}
 340              		.setfp fp, ip, #-4
 341 018c 04B04CE2 		sub	fp, ip, #4
 342              		.cfi_offset 14, -8
 343              		.cfi_offset 13, -12
 344              		.cfi_offset 11, -16
 345              	.LCFI7:
 346              		.cfi_def_cfa 11, 4
 151:../wanlix/wlx_core_c.c ****     guiNextTaskSp = pstrTcb->uiTaskCurSp;
 347              		.loc 1 151 0
 348 0190 002081E5 		str	r2, [r1, #0]
 349              		.loc 1 154 0
 350 0194 000083E5 		str	r0, [r3, #0]
 155:../wanlix/wlx_core_c.c **** 
 156:../wanlix/wlx_core_c.c ****     WLX_SwitchToTask();
 351              		.loc 1 156 0
 352 0198 FEFFFFEB 		bl	WLX_SwitchToTask
 353              	.LVL21:
 157:../wanlix/wlx_core_c.c **** }
 354              		.loc 1 157 0
 355 019c 0CD04BE2 		sub	sp, fp, #12
 356 01a0 00689DE8 		ldmfd	sp, {fp, sp, lr}
 357 01a4 1EFF2FE1 		bx	lr
 358              	.L14:
 359              		.align	2
ARM GAS  C:\DOCUME~1\ADMINI~1\LOCALS~1\Temp\ccOl1E3i.s 			page 11


 360              	.L13:
 361 01a8 00000000 		.word	guiNextTaskSp
 362 01ac 00000000 		.word	gpstrCurTcb
 363              		.cfi_endproc
 364              	.LFE5:
 365              		.fnend
 366              		.size	WLX_TaskStart, .-WLX_TaskStart
 367              		.align	2
 368              		.global	main
 369              		.type	main, %function
 370              	main:
 371              		.fnstart
 372              	.LFB0:
  20:../wanlix/wlx_core_c.c **** {
 373              		.loc 1 20 0
 374              		.cfi_startproc
 375              		@ Function supports interworking.
 376              		@ args = 0, pretend = 0, frame = 0
 377              		@ frame_needed = 1, uses_anonymous_args = 0
 378              		.movsp ip
 379 01b0 0DC0A0E1 		mov	ip, sp
 380              	.LCFI8:
 381              		.cfi_def_cfa_register 12
 382 01b4 00D82DE9 		stmfd	sp!, {fp, ip, lr, pc}
 383              		.pad #4
 384              		.save {fp, ip, lr}
  22:../wanlix/wlx_core_c.c ****     gpstrRootTaskTcb = WLX_TaskCreate((VFUNC)WLX_RootTask, gaucRootTaskStack,
 385              		.loc 1 22 0
 386 01b8 28109FE5 		ldr	r1, .L16
  20:../wanlix/wlx_core_c.c **** {
 387              		.loc 1 20 0
 388              		.setfp fp, ip, #-4
 389 01bc 04B04CE2 		sub	fp, ip, #4
 390              		.cfi_offset 14, -8
 391              		.cfi_offset 13, -12
 392              		.cfi_offset 11, -16
 393              	.LCFI9:
 394              		.cfi_def_cfa 11, 4
  22:../wanlix/wlx_core_c.c ****     gpstrRootTaskTcb = WLX_TaskCreate((VFUNC)WLX_RootTask, gaucRootTaskStack,
 395              		.loc 1 22 0
 396 01c0 192EA0E3 		mov	r2, #400
 397 01c4 20009FE5 		ldr	r0, .L16+4
 398 01c8 FEFFFFEB 		bl	WLX_TaskCreate
 399 01cc 1C309FE5 		ldr	r3, .L16+8
 400 01d0 000083E5 		str	r0, [r3, #0]
  26:../wanlix/wlx_core_c.c ****     WLX_TaskStart(gpstrRootTaskTcb);
 401              		.loc 1 26 0
 402 01d4 FEFFFFEB 		bl	WLX_TaskStart
  29:../wanlix/wlx_core_c.c **** }
 403              		.loc 1 29 0
 404 01d8 0000A0E3 		mov	r0, #0
 405 01dc 0CD04BE2 		sub	sp, fp, #12
 406 01e0 00689DE8 		ldmfd	sp, {fp, sp, lr}
 407 01e4 1EFF2FE1 		bx	lr
 408              	.L17:
 409              		.align	2
 410              	.L16:
ARM GAS  C:\DOCUME~1\ADMINI~1\LOCALS~1\Temp\ccOl1E3i.s 			page 12


 411 01e8 00000000 		.word	gaucRootTaskStack
 412 01ec 00000000 		.word	WLX_RootTask
 413 01f0 00000000 		.word	gpstrRootTaskTcb
 414              		.cfi_endproc
 415              	.LFE0:
 416              		.fnend
 417              		.size	main, .-main
 418              		.comm	gpstrCurTcb,4,4
 419              		.comm	guiNextTaskSp,4,4
 420              		.comm	gpuiCurTaskSpAddr,4,4
 421              		.comm	gpstrRootTaskTcb,4,4
 422              		.comm	gaucRootTaskStack,400,4
 423              	.Letext0:
 424              		.section	.debug_loc,"",%progbits
 425              	.Ldebug_loc0:
 426              	.LLST0:
 427 0000 00000000 		.4byte	.LVL0-.Ltext0
 428 0004 08000000 		.4byte	.LVL2-.Ltext0
 429 0008 0100     		.2byte	0x1
 430 000a 50       		.byte	0x50
 431 000b 00000000 		.4byte	0x0
 432 000f 00000000 		.4byte	0x0
 433              	.LLST1:
 434 0013 00000000 		.4byte	.LVL0-.Ltext0
 435 0017 04000000 		.4byte	.LVL1-.Ltext0
 436 001b 0100     		.2byte	0x1
 437 001d 51       		.byte	0x51
 438 001e 00000000 		.4byte	0x0
 439 0022 00000000 		.4byte	0x0
 440              	.LLST2:
 441 0026 00000000 		.4byte	.LVL0-.Ltext0
 442 002a 04000000 		.4byte	.LVL1-.Ltext0
 443 002e 0900     		.2byte	0x9
 444 0030 71       		.byte	0x71
 445 0031 00       		.sleb128 0
 446 0032 70       		.byte	0x70
 447 0033 00       		.sleb128 0
 448 0034 22       		.byte	0x22
 449 0035 09       		.byte	0x9
 450 0036 FC       		.byte	0xfc
 451 0037 1A       		.byte	0x1a
 452 0038 9F       		.byte	0x9f
 453 0039 08000000 		.4byte	.LVL2-.Ltext0
 454 003d 0C000000 		.4byte	.LVL3-.Ltext0
 455 0041 0100     		.2byte	0x1
 456 0043 50       		.byte	0x50
 457 0044 0C000000 		.4byte	.LVL3-.Ltext0
 458 0048 14000000 		.4byte	.LFE2-.Ltext0
 459 004c 0300     		.2byte	0x3
 460 004e 70       		.byte	0x70
 461 004f 04       		.sleb128 4
 462 0050 9F       		.byte	0x9f
 463 0051 00000000 		.4byte	0x0
 464 0055 00000000 		.4byte	0x0
 465              	.LLST3:
 466 0059 14000000 		.4byte	.LFB3-.Ltext0
 467 005d 18000000 		.4byte	.LCFI0-.Ltext0
ARM GAS  C:\DOCUME~1\ADMINI~1\LOCALS~1\Temp\ccOl1E3i.s 			page 13


 468 0061 0200     		.2byte	0x2
 469 0063 7D       		.byte	0x7d
 470 0064 00       		.sleb128 0
 471 0065 18000000 		.4byte	.LCFI0-.Ltext0
 472 0069 20000000 		.4byte	.LCFI1-.Ltext0
 473 006d 0200     		.2byte	0x2
 474 006f 7D       		.byte	0x7d
 475 0070 1C       		.sleb128 28
 476 0071 20000000 		.4byte	.LCFI1-.Ltext0
 477 0075 D8000000 		.4byte	.LFE3-.Ltext0
 478 0079 0300     		.2byte	0x3
 479 007b 7D       		.byte	0x7d
 480 007c C000     		.sleb128 64
 481 007e 00000000 		.4byte	0x0
 482 0082 00000000 		.4byte	0x0
 483              	.LLST4:
 484 0086 14000000 		.4byte	.LVL4-.Ltext0
 485 008a 68000000 		.4byte	.LVL6-.Ltext0
 486 008e 0100     		.2byte	0x1
 487 0090 51       		.byte	0x51
 488 0091 68000000 		.4byte	.LVL6-.Ltext0
 489 0095 D8000000 		.4byte	.LFE3-.Ltext0
 490 0099 0600     		.2byte	0x6
 491 009b 70       		.byte	0x70
 492 009c 00       		.sleb128 0
 493 009d 06       		.byte	0x6
 494 009e 09       		.byte	0x9
 495 009f FC       		.byte	0xfc
 496 00a0 22       		.byte	0x22
 497 00a1 00000000 		.4byte	0x0
 498 00a5 00000000 		.4byte	0x0
 499              	.LLST5:
 500 00a9 1C000000 		.4byte	.LVL5-.Ltext0
 501 00ad 6C000000 		.4byte	.LVL7-.Ltext0
 502 00b1 0200     		.2byte	0x2
 503 00b3 70       		.byte	0x70
 504 00b4 00       		.sleb128 0
 505 00b5 6C000000 		.4byte	.LVL7-.Ltext0
 506 00b9 74000000 		.4byte	.LVL8-.Ltext0
 507 00bd 0200     		.2byte	0x2
 508 00bf 70       		.byte	0x70
 509 00c0 00       		.sleb128 0
 510 00c1 74000000 		.4byte	.LVL8-.Ltext0
 511 00c5 8C000000 		.4byte	.LVL9-.Ltext0
 512 00c9 0100     		.2byte	0x1
 513 00cb 53       		.byte	0x53
 514 00cc 8C000000 		.4byte	.LVL9-.Ltext0
 515 00d0 D8000000 		.4byte	.LFE3-.Ltext0
 516 00d4 0200     		.2byte	0x2
 517 00d6 91       		.byte	0x91
 518 00d7 54       		.sleb128 -44
 519 00d8 00000000 		.4byte	0x0
 520 00dc 00000000 		.4byte	0x0
 521              	.LLST6:
 522 00e0 D8000000 		.4byte	.LFB1-.Ltext0
 523 00e4 DC000000 		.4byte	.LCFI2-.Ltext0
 524 00e8 0200     		.2byte	0x2
ARM GAS  C:\DOCUME~1\ADMINI~1\LOCALS~1\Temp\ccOl1E3i.s 			page 14


 525 00ea 7D       		.byte	0x7d
 526 00eb 00       		.sleb128 0
 527 00ec DC000000 		.4byte	.LCFI2-.Ltext0
 528 00f0 E8000000 		.4byte	.LCFI3-.Ltext0
 529 00f4 0200     		.2byte	0x2
 530 00f6 7C       		.byte	0x7c
 531 00f7 00       		.sleb128 0
 532 00f8 E8000000 		.4byte	.LCFI3-.Ltext0
 533 00fc 30010000 		.4byte	.LFE1-.Ltext0
 534 0100 0200     		.2byte	0x2
 535 0102 7B       		.byte	0x7b
 536 0103 04       		.sleb128 4
 537 0104 00000000 		.4byte	0x0
 538 0108 00000000 		.4byte	0x0
 539              	.LLST7:
 540 010c D8000000 		.4byte	.LVL10-.Ltext0
 541 0110 F0000000 		.4byte	.LVL11-.Ltext0
 542 0114 0100     		.2byte	0x1
 543 0116 50       		.byte	0x50
 544 0117 00010000 		.4byte	.LVL12-.Ltext0
 545 011b 14010000 		.4byte	.LVL14-.Ltext0
 546 011f 0100     		.2byte	0x1
 547 0121 50       		.byte	0x50
 548 0122 14010000 		.4byte	.LVL14-.Ltext0
 549 0126 2B010000 		.4byte	.LVL17-1-.Ltext0
 550 012a 0100     		.2byte	0x1
 551 012c 53       		.byte	0x53
 552 012d 00000000 		.4byte	0x0
 553 0131 00000000 		.4byte	0x0
 554              	.LLST8:
 555 0135 D8000000 		.4byte	.LVL10-.Ltext0
 556 0139 F0000000 		.4byte	.LVL11-.Ltext0
 557 013d 0100     		.2byte	0x1
 558 013f 51       		.byte	0x51
 559 0140 00010000 		.4byte	.LVL12-.Ltext0
 560 0144 28010000 		.4byte	.LVL16-.Ltext0
 561 0148 0100     		.2byte	0x1
 562 014a 51       		.byte	0x51
 563 014b 00000000 		.4byte	0x0
 564 014f 00000000 		.4byte	0x0
 565              	.LLST9:
 566 0153 D8000000 		.4byte	.LVL10-.Ltext0
 567 0157 F0000000 		.4byte	.LVL11-.Ltext0
 568 015b 0100     		.2byte	0x1
 569 015d 52       		.byte	0x52
 570 015e 00010000 		.4byte	.LVL12-.Ltext0
 571 0162 2B010000 		.4byte	.LVL17-1-.Ltext0
 572 0166 0100     		.2byte	0x1
 573 0168 52       		.byte	0x52
 574 0169 00000000 		.4byte	0x0
 575 016d 00000000 		.4byte	0x0
 576              	.LLST10:
 577 0171 10010000 		.4byte	.LVL13-.Ltext0
 578 0175 2B010000 		.4byte	.LVL17-1-.Ltext0
 579 0179 0100     		.2byte	0x1
 580 017b 52       		.byte	0x52
 581 017c 00000000 		.4byte	0x0
ARM GAS  C:\DOCUME~1\ADMINI~1\LOCALS~1\Temp\ccOl1E3i.s 			page 15


 582 0180 00000000 		.4byte	0x0
 583              	.LLST11:
 584 0184 10010000 		.4byte	.LVL13-.Ltext0
 585 0188 28010000 		.4byte	.LVL16-.Ltext0
 586 018c 0100     		.2byte	0x1
 587 018e 51       		.byte	0x51
 588 018f 00000000 		.4byte	0x0
 589 0193 00000000 		.4byte	0x0
 590              	.LLST12:
 591 0197 10010000 		.4byte	.LVL13-.Ltext0
 592 019b 28010000 		.4byte	.LVL16-.Ltext0
 593 019f 0900     		.2byte	0x9
 594 01a1 71       		.byte	0x71
 595 01a2 00       		.sleb128 0
 596 01a3 72       		.byte	0x72
 597 01a4 00       		.sleb128 0
 598 01a5 22       		.byte	0x22
 599 01a6 09       		.byte	0x9
 600 01a7 FC       		.byte	0xfc
 601 01a8 1A       		.byte	0x1a
 602 01a9 9F       		.byte	0x9f
 603 01aa 28010000 		.4byte	.LVL16-.Ltext0
 604 01ae 30010000 		.4byte	.LFE1-.Ltext0
 605 01b2 0300     		.2byte	0x3
 606 01b4 74       		.byte	0x74
 607 01b5 04       		.sleb128 4
 608 01b6 9F       		.byte	0x9f
 609 01b7 00000000 		.4byte	0x0
 610 01bb 00000000 		.4byte	0x0
 611              	.LLST13:
 612 01bf 30010000 		.4byte	.LFB4-.Ltext0
 613 01c3 38010000 		.4byte	.LCFI4-.Ltext0
 614 01c7 0200     		.2byte	0x2
 615 01c9 7D       		.byte	0x7d
 616 01ca 00       		.sleb128 0
 617 01cb 38010000 		.4byte	.LCFI4-.Ltext0
 618 01cf 44010000 		.4byte	.LCFI5-.Ltext0
 619 01d3 0200     		.2byte	0x2
 620 01d5 7C       		.byte	0x7c
 621 01d6 00       		.sleb128 0
 622 01d7 44010000 		.4byte	.LCFI5-.Ltext0
 623 01db 78010000 		.4byte	.LFE4-.Ltext0
 624 01df 0200     		.2byte	0x2
 625 01e1 7B       		.byte	0x7b
 626 01e2 04       		.sleb128 4
 627 01e3 00000000 		.4byte	0x0
 628 01e7 00000000 		.4byte	0x0
 629              	.LLST14:
 630 01eb 30010000 		.4byte	.LVL18-.Ltext0
 631 01ef 5F010000 		.4byte	.LVL19-1-.Ltext0
 632 01f3 0100     		.2byte	0x1
 633 01f5 50       		.byte	0x50
 634 01f6 00000000 		.4byte	0x0
 635 01fa 00000000 		.4byte	0x0
 636              	.LLST15:
 637 01fe 78010000 		.4byte	.LFB5-.Ltext0
 638 0202 88010000 		.4byte	.LCFI6-.Ltext0
ARM GAS  C:\DOCUME~1\ADMINI~1\LOCALS~1\Temp\ccOl1E3i.s 			page 16


 639 0206 0200     		.2byte	0x2
 640 0208 7D       		.byte	0x7d
 641 0209 00       		.sleb128 0
 642 020a 88010000 		.4byte	.LCFI6-.Ltext0
 643 020e 90010000 		.4byte	.LCFI7-.Ltext0
 644 0212 0200     		.2byte	0x2
 645 0214 7C       		.byte	0x7c
 646 0215 00       		.sleb128 0
 647 0216 90010000 		.4byte	.LCFI7-.Ltext0
 648 021a B0010000 		.4byte	.LFE5-.Ltext0
 649 021e 0200     		.2byte	0x2
 650 0220 7B       		.byte	0x7b
 651 0221 04       		.sleb128 4
 652 0222 00000000 		.4byte	0x0
 653 0226 00000000 		.4byte	0x0
 654              	.LLST16:
 655 022a 78010000 		.4byte	.LVL20-.Ltext0
 656 022e 9B010000 		.4byte	.LVL21-1-.Ltext0
 657 0232 0100     		.2byte	0x1
 658 0234 50       		.byte	0x50
 659 0235 00000000 		.4byte	0x0
 660 0239 00000000 		.4byte	0x0
 661              	.LLST17:
 662 023d B0010000 		.4byte	.LFB0-.Ltext0
 663 0241 B4010000 		.4byte	.LCFI8-.Ltext0
 664 0245 0200     		.2byte	0x2
 665 0247 7D       		.byte	0x7d
 666 0248 00       		.sleb128 0
 667 0249 B4010000 		.4byte	.LCFI8-.Ltext0
 668 024d C0010000 		.4byte	.LCFI9-.Ltext0
 669 0251 0200     		.2byte	0x2
 670 0253 7C       		.byte	0x7c
 671 0254 00       		.sleb128 0
 672 0255 C0010000 		.4byte	.LCFI9-.Ltext0
 673 0259 F4010000 		.4byte	.LFE0-.Ltext0
 674 025d 0200     		.2byte	0x2
 675 025f 7B       		.byte	0x7b
 676 0260 04       		.sleb128 4
 677 0261 00000000 		.4byte	0x0
 678 0265 00000000 		.4byte	0x0
 679              		.file 2 "../wanlix/wanlix.h"
 680              		.section	.debug_info
 681 0000 1D030000 		.4byte	0x31d
 682 0004 0200     		.2byte	0x2
 683 0006 00000000 		.4byte	.Ldebug_abbrev0
 684 000a 04       		.byte	0x4
 685 000b 01       		.uleb128 0x1
 686 000c 00000000 		.4byte	.LASF21
 687 0010 01       		.byte	0x1
 688 0011 3D010000 		.4byte	.LASF22
 689 0015 28000000 		.4byte	.LASF23
 690 0019 00000000 		.4byte	.Ltext0
 691 001d F4010000 		.4byte	.Letext0
 692 0021 00000000 		.4byte	.Ldebug_line0
 693 0025 02       		.uleb128 0x2
 694 0026 553800   		.ascii	"U8\000"
 695 0029 02       		.byte	0x2
ARM GAS  C:\DOCUME~1\ADMINI~1\LOCALS~1\Temp\ccOl1E3i.s 			page 17


 696 002a 07       		.byte	0x7
 697 002b 2F000000 		.4byte	0x2f
 698 002f 03       		.uleb128 0x3
 699 0030 01       		.byte	0x1
 700 0031 08       		.byte	0x8
 701 0032 8B000000 		.4byte	.LASF0
 702 0036 03       		.uleb128 0x3
 703 0037 02       		.byte	0x2
 704 0038 07       		.byte	0x7
 705 0039 01010000 		.4byte	.LASF1
 706 003d 02       		.uleb128 0x2
 707 003e 55333200 		.ascii	"U32\000"
 708 0042 02       		.byte	0x2
 709 0043 09       		.byte	0x9
 710 0044 48000000 		.4byte	0x48
 711 0048 03       		.uleb128 0x3
 712 0049 04       		.byte	0x4
 713 004a 07       		.byte	0x7
 714 004b 0C000000 		.4byte	.LASF2
 715 004f 03       		.uleb128 0x3
 716 0050 01       		.byte	0x1
 717 0051 08       		.byte	0x8
 718 0052 A7000000 		.4byte	.LASF3
 719 0056 03       		.uleb128 0x3
 720 0057 02       		.byte	0x2
 721 0058 05       		.byte	0x5
 722 0059 60010000 		.4byte	.LASF4
 723 005d 02       		.uleb128 0x2
 724 005e 53333200 		.ascii	"S32\000"
 725 0062 02       		.byte	0x2
 726 0063 0C       		.byte	0xc
 727 0064 68000000 		.4byte	0x68
 728 0068 04       		.uleb128 0x4
 729 0069 04       		.byte	0x4
 730 006a 05       		.byte	0x5
 731 006b 696E7400 		.ascii	"int\000"
 732 006f 05       		.uleb128 0x5
 733 0070 77000000 		.4byte	.LASF5
 734 0074 02       		.byte	0x2
 735 0075 0D       		.byte	0xd
 736 0076 7A000000 		.4byte	0x7a
 737 007a 06       		.uleb128 0x6
 738 007b 04       		.byte	0x4
 739 007c 80000000 		.4byte	0x80
 740 0080 07       		.uleb128 0x7
 741 0081 01       		.byte	0x1
 742 0082 08       		.uleb128 0x8
 743 0083 6A010000 		.4byte	.LASF24
 744 0087 04       		.byte	0x4
 745 0088 02       		.byte	0x2
 746 0089 22       		.byte	0x22
 747 008a 9D000000 		.4byte	0x9d
 748 008e 09       		.uleb128 0x9
 749 008f E3000000 		.4byte	.LASF25
 750 0093 02       		.byte	0x2
 751 0094 24       		.byte	0x24
 752 0095 3D000000 		.4byte	0x3d
ARM GAS  C:\DOCUME~1\ADMINI~1\LOCALS~1\Temp\ccOl1E3i.s 			page 18


 753 0099 02       		.byte	0x2
 754 009a 23       		.byte	0x23
 755 009b 00       		.uleb128 0x0
 756 009c 00       		.byte	0x0
 757 009d 05       		.uleb128 0x5
 758 009e 7D000000 		.4byte	.LASF6
 759 00a2 02       		.byte	0x2
 760 00a3 25       		.byte	0x25
 761 00a4 82000000 		.4byte	0x82
 762 00a8 0A       		.uleb128 0xa
 763 00a9 01       		.byte	0x1
 764 00aa 70010000 		.4byte	.LASF26
 765 00ae 01       		.byte	0x1
 766 00af 48       		.byte	0x48
 767 00b0 01       		.byte	0x1
 768 00b1 E7000000 		.4byte	0xe7
 769 00b5 01       		.byte	0x1
 770 00b6 E7000000 		.4byte	0xe7
 771 00ba 0B       		.uleb128 0xb
 772 00bb 6A000000 		.4byte	.LASF7
 773 00bf 01       		.byte	0x1
 774 00c0 48       		.byte	0x48
 775 00c1 ED000000 		.4byte	0xed
 776 00c5 0B       		.uleb128 0xb
 777 00c6 54010000 		.4byte	.LASF8
 778 00ca 01       		.byte	0x1
 779 00cb 48       		.byte	0x48
 780 00cc 3D000000 		.4byte	0x3d
 781 00d0 0C       		.uleb128 0xc
 782 00d1 83000000 		.4byte	.LASF9
 783 00d5 01       		.byte	0x1
 784 00d6 4A       		.byte	0x4a
 785 00d7 E7000000 		.4byte	0xe7
 786 00db 0C       		.uleb128 0xc
 787 00dc C6000000 		.4byte	.LASF10
 788 00e0 01       		.byte	0x1
 789 00e1 4B       		.byte	0x4b
 790 00e2 ED000000 		.4byte	0xed
 791 00e6 00       		.byte	0x0
 792 00e7 06       		.uleb128 0x6
 793 00e8 04       		.byte	0x4
 794 00e9 9D000000 		.4byte	0x9d
 795 00ed 06       		.uleb128 0x6
 796 00ee 04       		.byte	0x4
 797 00ef 25000000 		.4byte	0x25
 798 00f3 0D       		.uleb128 0xd
 799 00f4 A8000000 		.4byte	0xa8
 800 00f8 00000000 		.4byte	.LFB2
 801 00fc 14000000 		.4byte	.LFE2
 802 0100 02       		.byte	0x2
 803 0101 7D       		.byte	0x7d
 804 0102 00       		.sleb128 0
 805 0103 2A010000 		.4byte	0x12a
 806 0107 0E       		.uleb128 0xe
 807 0108 BA000000 		.4byte	0xba
 808 010c 00000000 		.4byte	.LLST0
 809 0110 0E       		.uleb128 0xe
ARM GAS  C:\DOCUME~1\ADMINI~1\LOCALS~1\Temp\ccOl1E3i.s 			page 19


 810 0111 C5000000 		.4byte	0xc5
 811 0115 13000000 		.4byte	.LLST1
 812 0119 0F       		.uleb128 0xf
 813 011a D0000000 		.4byte	0xd0
 814 011e 01       		.byte	0x1
 815 011f 50       		.byte	0x50
 816 0120 10       		.uleb128 0x10
 817 0121 DB000000 		.4byte	0xdb
 818 0125 26000000 		.4byte	.LLST2
 819 0129 00       		.byte	0x0
 820 012a 11       		.uleb128 0x11
 821 012b 01       		.byte	0x1
 822 012c 2B010000 		.4byte	.LASF13
 823 0130 01       		.byte	0x1
 824 0131 5F       		.byte	0x5f
 825 0132 01       		.byte	0x1
 826 0133 14000000 		.4byte	.LFB3
 827 0137 D8000000 		.4byte	.LFE3
 828 013b 59000000 		.4byte	.LLST3
 829 013f 6F010000 		.4byte	0x16f
 830 0143 12       		.uleb128 0x12
 831 0144 83000000 		.4byte	.LASF9
 832 0148 01       		.byte	0x1
 833 0149 5F       		.byte	0x5f
 834 014a E7000000 		.4byte	0xe7
 835 014e 01       		.byte	0x1
 836 014f 50       		.byte	0x50
 837 0150 13       		.uleb128 0x13
 838 0151 B8000000 		.4byte	.LASF11
 839 0155 01       		.byte	0x1
 840 0156 5F       		.byte	0x5f
 841 0157 6F000000 		.4byte	0x6f
 842 015b 86000000 		.4byte	.LLST4
 843 015f 14       		.uleb128 0x14
 844 0160 56000000 		.4byte	.LASF12
 845 0164 01       		.byte	0x1
 846 0165 61       		.byte	0x61
 847 0166 6F010000 		.4byte	0x16f
 848 016a A9000000 		.4byte	.LLST5
 849 016e 00       		.byte	0x0
 850 016f 06       		.uleb128 0x6
 851 0170 04       		.byte	0x4
 852 0171 3D000000 		.4byte	0x3d
 853 0175 15       		.uleb128 0x15
 854 0176 01       		.byte	0x1
 855 0177 47000000 		.4byte	.LASF27
 856 017b 01       		.byte	0x1
 857 017c 27       		.byte	0x27
 858 017d 01       		.byte	0x1
 859 017e E7000000 		.4byte	0xe7
 860 0182 D8000000 		.4byte	.LFB1
 861 0186 30010000 		.4byte	.LFE1
 862 018a E0000000 		.4byte	.LLST6
 863 018e 09020000 		.4byte	0x209
 864 0192 13       		.uleb128 0x13
 865 0193 B8000000 		.4byte	.LASF11
 866 0197 01       		.byte	0x1
ARM GAS  C:\DOCUME~1\ADMINI~1\LOCALS~1\Temp\ccOl1E3i.s 			page 20


 867 0198 27       		.byte	0x27
 868 0199 6F000000 		.4byte	0x6f
 869 019d 0C010000 		.4byte	.LLST7
 870 01a1 13       		.uleb128 0x13
 871 01a2 6A000000 		.4byte	.LASF7
 872 01a6 01       		.byte	0x1
 873 01a7 27       		.byte	0x27
 874 01a8 ED000000 		.4byte	0xed
 875 01ac 35010000 		.4byte	.LLST8
 876 01b0 13       		.uleb128 0x13
 877 01b1 54010000 		.4byte	.LASF8
 878 01b5 01       		.byte	0x1
 879 01b6 27       		.byte	0x27
 880 01b7 3D000000 		.4byte	0x3d
 881 01bb 53010000 		.4byte	.LLST9
 882 01bf 16       		.uleb128 0x16
 883 01c0 83000000 		.4byte	.LASF9
 884 01c4 01       		.byte	0x1
 885 01c5 29       		.byte	0x29
 886 01c6 E7000000 		.4byte	0xe7
 887 01ca 01       		.byte	0x1
 888 01cb 54       		.byte	0x54
 889 01cc 17       		.uleb128 0x17
 890 01cd A8000000 		.4byte	0xa8
 891 01d1 10010000 		.4byte	.LBB4
 892 01d5 20010000 		.4byte	.LBE4
 893 01d9 01       		.byte	0x1
 894 01da 3A       		.byte	0x3a
 895 01db 0E       		.uleb128 0xe
 896 01dc C5000000 		.4byte	0xc5
 897 01e0 71010000 		.4byte	.LLST10
 898 01e4 0E       		.uleb128 0xe
 899 01e5 BA000000 		.4byte	0xba
 900 01e9 84010000 		.4byte	.LLST11
 901 01ed 18       		.uleb128 0x18
 902 01ee 10010000 		.4byte	.LBB5
 903 01f2 20010000 		.4byte	.LBE5
 904 01f6 0F       		.uleb128 0xf
 905 01f7 D0000000 		.4byte	0xd0
 906 01fb 01       		.byte	0x1
 907 01fc 54       		.byte	0x54
 908 01fd 10       		.uleb128 0x10
 909 01fe DB000000 		.4byte	0xdb
 910 0202 97010000 		.4byte	.LLST12
 911 0206 00       		.byte	0x0
 912 0207 00       		.byte	0x0
 913 0208 00       		.byte	0x0
 914 0209 11       		.uleb128 0x11
 915 020a 01       		.byte	0x1
 916 020b 19000000 		.4byte	.LASF14
 917 020f 01       		.byte	0x1
 918 0210 80       		.byte	0x80
 919 0211 01       		.byte	0x1
 920 0212 30010000 		.4byte	.LFB4
 921 0216 78010000 		.4byte	.LFE4
 922 021a BF010000 		.4byte	.LLST13
 923 021e 32020000 		.4byte	0x232
ARM GAS  C:\DOCUME~1\ADMINI~1\LOCALS~1\Temp\ccOl1E3i.s 			page 21


 924 0222 13       		.uleb128 0x13
 925 0223 83000000 		.4byte	.LASF9
 926 0227 01       		.byte	0x1
 927 0228 80       		.byte	0x80
 928 0229 E7000000 		.4byte	0xe7
 929 022d EB010000 		.4byte	.LLST14
 930 0231 00       		.byte	0x0
 931 0232 11       		.uleb128 0x11
 932 0233 01       		.byte	0x1
 933 0234 5C000000 		.4byte	.LASF15
 934 0238 01       		.byte	0x1
 935 0239 94       		.byte	0x94
 936 023a 01       		.byte	0x1
 937 023b 78010000 		.4byte	.LFB5
 938 023f B0010000 		.4byte	.LFE5
 939 0243 FE010000 		.4byte	.LLST15
 940 0247 5B020000 		.4byte	0x25b
 941 024b 13       		.uleb128 0x13
 942 024c 83000000 		.4byte	.LASF9
 943 0250 01       		.byte	0x1
 944 0251 94       		.byte	0x94
 945 0252 E7000000 		.4byte	0xe7
 946 0256 2A020000 		.4byte	.LLST16
 947 025a 00       		.byte	0x0
 948 025b 19       		.uleb128 0x19
 949 025c 01       		.byte	0x1
 950 025d 26010000 		.4byte	.LASF28
 951 0261 01       		.byte	0x1
 952 0262 13       		.byte	0x13
 953 0263 01       		.byte	0x1
 954 0264 5D000000 		.4byte	0x5d
 955 0268 B0010000 		.4byte	.LFB0
 956 026c F4010000 		.4byte	.LFE0
 957 0270 3D020000 		.4byte	.LLST17
 958 0274 1A       		.uleb128 0x1a
 959 0275 AC000000 		.4byte	.LASF16
 960 0279 01       		.byte	0x1
 961 027a 05       		.byte	0x5
 962 027b E7000000 		.4byte	0xe7
 963 027f 01       		.byte	0x1
 964 0280 01       		.byte	0x1
 965 0281 1A       		.uleb128 0x1a
 966 0282 99000000 		.4byte	.LASF17
 967 0286 01       		.byte	0x1
 968 0287 06       		.byte	0x6
 969 0288 3D000000 		.4byte	0x3d
 970 028c 01       		.byte	0x1
 971 028d 01       		.byte	0x1
 972 028e 1A       		.uleb128 0x1a
 973 028f 14010000 		.4byte	.LASF18
 974 0293 01       		.byte	0x1
 975 0294 07       		.byte	0x7
 976 0295 6F010000 		.4byte	0x16f
 977 0299 01       		.byte	0x1
 978 029a 01       		.byte	0x1
 979 029b 1A       		.uleb128 0x1a
 980 029c D2000000 		.4byte	.LASF19
ARM GAS  C:\DOCUME~1\ADMINI~1\LOCALS~1\Temp\ccOl1E3i.s 			page 22


 981 02a0 01       		.byte	0x1
 982 02a1 08       		.byte	0x8
 983 02a2 E7000000 		.4byte	0xe7
 984 02a6 01       		.byte	0x1
 985 02a7 01       		.byte	0x1
 986 02a8 1B       		.uleb128 0x1b
 987 02a9 25000000 		.4byte	0x25
 988 02ad B9020000 		.4byte	0x2b9
 989 02b1 1C       		.uleb128 0x1c
 990 02b2 48000000 		.4byte	0x48
 991 02b6 8F01     		.2byte	0x18f
 992 02b8 00       		.byte	0x0
 993 02b9 1A       		.uleb128 0x1a
 994 02ba EF000000 		.4byte	.LASF20
 995 02be 01       		.byte	0x1
 996 02bf 0A       		.byte	0xa
 997 02c0 A8020000 		.4byte	0x2a8
 998 02c4 01       		.byte	0x1
 999 02c5 01       		.byte	0x1
 1000 02c6 1D       		.uleb128 0x1d
 1001 02c7 AC000000 		.4byte	.LASF16
 1002 02cb 01       		.byte	0x1
 1003 02cc 05       		.byte	0x5
 1004 02cd E7000000 		.4byte	0xe7
 1005 02d1 01       		.byte	0x1
 1006 02d2 05       		.byte	0x5
 1007 02d3 03       		.byte	0x3
 1008 02d4 00000000 		.4byte	gpstrCurTcb
 1009 02d8 1D       		.uleb128 0x1d
 1010 02d9 99000000 		.4byte	.LASF17
 1011 02dd 01       		.byte	0x1
 1012 02de 06       		.byte	0x6
 1013 02df 3D000000 		.4byte	0x3d
 1014 02e3 01       		.byte	0x1
 1015 02e4 05       		.byte	0x5
 1016 02e5 03       		.byte	0x3
 1017 02e6 00000000 		.4byte	guiNextTaskSp
 1018 02ea 1D       		.uleb128 0x1d
 1019 02eb 14010000 		.4byte	.LASF18
 1020 02ef 01       		.byte	0x1
 1021 02f0 07       		.byte	0x7
 1022 02f1 6F010000 		.4byte	0x16f
 1023 02f5 01       		.byte	0x1
 1024 02f6 05       		.byte	0x5
 1025 02f7 03       		.byte	0x3
 1026 02f8 00000000 		.4byte	gpuiCurTaskSpAddr
 1027 02fc 1D       		.uleb128 0x1d
 1028 02fd D2000000 		.4byte	.LASF19
 1029 0301 01       		.byte	0x1
 1030 0302 08       		.byte	0x8
 1031 0303 E7000000 		.4byte	0xe7
 1032 0307 01       		.byte	0x1
 1033 0308 05       		.byte	0x5
 1034 0309 03       		.byte	0x3
 1035 030a 00000000 		.4byte	gpstrRootTaskTcb
 1036 030e 1D       		.uleb128 0x1d
 1037 030f EF000000 		.4byte	.LASF20
ARM GAS  C:\DOCUME~1\ADMINI~1\LOCALS~1\Temp\ccOl1E3i.s 			page 23


 1038 0313 01       		.byte	0x1
 1039 0314 0A       		.byte	0xa
 1040 0315 A8020000 		.4byte	0x2a8
 1041 0319 01       		.byte	0x1
 1042 031a 05       		.byte	0x5
 1043 031b 03       		.byte	0x3
 1044 031c 00000000 		.4byte	gaucRootTaskStack
 1045 0320 00       		.byte	0x0
 1046              		.section	.debug_abbrev
 1047 0000 01       		.uleb128 0x1
 1048 0001 11       		.uleb128 0x11
 1049 0002 01       		.byte	0x1
 1050 0003 25       		.uleb128 0x25
 1051 0004 0E       		.uleb128 0xe
 1052 0005 13       		.uleb128 0x13
 1053 0006 0B       		.uleb128 0xb
 1054 0007 03       		.uleb128 0x3
 1055 0008 0E       		.uleb128 0xe
 1056 0009 1B       		.uleb128 0x1b
 1057 000a 0E       		.uleb128 0xe
 1058 000b 11       		.uleb128 0x11
 1059 000c 01       		.uleb128 0x1
 1060 000d 12       		.uleb128 0x12
 1061 000e 01       		.uleb128 0x1
 1062 000f 10       		.uleb128 0x10
 1063 0010 06       		.uleb128 0x6
 1064 0011 00       		.byte	0x0
 1065 0012 00       		.byte	0x0
 1066 0013 02       		.uleb128 0x2
 1067 0014 16       		.uleb128 0x16
 1068 0015 00       		.byte	0x0
 1069 0016 03       		.uleb128 0x3
 1070 0017 08       		.uleb128 0x8
 1071 0018 3A       		.uleb128 0x3a
 1072 0019 0B       		.uleb128 0xb
 1073 001a 3B       		.uleb128 0x3b
 1074 001b 0B       		.uleb128 0xb
 1075 001c 49       		.uleb128 0x49
 1076 001d 13       		.uleb128 0x13
 1077 001e 00       		.byte	0x0
 1078 001f 00       		.byte	0x0
 1079 0020 03       		.uleb128 0x3
 1080 0021 24       		.uleb128 0x24
 1081 0022 00       		.byte	0x0
 1082 0023 0B       		.uleb128 0xb
 1083 0024 0B       		.uleb128 0xb
 1084 0025 3E       		.uleb128 0x3e
 1085 0026 0B       		.uleb128 0xb
 1086 0027 03       		.uleb128 0x3
 1087 0028 0E       		.uleb128 0xe
 1088 0029 00       		.byte	0x0
 1089 002a 00       		.byte	0x0
 1090 002b 04       		.uleb128 0x4
 1091 002c 24       		.uleb128 0x24
 1092 002d 00       		.byte	0x0
 1093 002e 0B       		.uleb128 0xb
 1094 002f 0B       		.uleb128 0xb
ARM GAS  C:\DOCUME~1\ADMINI~1\LOCALS~1\Temp\ccOl1E3i.s 			page 24


 1095 0030 3E       		.uleb128 0x3e
 1096 0031 0B       		.uleb128 0xb
 1097 0032 03       		.uleb128 0x3
 1098 0033 08       		.uleb128 0x8
 1099 0034 00       		.byte	0x0
 1100 0035 00       		.byte	0x0
 1101 0036 05       		.uleb128 0x5
 1102 0037 16       		.uleb128 0x16
 1103 0038 00       		.byte	0x0
 1104 0039 03       		.uleb128 0x3
 1105 003a 0E       		.uleb128 0xe
 1106 003b 3A       		.uleb128 0x3a
 1107 003c 0B       		.uleb128 0xb
 1108 003d 3B       		.uleb128 0x3b
 1109 003e 0B       		.uleb128 0xb
 1110 003f 49       		.uleb128 0x49
 1111 0040 13       		.uleb128 0x13
 1112 0041 00       		.byte	0x0
 1113 0042 00       		.byte	0x0
 1114 0043 06       		.uleb128 0x6
 1115 0044 0F       		.uleb128 0xf
 1116 0045 00       		.byte	0x0
 1117 0046 0B       		.uleb128 0xb
 1118 0047 0B       		.uleb128 0xb
 1119 0048 49       		.uleb128 0x49
 1120 0049 13       		.uleb128 0x13
 1121 004a 00       		.byte	0x0
 1122 004b 00       		.byte	0x0
 1123 004c 07       		.uleb128 0x7
 1124 004d 15       		.uleb128 0x15
 1125 004e 00       		.byte	0x0
 1126 004f 27       		.uleb128 0x27
 1127 0050 0C       		.uleb128 0xc
 1128 0051 00       		.byte	0x0
 1129 0052 00       		.byte	0x0
 1130 0053 08       		.uleb128 0x8
 1131 0054 13       		.uleb128 0x13
 1132 0055 01       		.byte	0x1
 1133 0056 03       		.uleb128 0x3
 1134 0057 0E       		.uleb128 0xe
 1135 0058 0B       		.uleb128 0xb
 1136 0059 0B       		.uleb128 0xb
 1137 005a 3A       		.uleb128 0x3a
 1138 005b 0B       		.uleb128 0xb
 1139 005c 3B       		.uleb128 0x3b
 1140 005d 0B       		.uleb128 0xb
 1141 005e 01       		.uleb128 0x1
 1142 005f 13       		.uleb128 0x13
 1143 0060 00       		.byte	0x0
 1144 0061 00       		.byte	0x0
 1145 0062 09       		.uleb128 0x9
 1146 0063 0D       		.uleb128 0xd
 1147 0064 00       		.byte	0x0
 1148 0065 03       		.uleb128 0x3
 1149 0066 0E       		.uleb128 0xe
 1150 0067 3A       		.uleb128 0x3a
 1151 0068 0B       		.uleb128 0xb
ARM GAS  C:\DOCUME~1\ADMINI~1\LOCALS~1\Temp\ccOl1E3i.s 			page 25


 1152 0069 3B       		.uleb128 0x3b
 1153 006a 0B       		.uleb128 0xb
 1154 006b 49       		.uleb128 0x49
 1155 006c 13       		.uleb128 0x13
 1156 006d 38       		.uleb128 0x38
 1157 006e 0A       		.uleb128 0xa
 1158 006f 00       		.byte	0x0
 1159 0070 00       		.byte	0x0
 1160 0071 0A       		.uleb128 0xa
 1161 0072 2E       		.uleb128 0x2e
 1162 0073 01       		.byte	0x1
 1163 0074 3F       		.uleb128 0x3f
 1164 0075 0C       		.uleb128 0xc
 1165 0076 03       		.uleb128 0x3
 1166 0077 0E       		.uleb128 0xe
 1167 0078 3A       		.uleb128 0x3a
 1168 0079 0B       		.uleb128 0xb
 1169 007a 3B       		.uleb128 0x3b
 1170 007b 0B       		.uleb128 0xb
 1171 007c 27       		.uleb128 0x27
 1172 007d 0C       		.uleb128 0xc
 1173 007e 49       		.uleb128 0x49
 1174 007f 13       		.uleb128 0x13
 1175 0080 20       		.uleb128 0x20
 1176 0081 0B       		.uleb128 0xb
 1177 0082 01       		.uleb128 0x1
 1178 0083 13       		.uleb128 0x13
 1179 0084 00       		.byte	0x0
 1180 0085 00       		.byte	0x0
 1181 0086 0B       		.uleb128 0xb
 1182 0087 05       		.uleb128 0x5
 1183 0088 00       		.byte	0x0
 1184 0089 03       		.uleb128 0x3
 1185 008a 0E       		.uleb128 0xe
 1186 008b 3A       		.uleb128 0x3a
 1187 008c 0B       		.uleb128 0xb
 1188 008d 3B       		.uleb128 0x3b
 1189 008e 0B       		.uleb128 0xb
 1190 008f 49       		.uleb128 0x49
 1191 0090 13       		.uleb128 0x13
 1192 0091 00       		.byte	0x0
 1193 0092 00       		.byte	0x0
 1194 0093 0C       		.uleb128 0xc
 1195 0094 34       		.uleb128 0x34
 1196 0095 00       		.byte	0x0
 1197 0096 03       		.uleb128 0x3
 1198 0097 0E       		.uleb128 0xe
 1199 0098 3A       		.uleb128 0x3a
 1200 0099 0B       		.uleb128 0xb
 1201 009a 3B       		.uleb128 0x3b
 1202 009b 0B       		.uleb128 0xb
 1203 009c 49       		.uleb128 0x49
 1204 009d 13       		.uleb128 0x13
 1205 009e 00       		.byte	0x0
 1206 009f 00       		.byte	0x0
 1207 00a0 0D       		.uleb128 0xd
 1208 00a1 2E       		.uleb128 0x2e
ARM GAS  C:\DOCUME~1\ADMINI~1\LOCALS~1\Temp\ccOl1E3i.s 			page 26


 1209 00a2 01       		.byte	0x1
 1210 00a3 31       		.uleb128 0x31
 1211 00a4 13       		.uleb128 0x13
 1212 00a5 11       		.uleb128 0x11
 1213 00a6 01       		.uleb128 0x1
 1214 00a7 12       		.uleb128 0x12
 1215 00a8 01       		.uleb128 0x1
 1216 00a9 40       		.uleb128 0x40
 1217 00aa 0A       		.uleb128 0xa
 1218 00ab 01       		.uleb128 0x1
 1219 00ac 13       		.uleb128 0x13
 1220 00ad 00       		.byte	0x0
 1221 00ae 00       		.byte	0x0
 1222 00af 0E       		.uleb128 0xe
 1223 00b0 05       		.uleb128 0x5
 1224 00b1 00       		.byte	0x0
 1225 00b2 31       		.uleb128 0x31
 1226 00b3 13       		.uleb128 0x13
 1227 00b4 02       		.uleb128 0x2
 1228 00b5 06       		.uleb128 0x6
 1229 00b6 00       		.byte	0x0
 1230 00b7 00       		.byte	0x0
 1231 00b8 0F       		.uleb128 0xf
 1232 00b9 34       		.uleb128 0x34
 1233 00ba 00       		.byte	0x0
 1234 00bb 31       		.uleb128 0x31
 1235 00bc 13       		.uleb128 0x13
 1236 00bd 02       		.uleb128 0x2
 1237 00be 0A       		.uleb128 0xa
 1238 00bf 00       		.byte	0x0
 1239 00c0 00       		.byte	0x0
 1240 00c1 10       		.uleb128 0x10
 1241 00c2 34       		.uleb128 0x34
 1242 00c3 00       		.byte	0x0
 1243 00c4 31       		.uleb128 0x31
 1244 00c5 13       		.uleb128 0x13
 1245 00c6 02       		.uleb128 0x2
 1246 00c7 06       		.uleb128 0x6
 1247 00c8 00       		.byte	0x0
 1248 00c9 00       		.byte	0x0
 1249 00ca 11       		.uleb128 0x11
 1250 00cb 2E       		.uleb128 0x2e
 1251 00cc 01       		.byte	0x1
 1252 00cd 3F       		.uleb128 0x3f
 1253 00ce 0C       		.uleb128 0xc
 1254 00cf 03       		.uleb128 0x3
 1255 00d0 0E       		.uleb128 0xe
 1256 00d1 3A       		.uleb128 0x3a
 1257 00d2 0B       		.uleb128 0xb
 1258 00d3 3B       		.uleb128 0x3b
 1259 00d4 0B       		.uleb128 0xb
 1260 00d5 27       		.uleb128 0x27
 1261 00d6 0C       		.uleb128 0xc
 1262 00d7 11       		.uleb128 0x11
 1263 00d8 01       		.uleb128 0x1
 1264 00d9 12       		.uleb128 0x12
 1265 00da 01       		.uleb128 0x1
ARM GAS  C:\DOCUME~1\ADMINI~1\LOCALS~1\Temp\ccOl1E3i.s 			page 27


 1266 00db 40       		.uleb128 0x40
 1267 00dc 06       		.uleb128 0x6
 1268 00dd 01       		.uleb128 0x1
 1269 00de 13       		.uleb128 0x13
 1270 00df 00       		.byte	0x0
 1271 00e0 00       		.byte	0x0
 1272 00e1 12       		.uleb128 0x12
 1273 00e2 05       		.uleb128 0x5
 1274 00e3 00       		.byte	0x0
 1275 00e4 03       		.uleb128 0x3
 1276 00e5 0E       		.uleb128 0xe
 1277 00e6 3A       		.uleb128 0x3a
 1278 00e7 0B       		.uleb128 0xb
 1279 00e8 3B       		.uleb128 0x3b
 1280 00e9 0B       		.uleb128 0xb
 1281 00ea 49       		.uleb128 0x49
 1282 00eb 13       		.uleb128 0x13
 1283 00ec 02       		.uleb128 0x2
 1284 00ed 0A       		.uleb128 0xa
 1285 00ee 00       		.byte	0x0
 1286 00ef 00       		.byte	0x0
 1287 00f0 13       		.uleb128 0x13
 1288 00f1 05       		.uleb128 0x5
 1289 00f2 00       		.byte	0x0
 1290 00f3 03       		.uleb128 0x3
 1291 00f4 0E       		.uleb128 0xe
 1292 00f5 3A       		.uleb128 0x3a
 1293 00f6 0B       		.uleb128 0xb
 1294 00f7 3B       		.uleb128 0x3b
 1295 00f8 0B       		.uleb128 0xb
 1296 00f9 49       		.uleb128 0x49
 1297 00fa 13       		.uleb128 0x13
 1298 00fb 02       		.uleb128 0x2
 1299 00fc 06       		.uleb128 0x6
 1300 00fd 00       		.byte	0x0
 1301 00fe 00       		.byte	0x0
 1302 00ff 14       		.uleb128 0x14
 1303 0100 34       		.uleb128 0x34
 1304 0101 00       		.byte	0x0
 1305 0102 03       		.uleb128 0x3
 1306 0103 0E       		.uleb128 0xe
 1307 0104 3A       		.uleb128 0x3a
 1308 0105 0B       		.uleb128 0xb
 1309 0106 3B       		.uleb128 0x3b
 1310 0107 0B       		.uleb128 0xb
 1311 0108 49       		.uleb128 0x49
 1312 0109 13       		.uleb128 0x13
 1313 010a 02       		.uleb128 0x2
 1314 010b 06       		.uleb128 0x6
 1315 010c 00       		.byte	0x0
 1316 010d 00       		.byte	0x0
 1317 010e 15       		.uleb128 0x15
 1318 010f 2E       		.uleb128 0x2e
 1319 0110 01       		.byte	0x1
 1320 0111 3F       		.uleb128 0x3f
 1321 0112 0C       		.uleb128 0xc
 1322 0113 03       		.uleb128 0x3
ARM GAS  C:\DOCUME~1\ADMINI~1\LOCALS~1\Temp\ccOl1E3i.s 			page 28


 1323 0114 0E       		.uleb128 0xe
 1324 0115 3A       		.uleb128 0x3a
 1325 0116 0B       		.uleb128 0xb
 1326 0117 3B       		.uleb128 0x3b
 1327 0118 0B       		.uleb128 0xb
 1328 0119 27       		.uleb128 0x27
 1329 011a 0C       		.uleb128 0xc
 1330 011b 49       		.uleb128 0x49
 1331 011c 13       		.uleb128 0x13
 1332 011d 11       		.uleb128 0x11
 1333 011e 01       		.uleb128 0x1
 1334 011f 12       		.uleb128 0x12
 1335 0120 01       		.uleb128 0x1
 1336 0121 40       		.uleb128 0x40
 1337 0122 06       		.uleb128 0x6
 1338 0123 01       		.uleb128 0x1
 1339 0124 13       		.uleb128 0x13
 1340 0125 00       		.byte	0x0
 1341 0126 00       		.byte	0x0
 1342 0127 16       		.uleb128 0x16
 1343 0128 34       		.uleb128 0x34
 1344 0129 00       		.byte	0x0
 1345 012a 03       		.uleb128 0x3
 1346 012b 0E       		.uleb128 0xe
 1347 012c 3A       		.uleb128 0x3a
 1348 012d 0B       		.uleb128 0xb
 1349 012e 3B       		.uleb128 0x3b
 1350 012f 0B       		.uleb128 0xb
 1351 0130 49       		.uleb128 0x49
 1352 0131 13       		.uleb128 0x13
 1353 0132 02       		.uleb128 0x2
 1354 0133 0A       		.uleb128 0xa
 1355 0134 00       		.byte	0x0
 1356 0135 00       		.byte	0x0
 1357 0136 17       		.uleb128 0x17
 1358 0137 1D       		.uleb128 0x1d
 1359 0138 01       		.byte	0x1
 1360 0139 31       		.uleb128 0x31
 1361 013a 13       		.uleb128 0x13
 1362 013b 11       		.uleb128 0x11
 1363 013c 01       		.uleb128 0x1
 1364 013d 12       		.uleb128 0x12
 1365 013e 01       		.uleb128 0x1
 1366 013f 58       		.uleb128 0x58
 1367 0140 0B       		.uleb128 0xb
 1368 0141 59       		.uleb128 0x59
 1369 0142 0B       		.uleb128 0xb
 1370 0143 00       		.byte	0x0
 1371 0144 00       		.byte	0x0
 1372 0145 18       		.uleb128 0x18
 1373 0146 0B       		.uleb128 0xb
 1374 0147 01       		.byte	0x1
 1375 0148 11       		.uleb128 0x11
 1376 0149 01       		.uleb128 0x1
 1377 014a 12       		.uleb128 0x12
 1378 014b 01       		.uleb128 0x1
 1379 014c 00       		.byte	0x0
ARM GAS  C:\DOCUME~1\ADMINI~1\LOCALS~1\Temp\ccOl1E3i.s 			page 29


 1380 014d 00       		.byte	0x0
 1381 014e 19       		.uleb128 0x19
 1382 014f 2E       		.uleb128 0x2e
 1383 0150 00       		.byte	0x0
 1384 0151 3F       		.uleb128 0x3f
 1385 0152 0C       		.uleb128 0xc
 1386 0153 03       		.uleb128 0x3
 1387 0154 0E       		.uleb128 0xe
 1388 0155 3A       		.uleb128 0x3a
 1389 0156 0B       		.uleb128 0xb
 1390 0157 3B       		.uleb128 0x3b
 1391 0158 0B       		.uleb128 0xb
 1392 0159 27       		.uleb128 0x27
 1393 015a 0C       		.uleb128 0xc
 1394 015b 49       		.uleb128 0x49
 1395 015c 13       		.uleb128 0x13
 1396 015d 11       		.uleb128 0x11
 1397 015e 01       		.uleb128 0x1
 1398 015f 12       		.uleb128 0x12
 1399 0160 01       		.uleb128 0x1
 1400 0161 40       		.uleb128 0x40
 1401 0162 06       		.uleb128 0x6
 1402 0163 00       		.byte	0x0
 1403 0164 00       		.byte	0x0
 1404 0165 1A       		.uleb128 0x1a
 1405 0166 34       		.uleb128 0x34
 1406 0167 00       		.byte	0x0
 1407 0168 03       		.uleb128 0x3
 1408 0169 0E       		.uleb128 0xe
 1409 016a 3A       		.uleb128 0x3a
 1410 016b 0B       		.uleb128 0xb
 1411 016c 3B       		.uleb128 0x3b
 1412 016d 0B       		.uleb128 0xb
 1413 016e 49       		.uleb128 0x49
 1414 016f 13       		.uleb128 0x13
 1415 0170 3F       		.uleb128 0x3f
 1416 0171 0C       		.uleb128 0xc
 1417 0172 3C       		.uleb128 0x3c
 1418 0173 0C       		.uleb128 0xc
 1419 0174 00       		.byte	0x0
 1420 0175 00       		.byte	0x0
 1421 0176 1B       		.uleb128 0x1b
 1422 0177 01       		.uleb128 0x1
 1423 0178 01       		.byte	0x1
 1424 0179 49       		.uleb128 0x49
 1425 017a 13       		.uleb128 0x13
 1426 017b 01       		.uleb128 0x1
 1427 017c 13       		.uleb128 0x13
 1428 017d 00       		.byte	0x0
 1429 017e 00       		.byte	0x0
 1430 017f 1C       		.uleb128 0x1c
 1431 0180 21       		.uleb128 0x21
 1432 0181 00       		.byte	0x0
 1433 0182 49       		.uleb128 0x49
 1434 0183 13       		.uleb128 0x13
 1435 0184 2F       		.uleb128 0x2f
 1436 0185 05       		.uleb128 0x5
ARM GAS  C:\DOCUME~1\ADMINI~1\LOCALS~1\Temp\ccOl1E3i.s 			page 30


 1437 0186 00       		.byte	0x0
 1438 0187 00       		.byte	0x0
 1439 0188 1D       		.uleb128 0x1d
 1440 0189 34       		.uleb128 0x34
 1441 018a 00       		.byte	0x0
 1442 018b 03       		.uleb128 0x3
 1443 018c 0E       		.uleb128 0xe
 1444 018d 3A       		.uleb128 0x3a
 1445 018e 0B       		.uleb128 0xb
 1446 018f 3B       		.uleb128 0x3b
 1447 0190 0B       		.uleb128 0xb
 1448 0191 49       		.uleb128 0x49
 1449 0192 13       		.uleb128 0x13
 1450 0193 3F       		.uleb128 0x3f
 1451 0194 0C       		.uleb128 0xc
 1452 0195 02       		.uleb128 0x2
 1453 0196 0A       		.uleb128 0xa
 1454 0197 00       		.byte	0x0
 1455 0198 00       		.byte	0x0
 1456 0199 00       		.byte	0x0
 1457              		.section	.debug_pubnames,"",%progbits
 1458 0000 DC000000 		.4byte	0xdc
 1459 0004 0200     		.2byte	0x2
 1460 0006 00000000 		.4byte	.Ldebug_info0
 1461 000a 21030000 		.4byte	0x321
 1462 000e F3000000 		.4byte	0xf3
 1463 0012 574C585F 		.ascii	"WLX_TaskTcbInit\000"
 1463      5461736B 
 1463      54636249 
 1463      6E697400 
 1464 0022 2A010000 		.4byte	0x12a
 1465 0026 574C585F 		.ascii	"WLX_TaskStackInit\000"
 1465      5461736B 
 1465      53746163 
 1465      6B496E69 
 1465      7400
 1466 0038 75010000 		.4byte	0x175
 1467 003c 574C585F 		.ascii	"WLX_TaskCreate\000"
 1467      5461736B 
 1467      43726561 
 1467      746500
 1468 004b 09020000 		.4byte	0x209
 1469 004f 574C585F 		.ascii	"WLX_TaskSwitch\000"
 1469      5461736B 
 1469      53776974 
 1469      636800
 1470 005e 32020000 		.4byte	0x232
 1471 0062 574C585F 		.ascii	"WLX_TaskStart\000"
 1471      5461736B 
 1471      53746172 
 1471      7400
 1472 0070 5B020000 		.4byte	0x25b
 1473 0074 6D61696E 		.ascii	"main\000"
 1473      00
 1474 0079 C6020000 		.4byte	0x2c6
 1475 007d 67707374 		.ascii	"gpstrCurTcb\000"
 1475      72437572 
ARM GAS  C:\DOCUME~1\ADMINI~1\LOCALS~1\Temp\ccOl1E3i.s 			page 31


 1475      54636200 
 1476 0089 D8020000 		.4byte	0x2d8
 1477 008d 6775694E 		.ascii	"guiNextTaskSp\000"
 1477      65787454 
 1477      61736B53 
 1477      7000
 1478 009b EA020000 		.4byte	0x2ea
 1479 009f 67707569 		.ascii	"gpuiCurTaskSpAddr\000"
 1479      43757254 
 1479      61736B53 
 1479      70416464 
 1479      7200
 1480 00b1 FC020000 		.4byte	0x2fc
 1481 00b5 67707374 		.ascii	"gpstrRootTaskTcb\000"
 1481      72526F6F 
 1481      74546173 
 1481      6B546362 
 1481      00
 1482 00c6 0E030000 		.4byte	0x30e
 1483 00ca 67617563 		.ascii	"gaucRootTaskStack\000"
 1483      526F6F74 
 1483      5461736B 
 1483      53746163 
 1483      6B00
 1484 00dc 00000000 		.4byte	0x0
 1485              		.section	.debug_pubtypes,"",%progbits
 1486 0000 43000000 		.4byte	0x43
 1487 0004 0200     		.2byte	0x2
 1488 0006 00000000 		.4byte	.Ldebug_info0
 1489 000a 21030000 		.4byte	0x321
 1490 000e 25000000 		.4byte	0x25
 1491 0012 553800   		.ascii	"U8\000"
 1492 0015 3D000000 		.4byte	0x3d
 1493 0019 55333200 		.ascii	"U32\000"
 1494 001d 5D000000 		.4byte	0x5d
 1495 0021 53333200 		.ascii	"S32\000"
 1496 0025 6F000000 		.4byte	0x6f
 1497 0029 5646554E 		.ascii	"VFUNC\000"
 1497      4300
 1498 002f 82000000 		.4byte	0x82
 1499 0033 775F7463 		.ascii	"w_tcb\000"
 1499      6200
 1500 0039 9D000000 		.4byte	0x9d
 1501 003d 575F5443 		.ascii	"W_TCB\000"
 1501      4200
 1502 0043 00000000 		.4byte	0x0
 1503              		.section	.debug_aranges,"",%progbits
 1504 0000 1C000000 		.4byte	0x1c
 1505 0004 0200     		.2byte	0x2
 1506 0006 00000000 		.4byte	.Ldebug_info0
 1507 000a 04       		.byte	0x4
 1508 000b 00       		.byte	0x0
 1509 000c 0000     		.2byte	0x0
 1510 000e 0000     		.2byte	0x0
 1511 0010 00000000 		.4byte	.Ltext0
 1512 0014 F4010000 		.4byte	.Letext0-.Ltext0
 1513 0018 00000000 		.4byte	0x0
ARM GAS  C:\DOCUME~1\ADMINI~1\LOCALS~1\Temp\ccOl1E3i.s 			page 32


 1514 001c 00000000 		.4byte	0x0
 1515              		.section	.debug_str,"MS",%progbits,1
 1516              	.LASF21:
 1517 0000 474E5520 		.ascii	"GNU C 4.5.2\000"
 1517      4320342E 
 1517      352E3200 
 1518              	.LASF2:
 1519 000c 756E7369 		.ascii	"unsigned int\000"
 1519      676E6564 
 1519      20696E74 
 1519      00
 1520              	.LASF14:
 1521 0019 574C585F 		.ascii	"WLX_TaskSwitch\000"
 1521      5461736B 
 1521      53776974 
 1521      636800
 1522              	.LASF23:
 1523 0028 463A5C77 		.ascii	"F:\\workdir\\RTOS_Wanlix\\project\000"
 1523      6F726B64 
 1523      69725C52 
 1523      544F535F 
 1523      57616E6C 
 1524              	.LASF27:
 1525 0047 574C585F 		.ascii	"WLX_TaskCreate\000"
 1525      5461736B 
 1525      43726561 
 1525      746500
 1526              	.LASF12:
 1527 0056 70756953 		.ascii	"puiSp\000"
 1527      7000
 1528              	.LASF15:
 1529 005c 574C585F 		.ascii	"WLX_TaskStart\000"
 1529      5461736B 
 1529      53746172 
 1529      7400
 1530              	.LASF7:
 1531 006a 70756354 		.ascii	"pucTaskStack\000"
 1531      61736B53 
 1531      7461636B 
 1531      00
 1532              	.LASF5:
 1533 0077 5646554E 		.ascii	"VFUNC\000"
 1533      4300
 1534              	.LASF6:
 1535 007d 575F5443 		.ascii	"W_TCB\000"
 1535      4200
 1536              	.LASF9:
 1537 0083 70737472 		.ascii	"pstrTcb\000"
 1537      54636200 
 1538              	.LASF0:
 1539 008b 756E7369 		.ascii	"unsigned char\000"
 1539      676E6564 
 1539      20636861 
 1539      7200
 1540              	.LASF17:
 1541 0099 6775694E 		.ascii	"guiNextTaskSp\000"
 1541      65787454 
ARM GAS  C:\DOCUME~1\ADMINI~1\LOCALS~1\Temp\ccOl1E3i.s 			page 33


 1541      61736B53 
 1541      7000
 1542              	.LASF3:
 1543 00a7 63686172 		.ascii	"char\000"
 1543      00
 1544              	.LASF16:
 1545 00ac 67707374 		.ascii	"gpstrCurTcb\000"
 1545      72437572 
 1545      54636200 
 1546              	.LASF11:
 1547 00b8 76664675 		.ascii	"vfFuncPointer\000"
 1547      6E63506F 
 1547      696E7465 
 1547      7200
 1548              	.LASF10:
 1549 00c6 70756353 		.ascii	"pucStackBy4\000"
 1549      7461636B 
 1549      42793400 
 1550              	.LASF19:
 1551 00d2 67707374 		.ascii	"gpstrRootTaskTcb\000"
 1551      72526F6F 
 1551      74546173 
 1551      6B546362 
 1551      00
 1552              	.LASF25:
 1553 00e3 75695461 		.ascii	"uiTaskCurSp\000"
 1553      736B4375 
 1553      72537000 
 1554              	.LASF20:
 1555 00ef 67617563 		.ascii	"gaucRootTaskStack\000"
 1555      526F6F74 
 1555      5461736B 
 1555      53746163 
 1555      6B00
 1556              	.LASF1:
 1557 0101 73686F72 		.ascii	"short unsigned int\000"
 1557      7420756E 
 1557      7369676E 
 1557      65642069 
 1557      6E7400
 1558              	.LASF18:
 1559 0114 67707569 		.ascii	"gpuiCurTaskSpAddr\000"
 1559      43757254 
 1559      61736B53 
 1559      70416464 
 1559      7200
 1560              	.LASF28:
 1561 0126 6D61696E 		.ascii	"main\000"
 1561      00
 1562              	.LASF13:
 1563 012b 574C585F 		.ascii	"WLX_TaskStackInit\000"
 1563      5461736B 
 1563      53746163 
 1563      6B496E69 
 1563      7400
 1564              	.LASF22:
 1565 013d 2E2E2F77 		.ascii	"../wanlix/wlx_core_c.c\000"
ARM GAS  C:\DOCUME~1\ADMINI~1\LOCALS~1\Temp\ccOl1E3i.s 			page 34


 1565      616E6C69 
 1565      782F776C 
 1565      785F636F 
 1565      72655F63 
 1566              	.LASF8:
 1567 0154 75695374 		.ascii	"uiStackSize\000"
 1567      61636B53 
 1567      697A6500 
 1568              	.LASF4:
 1569 0160 73686F72 		.ascii	"short int\000"
 1569      7420696E 
 1569      7400
 1570              	.LASF24:
 1571 016a 775F7463 		.ascii	"w_tcb\000"
 1571      6200
 1572              	.LASF26:
 1573 0170 574C585F 		.ascii	"WLX_TaskTcbInit\000"
 1573      5461736B 
 1573      54636249 
 1573      6E697400 
 1574              		.ident	"GCC: (Sourcery G++ Lite 2011.03-41) 4.5.2"
 1575              		.section	.note.GNU-stack,"",%progbits
ARM GAS  C:\DOCUME~1\ADMINI~1\LOCALS~1\Temp\ccOl1E3i.s 			page 35


DEFINED SYMBOLS
                            *ABS*:00000000 wlx_core_c.c
C:\DOCUME~1\ADMINI~1\LOCALS~1\Temp\ccOl1E3i.s:21     .text:00000000 $a
C:\DOCUME~1\ADMINI~1\LOCALS~1\Temp\ccOl1E3i.s:24     .text:00000000 WLX_TaskTcbInit
                       .ARM.exidx:00000000 $d
C:\DOCUME~1\ADMINI~1\LOCALS~1\Temp\ccOl1E3i.s:54     .text:00000014 WLX_TaskStackInit
C:\DOCUME~1\ADMINI~1\LOCALS~1\Temp\ccOl1E3i.s:181    .text:000000d8 WLX_TaskCreate
                       .ARM.extab:00000000 $d
C:\DOCUME~1\ADMINI~1\LOCALS~1\Temp\ccOl1E3i.s:258    .text:00000130 WLX_TaskSwitch
C:\DOCUME~1\ADMINI~1\LOCALS~1\Temp\ccOl1E3i.s:308    .text:0000016c $d
                            *COM*:00000004 gpstrCurTcb
                            *COM*:00000004 gpuiCurTaskSpAddr
                            *COM*:00000004 guiNextTaskSp
C:\DOCUME~1\ADMINI~1\LOCALS~1\Temp\ccOl1E3i.s:315    .text:00000178 $a
C:\DOCUME~1\ADMINI~1\LOCALS~1\Temp\ccOl1E3i.s:318    .text:00000178 WLX_TaskStart
C:\DOCUME~1\ADMINI~1\LOCALS~1\Temp\ccOl1E3i.s:361    .text:000001a8 $d
C:\DOCUME~1\ADMINI~1\LOCALS~1\Temp\ccOl1E3i.s:367    .text:000001b0 $a
C:\DOCUME~1\ADMINI~1\LOCALS~1\Temp\ccOl1E3i.s:370    .text:000001b0 main
C:\DOCUME~1\ADMINI~1\LOCALS~1\Temp\ccOl1E3i.s:411    .text:000001e8 $d
                            *COM*:00000190 gaucRootTaskStack
                            *COM*:00000004 gpstrRootTaskTcb
                     .debug_frame:00000010 $d

UNDEFINED SYMBOLS
__aeabi_unwind_cpp_pr0
__aeabi_unwind_cpp_pr1
WLX_ContextSwitch
WLX_SwitchToTask
WLX_RootTask
