ARM GAS  C:\DOCUME~1\ADMINI~1\LOCALS~1\Temp\ccaE8mhc.s 			page 1


   1              		.cpu arm7tdmi
   2              		.fpu softvfp
   3              		.eabi_attribute 20, 1
   4              		.eabi_attribute 21, 1
   5              		.eabi_attribute 23, 3
   6              		.eabi_attribute 24, 1
   7              		.eabi_attribute 25, 1
   8              		.eabi_attribute 26, 2
   9              		.eabi_attribute 30, 2
  10              		.eabi_attribute 18, 4
  11              		.file	"test.c"
  18 0000 81000000 		.text
  18      02003E00 
  18      00000201 
  18      FB0E0D00 
  18      01010101 
  19              	.Ltext0:
  20              		.cfi_sections	.debug_frame
  21              		.align	2
  22              		.global	TEST_TestTask2
  23              		.type	TEST_TestTask2, %function
  24              	TEST_TestTask2:
  25              		.fnstart
  26              	.LFB2:
  27              		.file 1 "../srccode/test.c"
   1:../srccode/test.c **** 
   2:../srccode/test.c **** #include "test.h"
   3:../srccode/test.c **** 
   4:../srccode/test.c **** U32 gauiTask1Stack[TASKSTACK];      /* 任务1的堆栈 */
   5:../srccode/test.c **** U32 gauiTask2Stack[TASKSTACK];      /* 任务2的堆栈 */
   6:../srccode/test.c **** 
   7:../srccode/test.c **** 
   8:../srccode/test.c **** /***********************************************************************************
   9:../srccode/test.c **** 函数功能: 主函数, C程序从此函数开始运行. 该函数创建系统任务并从非任务状态切换到任务
  10:../srccode/test.c ****           状态运行.
  11:../srccode/test.c **** 入口参数: none.
  12:../srccode/test.c **** 返 回 值: none.
  13:../srccode/test.c **** ***********************************************************************************/
  14:../srccode/test.c **** S32 main(void)
  15:../srccode/test.c **** {
  16:../srccode/test.c ****     /* 初始化硬件 */
  17:../srccode/test.c ****     DEV_HardwareInit();
  18:../srccode/test.c **** 
  19:../srccode/test.c ****     /* 创建任务 */
  20:../srccode/test.c ****     WLX_TaskInit(1, TEST_TestTask1, TEST_GetTaskInitSp(1));
  21:../srccode/test.c ****     WLX_TaskInit(2, TEST_TestTask2, TEST_GetTaskInitSp(2));
  22:../srccode/test.c **** 
  23:../srccode/test.c ****     /* 开始任务调度 */
  24:../srccode/test.c ****     WLX_TaskStart();
  25:../srccode/test.c **** 
  26:../srccode/test.c ****     return 0;
ARM GAS  C:\DOCUME~1\ADMINI~1\LOCALS~1\Temp\ccaE8mhc.s 			page 2


  27:../srccode/test.c **** }
  28:../srccode/test.c **** 
  29:../srccode/test.c **** /***********************************************************************************
  30:../srccode/test.c **** 函数功能: 测试任务切换函数1, 向串口打印字符串.
  31:../srccode/test.c **** 入口参数: none.
  32:../srccode/test.c **** 返 回 值: none.
  33:../srccode/test.c **** ***********************************************************************************/
  34:../srccode/test.c **** void TEST_TestTask1(void)
  35:../srccode/test.c **** {
  36:../srccode/test.c ****     while(1)
  37:../srccode/test.c ****     {
  38:../srccode/test.c ****         DEV_PutString((U8*)"\r\nTask1 is running!");
  39:../srccode/test.c **** 
  40:../srccode/test.c ****         DEV_DelayMs(1000);      /* 延迟1s */
  41:../srccode/test.c **** 
  42:../srccode/test.c ****         WLX_TaskSwitch();       /* 任务切换 */
  43:../srccode/test.c ****     }
  44:../srccode/test.c **** }
  45:../srccode/test.c **** 
  46:../srccode/test.c **** /***********************************************************************************
  47:../srccode/test.c **** 函数功能: 测试任务切换函数2, 向串口打印字符串.
  48:../srccode/test.c **** 入口参数: none.
  49:../srccode/test.c **** 返 回 值: none.
  50:../srccode/test.c **** ***********************************************************************************/
  51:../srccode/test.c **** void TEST_TestTask2(void)
  52:../srccode/test.c **** {
  28              		.loc 1 52 0
  29              		.cfi_startproc
  30              		@ Function supports interworking.
  31              		@ args = 0, pretend = 0, frame = 0
  32              		@ frame_needed = 1, uses_anonymous_args = 0
  33              		.movsp ip
  34 0000 0DC0A0E1 		mov	ip, sp
  35              	.LCFI0:
  36              		.cfi_def_cfa_register 12
  37 0004 00D82DE9 		stmfd	sp!, {fp, ip, lr, pc}
  38              		.pad #4
  39              		.save {fp, ip, lr}
  40              		.setfp fp, ip, #-4
  41 0008 04B04CE2 		sub	fp, ip, #4
  42              		.cfi_offset 14, -8
  43              		.cfi_offset 13, -12
  44              		.cfi_offset 11, -16
  45              	.LCFI1:
  46              		.cfi_def_cfa 11, 4
  47              	.L2:
  53:../srccode/test.c ****     while(1)
  54:../srccode/test.c ****     {
  55:../srccode/test.c ****         DEV_PutString((U8*)"\r\nTask2 is running!");
  48              		.loc 1 55 0 discriminator 1
  49 000c 10009FE5 		ldr	r0, .L4
  50 0010 FEFFFFEB 		bl	DEV_PutString
  56:../srccode/test.c **** 
  57:../srccode/test.c ****         DEV_DelayMs(2000);      /* 延迟2s */
  51              		.loc 1 57 0 discriminator 1
  52 0014 7D0EA0E3 		mov	r0, #2000
  53 0018 FEFFFFEB 		bl	DEV_DelayMs
ARM GAS  C:\DOCUME~1\ADMINI~1\LOCALS~1\Temp\ccaE8mhc.s 			page 3


  58:../srccode/test.c **** 
  59:../srccode/test.c ****         WLX_TaskSwitch();       /* 任务切换 */
  54              		.loc 1 59 0 discriminator 1
  55 001c FEFFFFEB 		bl	WLX_TaskSwitch
  56 0020 F9FFFFEA 		b	.L2
  57              	.L5:
  58              		.align	2
  59              	.L4:
  60 0024 00000000 		.word	.LC0
  61              		.cfi_endproc
  62              	.LFE2:
  63              		.fnend
  64              		.size	TEST_TestTask2, .-TEST_TestTask2
  65              		.align	2
  66              		.global	TEST_TestTask1
  67              		.type	TEST_TestTask1, %function
  68              	TEST_TestTask1:
  69              		.fnstart
  70              	.LFB1:
  35:../srccode/test.c **** {
  71              		.loc 1 35 0
  72              		.cfi_startproc
  73              		@ Function supports interworking.
  74              		@ args = 0, pretend = 0, frame = 0
  75              		@ frame_needed = 1, uses_anonymous_args = 0
  76              		.movsp ip
  77 0028 0DC0A0E1 		mov	ip, sp
  78              	.LCFI2:
  79              		.cfi_def_cfa_register 12
  80 002c 00D82DE9 		stmfd	sp!, {fp, ip, lr, pc}
  81              		.pad #4
  82              		.save {fp, ip, lr}
  83              		.setfp fp, ip, #-4
  84 0030 04B04CE2 		sub	fp, ip, #4
  85              		.cfi_offset 14, -8
  86              		.cfi_offset 13, -12
  87              		.cfi_offset 11, -16
  88              	.LCFI3:
  89              		.cfi_def_cfa 11, 4
  90              	.L7:
  38:../srccode/test.c ****         DEV_PutString((U8*)"\r\nTask1 is running!");
  91              		.loc 1 38 0 discriminator 1
  92 0034 10009FE5 		ldr	r0, .L8
  93 0038 FEFFFFEB 		bl	DEV_PutString
  40:../srccode/test.c ****         DEV_DelayMs(1000);      /* 延迟1s */
  94              		.loc 1 40 0 discriminator 1
  95 003c FA0FA0E3 		mov	r0, #1000
  96 0040 FEFFFFEB 		bl	DEV_DelayMs
  42:../srccode/test.c ****         WLX_TaskSwitch();       /* 任务切换 */
  97              		.loc 1 42 0 discriminator 1
  98 0044 FEFFFFEB 		bl	WLX_TaskSwitch
  99 0048 F9FFFFEA 		b	.L7
 100              	.L9:
 101              		.align	2
 102              	.L8:
 103 004c 14000000 		.word	.LC1
 104              		.cfi_endproc
ARM GAS  C:\DOCUME~1\ADMINI~1\LOCALS~1\Temp\ccaE8mhc.s 			page 4


 105              	.LFE1:
 106              		.fnend
 107              		.size	TEST_TestTask1, .-TEST_TestTask1
 108              		.align	2
 109              		.global	main
 110              		.type	main, %function
 111              	main:
 112              		.fnstart
 113              	.LFB0:
  15:../srccode/test.c **** {
 114              		.loc 1 15 0
 115              		.cfi_startproc
 116              		@ Function supports interworking.
 117              		@ args = 0, pretend = 0, frame = 0
 118              		@ frame_needed = 1, uses_anonymous_args = 0
 119              		.movsp ip
 120 0050 0DC0A0E1 		mov	ip, sp
 121              	.LCFI4:
 122              		.cfi_def_cfa_register 12
 123 0054 00D82DE9 		stmfd	sp!, {fp, ip, lr, pc}
 124              		.pad #4
 125              		.save {fp, ip, lr}
 126              		.setfp fp, ip, #-4
 127 0058 04B04CE2 		sub	fp, ip, #4
 128              		.cfi_offset 14, -8
 129              		.cfi_offset 13, -12
 130              		.cfi_offset 11, -16
 131              	.LCFI5:
 132              		.cfi_def_cfa 11, 4
  17:../srccode/test.c ****     DEV_HardwareInit();
 133              		.loc 1 17 0
 134 005c FEFFFFEB 		bl	DEV_HardwareInit
 135              	.LVL0:
  20:../srccode/test.c ****     WLX_TaskInit(1, TEST_TestTask1, TEST_GetTaskInitSp(1));
 136              		.loc 1 20 0
 137 0060 0100A0E3 		mov	r0, #1
 138 0064 28109FE5 		ldr	r1, .L11
 139 0068 28209FE5 		ldr	r2, .L11+4
 140 006c FEFFFFEB 		bl	WLX_TaskInit
 141              	.LVL1:
  21:../srccode/test.c ****     WLX_TaskInit(2, TEST_TestTask2, TEST_GetTaskInitSp(2));
 142              		.loc 1 21 0
 143 0070 0200A0E3 		mov	r0, #2
 144 0074 20109FE5 		ldr	r1, .L11+8
 145 0078 20209FE5 		ldr	r2, .L11+12
 146 007c FEFFFFEB 		bl	WLX_TaskInit
  24:../srccode/test.c ****     WLX_TaskStart();
 147              		.loc 1 24 0
 148 0080 FEFFFFEB 		bl	WLX_TaskStart
  27:../srccode/test.c **** }
 149              		.loc 1 27 0
 150 0084 0000A0E3 		mov	r0, #0
 151 0088 0CD04BE2 		sub	sp, fp, #12
 152 008c 00689DE8 		ldmfd	sp, {fp, sp, lr}
 153 0090 1EFF2FE1 		bx	lr
 154              	.L12:
 155              		.align	2
ARM GAS  C:\DOCUME~1\ADMINI~1\LOCALS~1\Temp\ccaE8mhc.s 			page 5


 156              	.L11:
 157 0094 00000000 		.word	TEST_TestTask1
 158 0098 90010000 		.word	gauiTask1Stack+400
 159 009c 00000000 		.word	TEST_TestTask2
 160 00a0 90010000 		.word	gauiTask2Stack+400
 161              		.cfi_endproc
 162              	.LFE0:
 163              		.fnend
 164              		.size	main, .-main
 165              		.align	2
 166              		.global	TEST_GetTaskInitSp
 167              		.type	TEST_GetTaskInitSp, %function
 168              	TEST_GetTaskInitSp:
 169              		.fnstart
 170              	.LFB3:
  60:../srccode/test.c ****     }
  61:../srccode/test.c **** }
  62:../srccode/test.c **** 
  63:../srccode/test.c **** /***********************************************************************************
  64:../srccode/test.c **** 函数功能: 获取任务的初始化堆栈指针.
  65:../srccode/test.c **** 入口参数: ucTask: 运行的任务, 1或者2.
  66:../srccode/test.c **** 返 回 值: 堆栈的高地址.
  67:../srccode/test.c **** ***********************************************************************************/
  68:../srccode/test.c **** U32* TEST_GetTaskInitSp(U8 ucTask)
  69:../srccode/test.c **** {
 171              		.loc 1 69 0
 172              		.cfi_startproc
 173              		@ Function supports interworking.
 174              		@ args = 0, pretend = 0, frame = 0
 175              		@ frame_needed = 0, uses_anonymous_args = 0
 176              		@ link register save eliminated.
 177              	.LVL2:
  70:../srccode/test.c ****     if(1 == ucTask)
  71:../srccode/test.c ****     {
  72:../srccode/test.c ****         return (gauiTask1Stack + TASKSTACK);
 178              		.loc 1 72 0
 179 00a4 10309FE5 		ldr	r3, .L16
  73:../srccode/test.c ****     }
  74:../srccode/test.c ****     else //if(2 == ucTask)
  75:../srccode/test.c ****     {
  76:../srccode/test.c ****         return (gauiTask2Stack + TASKSTACK);
  77:../srccode/test.c ****     }
  78:../srccode/test.c **** }
 180              		.loc 1 78 0
 181 00a8 10209FE5 		ldr	r2, .L16+4
 182 00ac 010050E3 		cmp	r0, #1
 183 00b0 0200A011 		movne	r0, r2
 184              	.LVL3:
 185 00b4 0300A001 		moveq	r0, r3
 186 00b8 1EFF2FE1 		bx	lr
 187              	.L17:
 188              		.align	2
 189              	.L16:
 190 00bc 90010000 		.word	gauiTask1Stack+400
 191 00c0 90010000 		.word	gauiTask2Stack+400
 192              		.cfi_endproc
 193              	.LFE3:
ARM GAS  C:\DOCUME~1\ADMINI~1\LOCALS~1\Temp\ccaE8mhc.s 			page 6


 194              		.fnend
 195              		.size	TEST_GetTaskInitSp, .-TEST_GetTaskInitSp
 196              		.comm	gauiTask1Stack,400,4
 197              		.comm	gauiTask2Stack,400,4
 198              		.section	.rodata.str1.4,"aMS",%progbits,1
 199              		.align	2
 200              	.LC0:
 201 0000 0D0A5461 		.ascii	"\015\012Task2 is running!\000"
 201      736B3220 
 201      69732072 
 201      756E6E69 
 201      6E672100 
 202              	.LC1:
 203 0014 0D0A5461 		.ascii	"\015\012Task1 is running!\000"
 203      736B3120 
 203      69732072 
 203      756E6E69 
 203      6E672100 
 204              		.text
 205              	.Letext0:
 722              		.section	.note.GNU-stack,"",%progbits
ARM GAS  C:\DOCUME~1\ADMINI~1\LOCALS~1\Temp\ccaE8mhc.s 			page 17

