ARM GAS  C:\DOCUME~1\ADMINI~1\LOCALS~1\Temp\ccaE8mhc.s 			page 1


   1              		.cpu arm7tdmi
   2              		.fpu softvfp
   3              		.eabi_attribute 20, 1
   4              		.eabi_attribute 21, 1
   5              		.eabi_attribute 23, 3
   6              		.eabi_attribute 24, 1
   7              		.eabi_attribute 25, 1
   8              		.eabi_attribute 26, 2
   9              		.eabi_attribute 30, 2
  10              		.eabi_attribute 18, 4
  11              		.file	"test.c"
  12              		.section	.debug_abbrev,"",%progbits
  13              	.Ldebug_abbrev0:
  14              		.section	.debug_info,"",%progbits
  15              	.Ldebug_info0:
  16              		.section	.debug_line,"",%progbits
  17              	.Ldebug_line0:
  18 0000 81000000 		.text
  18      02003E00 
  18      00000201 
  18      FB0E0D00 
  18      01010101 
  19              	.Ltext0:
  20              		.cfi_sections	.debug_frame
  21              		.align	2
  22              		.global	TEST_TestTask2
  23              		.type	TEST_TestTask2, %function
  24              	TEST_TestTask2:
  25              		.fnstart
  26              	.LFB2:
  27              		.file 1 "../srccode/test.c"
   1:../srccode/test.c **** 
   2:../srccode/test.c **** #include "test.h"
   3:../srccode/test.c **** 
   4:../srccode/test.c **** U32 gauiTask1Stack[TASKSTACK];      /* 任务1的堆栈 */
   5:../srccode/test.c **** U32 gauiTask2Stack[TASKSTACK];      /* 任务2的堆栈 */
   6:../srccode/test.c **** 
   7:../srccode/test.c **** 
   8:../srccode/test.c **** /***********************************************************************************
   9:../srccode/test.c **** 函数功能: 主函数, C程序从此函数开始运行. 该函数创建系统任务并从非任务状态切换到任务
  10:../srccode/test.c ****           状态运行.
  11:../srccode/test.c **** 入口参数: none.
  12:../srccode/test.c **** 返 回 值: none.
  13:../srccode/test.c **** ***********************************************************************************/
  14:../srccode/test.c **** S32 main(void)
  15:../srccode/test.c **** {
  16:../srccode/test.c ****     /* 初始化硬件 */
  17:../srccode/test.c ****     DEV_HardwareInit();
  18:../srccode/test.c **** 
  19:../srccode/test.c ****     /* 创建任务 */
  20:../srccode/test.c ****     WLX_TaskInit(1, TEST_TestTask1, TEST_GetTaskInitSp(1));
  21:../srccode/test.c ****     WLX_TaskInit(2, TEST_TestTask2, TEST_GetTaskInitSp(2));
  22:../srccode/test.c **** 
  23:../srccode/test.c ****     /* 开始任务调度 */
  24:../srccode/test.c ****     WLX_TaskStart();
  25:../srccode/test.c **** 
  26:../srccode/test.c ****     return 0;
ARM GAS  C:\DOCUME~1\ADMINI~1\LOCALS~1\Temp\ccaE8mhc.s 			page 2


  27:../srccode/test.c **** }
  28:../srccode/test.c **** 
  29:../srccode/test.c **** /***********************************************************************************
  30:../srccode/test.c **** 函数功能: 测试任务切换函数1, 向串口打印字符串.
  31:../srccode/test.c **** 入口参数: none.
  32:../srccode/test.c **** 返 回 值: none.
  33:../srccode/test.c **** ***********************************************************************************/
  34:../srccode/test.c **** void TEST_TestTask1(void)
  35:../srccode/test.c **** {
  36:../srccode/test.c ****     while(1)
  37:../srccode/test.c ****     {
  38:../srccode/test.c ****         DEV_PutString((U8*)"\r\nTask1 is running!");
  39:../srccode/test.c **** 
  40:../srccode/test.c ****         DEV_DelayMs(1000);      /* 延迟1s */
  41:../srccode/test.c **** 
  42:../srccode/test.c ****         WLX_TaskSwitch();       /* 任务切换 */
  43:../srccode/test.c ****     }
  44:../srccode/test.c **** }
  45:../srccode/test.c **** 
  46:../srccode/test.c **** /***********************************************************************************
  47:../srccode/test.c **** 函数功能: 测试任务切换函数2, 向串口打印字符串.
  48:../srccode/test.c **** 入口参数: none.
  49:../srccode/test.c **** 返 回 值: none.
  50:../srccode/test.c **** ***********************************************************************************/
  51:../srccode/test.c **** void TEST_TestTask2(void)
  52:../srccode/test.c **** {
  28              		.loc 1 52 0
  29              		.cfi_startproc
  30              		@ Function supports interworking.
  31              		@ args = 0, pretend = 0, frame = 0
  32              		@ frame_needed = 1, uses_anonymous_args = 0
  33              		.movsp ip
  34 0000 0DC0A0E1 		mov	ip, sp
  35              	.LCFI0:
  36              		.cfi_def_cfa_register 12
  37 0004 00D82DE9 		stmfd	sp!, {fp, ip, lr, pc}
  38              		.pad #4
  39              		.save {fp, ip, lr}
  40              		.setfp fp, ip, #-4
  41 0008 04B04CE2 		sub	fp, ip, #4
  42              		.cfi_offset 14, -8
  43              		.cfi_offset 13, -12
  44              		.cfi_offset 11, -16
  45              	.LCFI1:
  46              		.cfi_def_cfa 11, 4
  47              	.L2:
  53:../srccode/test.c ****     while(1)
  54:../srccode/test.c ****     {
  55:../srccode/test.c ****         DEV_PutString((U8*)"\r\nTask2 is running!");
  48              		.loc 1 55 0 discriminator 1
  49 000c 10009FE5 		ldr	r0, .L4
  50 0010 FEFFFFEB 		bl	DEV_PutString
  56:../srccode/test.c **** 
  57:../srccode/test.c ****         DEV_DelayMs(2000);      /* 延迟2s */
  51              		.loc 1 57 0 discriminator 1
  52 0014 7D0EA0E3 		mov	r0, #2000
  53 0018 FEFFFFEB 		bl	DEV_DelayMs
ARM GAS  C:\DOCUME~1\ADMINI~1\LOCALS~1\Temp\ccaE8mhc.s 			page 3


  58:../srccode/test.c **** 
  59:../srccode/test.c ****         WLX_TaskSwitch();       /* 任务切换 */
  54              		.loc 1 59 0 discriminator 1
  55 001c FEFFFFEB 		bl	WLX_TaskSwitch
  56 0020 F9FFFFEA 		b	.L2
  57              	.L5:
  58              		.align	2
  59              	.L4:
  60 0024 00000000 		.word	.LC0
  61              		.cfi_endproc
  62              	.LFE2:
  63              		.fnend
  64              		.size	TEST_TestTask2, .-TEST_TestTask2
  65              		.align	2
  66              		.global	TEST_TestTask1
  67              		.type	TEST_TestTask1, %function
  68              	TEST_TestTask1:
  69              		.fnstart
  70              	.LFB1:
  35:../srccode/test.c **** {
  71              		.loc 1 35 0
  72              		.cfi_startproc
  73              		@ Function supports interworking.
  74              		@ args = 0, pretend = 0, frame = 0
  75              		@ frame_needed = 1, uses_anonymous_args = 0
  76              		.movsp ip
  77 0028 0DC0A0E1 		mov	ip, sp
  78              	.LCFI2:
  79              		.cfi_def_cfa_register 12
  80 002c 00D82DE9 		stmfd	sp!, {fp, ip, lr, pc}
  81              		.pad #4
  82              		.save {fp, ip, lr}
  83              		.setfp fp, ip, #-4
  84 0030 04B04CE2 		sub	fp, ip, #4
  85              		.cfi_offset 14, -8
  86              		.cfi_offset 13, -12
  87              		.cfi_offset 11, -16
  88              	.LCFI3:
  89              		.cfi_def_cfa 11, 4
  90              	.L7:
  38:../srccode/test.c ****         DEV_PutString((U8*)"\r\nTask1 is running!");
  91              		.loc 1 38 0 discriminator 1
  92 0034 10009FE5 		ldr	r0, .L8
  93 0038 FEFFFFEB 		bl	DEV_PutString
  40:../srccode/test.c ****         DEV_DelayMs(1000);      /* 延迟1s */
  94              		.loc 1 40 0 discriminator 1
  95 003c FA0FA0E3 		mov	r0, #1000
  96 0040 FEFFFFEB 		bl	DEV_DelayMs
  42:../srccode/test.c ****         WLX_TaskSwitch();       /* 任务切换 */
  97              		.loc 1 42 0 discriminator 1
  98 0044 FEFFFFEB 		bl	WLX_TaskSwitch
  99 0048 F9FFFFEA 		b	.L7
 100              	.L9:
 101              		.align	2
 102              	.L8:
 103 004c 14000000 		.word	.LC1
 104              		.cfi_endproc
ARM GAS  C:\DOCUME~1\ADMINI~1\LOCALS~1\Temp\ccaE8mhc.s 			page 4


 105              	.LFE1:
 106              		.fnend
 107              		.size	TEST_TestTask1, .-TEST_TestTask1
 108              		.align	2
 109              		.global	main
 110              		.type	main, %function
 111              	main:
 112              		.fnstart
 113              	.LFB0:
  15:../srccode/test.c **** {
 114              		.loc 1 15 0
 115              		.cfi_startproc
 116              		@ Function supports interworking.
 117              		@ args = 0, pretend = 0, frame = 0
 118              		@ frame_needed = 1, uses_anonymous_args = 0
 119              		.movsp ip
 120 0050 0DC0A0E1 		mov	ip, sp
 121              	.LCFI4:
 122              		.cfi_def_cfa_register 12
 123 0054 00D82DE9 		stmfd	sp!, {fp, ip, lr, pc}
 124              		.pad #4
 125              		.save {fp, ip, lr}
 126              		.setfp fp, ip, #-4
 127 0058 04B04CE2 		sub	fp, ip, #4
 128              		.cfi_offset 14, -8
 129              		.cfi_offset 13, -12
 130              		.cfi_offset 11, -16
 131              	.LCFI5:
 132              		.cfi_def_cfa 11, 4
  17:../srccode/test.c ****     DEV_HardwareInit();
 133              		.loc 1 17 0
 134 005c FEFFFFEB 		bl	DEV_HardwareInit
 135              	.LVL0:
  20:../srccode/test.c ****     WLX_TaskInit(1, TEST_TestTask1, TEST_GetTaskInitSp(1));
 136              		.loc 1 20 0
 137 0060 0100A0E3 		mov	r0, #1
 138 0064 28109FE5 		ldr	r1, .L11
 139 0068 28209FE5 		ldr	r2, .L11+4
 140 006c FEFFFFEB 		bl	WLX_TaskInit
 141              	.LVL1:
  21:../srccode/test.c ****     WLX_TaskInit(2, TEST_TestTask2, TEST_GetTaskInitSp(2));
 142              		.loc 1 21 0
 143 0070 0200A0E3 		mov	r0, #2
 144 0074 20109FE5 		ldr	r1, .L11+8
 145 0078 20209FE5 		ldr	r2, .L11+12
 146 007c FEFFFFEB 		bl	WLX_TaskInit
  24:../srccode/test.c ****     WLX_TaskStart();
 147              		.loc 1 24 0
 148 0080 FEFFFFEB 		bl	WLX_TaskStart
  27:../srccode/test.c **** }
 149              		.loc 1 27 0
 150 0084 0000A0E3 		mov	r0, #0
 151 0088 0CD04BE2 		sub	sp, fp, #12
 152 008c 00689DE8 		ldmfd	sp, {fp, sp, lr}
 153 0090 1EFF2FE1 		bx	lr
 154              	.L12:
 155              		.align	2
ARM GAS  C:\DOCUME~1\ADMINI~1\LOCALS~1\Temp\ccaE8mhc.s 			page 5


 156              	.L11:
 157 0094 00000000 		.word	TEST_TestTask1
 158 0098 90010000 		.word	gauiTask1Stack+400
 159 009c 00000000 		.word	TEST_TestTask2
 160 00a0 90010000 		.word	gauiTask2Stack+400
 161              		.cfi_endproc
 162              	.LFE0:
 163              		.fnend
 164              		.size	main, .-main
 165              		.align	2
 166              		.global	TEST_GetTaskInitSp
 167              		.type	TEST_GetTaskInitSp, %function
 168              	TEST_GetTaskInitSp:
 169              		.fnstart
 170              	.LFB3:
  60:../srccode/test.c ****     }
  61:../srccode/test.c **** }
  62:../srccode/test.c **** 
  63:../srccode/test.c **** /***********************************************************************************
  64:../srccode/test.c **** 函数功能: 获取任务的初始化堆栈指针.
  65:../srccode/test.c **** 入口参数: ucTask: 运行的任务, 1或者2.
  66:../srccode/test.c **** 返 回 值: 堆栈的高地址.
  67:../srccode/test.c **** ***********************************************************************************/
  68:../srccode/test.c **** U32* TEST_GetTaskInitSp(U8 ucTask)
  69:../srccode/test.c **** {
 171              		.loc 1 69 0
 172              		.cfi_startproc
 173              		@ Function supports interworking.
 174              		@ args = 0, pretend = 0, frame = 0
 175              		@ frame_needed = 0, uses_anonymous_args = 0
 176              		@ link register save eliminated.
 177              	.LVL2:
  70:../srccode/test.c ****     if(1 == ucTask)
  71:../srccode/test.c ****     {
  72:../srccode/test.c ****         return (gauiTask1Stack + TASKSTACK);
 178              		.loc 1 72 0
 179 00a4 10309FE5 		ldr	r3, .L16
  73:../srccode/test.c ****     }
  74:../srccode/test.c ****     else //if(2 == ucTask)
  75:../srccode/test.c ****     {
  76:../srccode/test.c ****         return (gauiTask2Stack + TASKSTACK);
  77:../srccode/test.c ****     }
  78:../srccode/test.c **** }
 180              		.loc 1 78 0
 181 00a8 10209FE5 		ldr	r2, .L16+4
 182 00ac 010050E3 		cmp	r0, #1
 183 00b0 0200A011 		movne	r0, r2
 184              	.LVL3:
 185 00b4 0300A001 		moveq	r0, r3
 186 00b8 1EFF2FE1 		bx	lr
 187              	.L17:
 188              		.align	2
 189              	.L16:
 190 00bc 90010000 		.word	gauiTask1Stack+400
 191 00c0 90010000 		.word	gauiTask2Stack+400
 192              		.cfi_endproc
 193              	.LFE3:
ARM GAS  C:\DOCUME~1\ADMINI~1\LOCALS~1\Temp\ccaE8mhc.s 			page 6


 194              		.fnend
 195              		.size	TEST_GetTaskInitSp, .-TEST_GetTaskInitSp
 196              		.comm	gauiTask1Stack,400,4
 197              		.comm	gauiTask2Stack,400,4
 198              		.section	.rodata.str1.4,"aMS",%progbits,1
 199              		.align	2
 200              	.LC0:
 201 0000 0D0A5461 		.ascii	"\015\012Task2 is running!\000"
 201      736B3220 
 201      69732072 
 201      756E6E69 
 201      6E672100 
 202              	.LC1:
 203 0014 0D0A5461 		.ascii	"\015\012Task1 is running!\000"
 203      736B3120 
 203      69732072 
 203      756E6E69 
 203      6E672100 
 204              		.text
 205              	.Letext0:
 206              		.section	.debug_loc,"",%progbits
 207              	.Ldebug_loc0:
 208              	.LLST0:
 209 0000 00000000 		.4byte	.LFB2-.Ltext0
 210 0004 04000000 		.4byte	.LCFI0-.Ltext0
 211 0008 0200     		.2byte	0x2
 212 000a 7D       		.byte	0x7d
 213 000b 00       		.sleb128 0
 214 000c 04000000 		.4byte	.LCFI0-.Ltext0
 215 0010 0C000000 		.4byte	.LCFI1-.Ltext0
 216 0014 0200     		.2byte	0x2
 217 0016 7C       		.byte	0x7c
 218 0017 00       		.sleb128 0
 219 0018 0C000000 		.4byte	.LCFI1-.Ltext0
 220 001c 28000000 		.4byte	.LFE2-.Ltext0
 221 0020 0200     		.2byte	0x2
 222 0022 7B       		.byte	0x7b
 223 0023 04       		.sleb128 4
 224 0024 00000000 		.4byte	0x0
 225 0028 00000000 		.4byte	0x0
 226              	.LLST1:
 227 002c 28000000 		.4byte	.LFB1-.Ltext0
 228 0030 2C000000 		.4byte	.LCFI2-.Ltext0
 229 0034 0200     		.2byte	0x2
 230 0036 7D       		.byte	0x7d
 231 0037 00       		.sleb128 0
 232 0038 2C000000 		.4byte	.LCFI2-.Ltext0
 233 003c 34000000 		.4byte	.LCFI3-.Ltext0
 234 0040 0200     		.2byte	0x2
 235 0042 7C       		.byte	0x7c
 236 0043 00       		.sleb128 0
 237 0044 34000000 		.4byte	.LCFI3-.Ltext0
 238 0048 50000000 		.4byte	.LFE1-.Ltext0
 239 004c 0200     		.2byte	0x2
 240 004e 7B       		.byte	0x7b
 241 004f 04       		.sleb128 4
 242 0050 00000000 		.4byte	0x0
ARM GAS  C:\DOCUME~1\ADMINI~1\LOCALS~1\Temp\ccaE8mhc.s 			page 7


 243 0054 00000000 		.4byte	0x0
 244              	.LLST2:
 245 0058 50000000 		.4byte	.LFB0-.Ltext0
 246 005c 54000000 		.4byte	.LCFI4-.Ltext0
 247 0060 0200     		.2byte	0x2
 248 0062 7D       		.byte	0x7d
 249 0063 00       		.sleb128 0
 250 0064 54000000 		.4byte	.LCFI4-.Ltext0
 251 0068 5C000000 		.4byte	.LCFI5-.Ltext0
 252 006c 0200     		.2byte	0x2
 253 006e 7C       		.byte	0x7c
 254 006f 00       		.sleb128 0
 255 0070 5C000000 		.4byte	.LCFI5-.Ltext0
 256 0074 A4000000 		.4byte	.LFE0-.Ltext0
 257 0078 0200     		.2byte	0x2
 258 007a 7B       		.byte	0x7b
 259 007b 04       		.sleb128 4
 260 007c 00000000 		.4byte	0x0
 261 0080 00000000 		.4byte	0x0
 262              	.LLST3:
 263 0084 A4000000 		.4byte	.LVL2-.Ltext0
 264 0088 B4000000 		.4byte	.LVL3-.Ltext0
 265 008c 0100     		.2byte	0x1
 266 008e 50       		.byte	0x50
 267 008f 00000000 		.4byte	0x0
 268 0093 00000000 		.4byte	0x0
 269              		.file 2 "../wanlix/wanlix.h"
 270              		.section	.debug_info
 271 0000 46010000 		.4byte	0x146
 272 0004 0200     		.2byte	0x2
 273 0006 00000000 		.4byte	.Ldebug_abbrev0
 274 000a 04       		.byte	0x4
 275 000b 01       		.uleb128 0x1
 276 000c 0F000000 		.4byte	.LASF10
 277 0010 01       		.byte	0x1
 278 0011 2D000000 		.4byte	.LASF11
 279 0015 51000000 		.4byte	.LASF12
 280 0019 00000000 		.4byte	.Ltext0
 281 001d C4000000 		.4byte	.Letext0
 282 0021 00000000 		.4byte	.Ldebug_line0
 283 0025 02       		.uleb128 0x2
 284 0026 04       		.byte	0x4
 285 0027 07       		.byte	0x7
 286 0028 3F000000 		.4byte	.LASF0
 287 002c 02       		.uleb128 0x2
 288 002d 04       		.byte	0x4
 289 002e 07       		.byte	0x7
 290 002f 1B000000 		.4byte	.LASF1
 291 0033 03       		.uleb128 0x3
 292 0034 553800   		.ascii	"U8\000"
 293 0037 02       		.byte	0x2
 294 0038 07       		.byte	0x7
 295 0039 3D000000 		.4byte	0x3d
 296 003d 02       		.uleb128 0x2
 297 003e 01       		.byte	0x1
 298 003f 08       		.byte	0x8
 299 0040 B2000000 		.4byte	.LASF2
ARM GAS  C:\DOCUME~1\ADMINI~1\LOCALS~1\Temp\ccaE8mhc.s 			page 8


 300 0044 02       		.uleb128 0x2
 301 0045 02       		.byte	0x2
 302 0046 07       		.byte	0x7
 303 0047 D4000000 		.4byte	.LASF3
 304 004b 03       		.uleb128 0x3
 305 004c 55333200 		.ascii	"U32\000"
 306 0050 02       		.byte	0x2
 307 0051 09       		.byte	0x9
 308 0052 2C000000 		.4byte	0x2c
 309 0056 02       		.uleb128 0x2
 310 0057 01       		.byte	0x1
 311 0058 08       		.byte	0x8
 312 0059 CF000000 		.4byte	.LASF4
 313 005d 02       		.uleb128 0x2
 314 005e 02       		.byte	0x2
 315 005f 05       		.byte	0x5
 316 0060 05010000 		.4byte	.LASF5
 317 0064 03       		.uleb128 0x3
 318 0065 53333200 		.ascii	"S32\000"
 319 0069 02       		.byte	0x2
 320 006a 0C       		.byte	0xc
 321 006b 6F000000 		.4byte	0x6f
 322 006f 04       		.uleb128 0x4
 323 0070 04       		.byte	0x4
 324 0071 05       		.byte	0x5
 325 0072 696E7400 		.ascii	"int\000"
 326 0076 05       		.uleb128 0x5
 327 0077 01       		.byte	0x1
 328 0078 0F010000 		.4byte	.LASF13
 329 007c 01       		.byte	0x1
 330 007d 44       		.byte	0x44
 331 007e 01       		.byte	0x1
 332 007f 94000000 		.4byte	0x94
 333 0083 01       		.byte	0x1
 334 0084 94000000 		.4byte	0x94
 335 0088 06       		.uleb128 0x6
 336 0089 AB000000 		.4byte	.LASF14
 337 008d 01       		.byte	0x1
 338 008e 44       		.byte	0x44
 339 008f 33000000 		.4byte	0x33
 340 0093 00       		.byte	0x0
 341 0094 07       		.uleb128 0x7
 342 0095 04       		.byte	0x4
 343 0096 4B000000 		.4byte	0x4b
 344 009a 08       		.uleb128 0x8
 345 009b 01       		.byte	0x1
 346 009c F6000000 		.4byte	.LASF6
 347 00a0 01       		.byte	0x1
 348 00a1 33       		.byte	0x33
 349 00a2 01       		.byte	0x1
 350 00a3 00000000 		.4byte	.LFB2
 351 00a7 28000000 		.4byte	.LFE2
 352 00ab 00000000 		.4byte	.LLST0
 353 00af 08       		.uleb128 0x8
 354 00b0 01       		.byte	0x1
 355 00b1 E7000000 		.4byte	.LASF7
 356 00b5 01       		.byte	0x1
ARM GAS  C:\DOCUME~1\ADMINI~1\LOCALS~1\Temp\ccaE8mhc.s 			page 9


 357 00b6 22       		.byte	0x22
 358 00b7 01       		.byte	0x1
 359 00b8 28000000 		.4byte	.LFB1
 360 00bc 50000000 		.4byte	.LFE1
 361 00c0 2C000000 		.4byte	.LLST1
 362 00c4 09       		.uleb128 0x9
 363 00c5 01       		.byte	0x1
 364 00c6 28000000 		.4byte	.LASF15
 365 00ca 01       		.byte	0x1
 366 00cb 0E       		.byte	0xe
 367 00cc 01       		.byte	0x1
 368 00cd 64000000 		.4byte	0x64
 369 00d1 50000000 		.4byte	.LFB0
 370 00d5 A4000000 		.4byte	.LFE0
 371 00d9 58000000 		.4byte	.LLST2
 372 00dd 0A       		.uleb128 0xa
 373 00de 76000000 		.4byte	0x76
 374 00e2 A4000000 		.4byte	.LFB3
 375 00e6 C4000000 		.4byte	.LFE3
 376 00ea 02       		.byte	0x2
 377 00eb 7D       		.byte	0x7d
 378 00ec 00       		.sleb128 0
 379 00ed FB000000 		.4byte	0xfb
 380 00f1 0B       		.uleb128 0xb
 381 00f2 88000000 		.4byte	0x88
 382 00f6 84000000 		.4byte	.LLST3
 383 00fa 00       		.byte	0x0
 384 00fb 0C       		.uleb128 0xc
 385 00fc 4B000000 		.4byte	0x4b
 386 0100 0B010000 		.4byte	0x10b
 387 0104 0D       		.uleb128 0xd
 388 0105 2C000000 		.4byte	0x2c
 389 0109 63       		.byte	0x63
 390 010a 00       		.byte	0x0
 391 010b 0E       		.uleb128 0xe
 392 010c 00000000 		.4byte	.LASF8
 393 0110 01       		.byte	0x1
 394 0111 04       		.byte	0x4
 395 0112 FB000000 		.4byte	0xfb
 396 0116 01       		.byte	0x1
 397 0117 01       		.byte	0x1
 398 0118 0E       		.uleb128 0xe
 399 0119 C0000000 		.4byte	.LASF9
 400 011d 01       		.byte	0x1
 401 011e 05       		.byte	0x5
 402 011f FB000000 		.4byte	0xfb
 403 0123 01       		.byte	0x1
 404 0124 01       		.byte	0x1
 405 0125 0F       		.uleb128 0xf
 406 0126 00000000 		.4byte	.LASF8
 407 012a 01       		.byte	0x1
 408 012b 04       		.byte	0x4
 409 012c FB000000 		.4byte	0xfb
 410 0130 01       		.byte	0x1
 411 0131 05       		.byte	0x5
 412 0132 03       		.byte	0x3
 413 0133 00000000 		.4byte	gauiTask1Stack
ARM GAS  C:\DOCUME~1\ADMINI~1\LOCALS~1\Temp\ccaE8mhc.s 			page 10


 414 0137 0F       		.uleb128 0xf
 415 0138 C0000000 		.4byte	.LASF9
 416 013c 01       		.byte	0x1
 417 013d 05       		.byte	0x5
 418 013e FB000000 		.4byte	0xfb
 419 0142 01       		.byte	0x1
 420 0143 05       		.byte	0x5
 421 0144 03       		.byte	0x3
 422 0145 00000000 		.4byte	gauiTask2Stack
 423 0149 00       		.byte	0x0
 424              		.section	.debug_abbrev
 425 0000 01       		.uleb128 0x1
 426 0001 11       		.uleb128 0x11
 427 0002 01       		.byte	0x1
 428 0003 25       		.uleb128 0x25
 429 0004 0E       		.uleb128 0xe
 430 0005 13       		.uleb128 0x13
 431 0006 0B       		.uleb128 0xb
 432 0007 03       		.uleb128 0x3
 433 0008 0E       		.uleb128 0xe
 434 0009 1B       		.uleb128 0x1b
 435 000a 0E       		.uleb128 0xe
 436 000b 11       		.uleb128 0x11
 437 000c 01       		.uleb128 0x1
 438 000d 12       		.uleb128 0x12
 439 000e 01       		.uleb128 0x1
 440 000f 10       		.uleb128 0x10
 441 0010 06       		.uleb128 0x6
 442 0011 00       		.byte	0x0
 443 0012 00       		.byte	0x0
 444 0013 02       		.uleb128 0x2
 445 0014 24       		.uleb128 0x24
 446 0015 00       		.byte	0x0
 447 0016 0B       		.uleb128 0xb
 448 0017 0B       		.uleb128 0xb
 449 0018 3E       		.uleb128 0x3e
 450 0019 0B       		.uleb128 0xb
 451 001a 03       		.uleb128 0x3
 452 001b 0E       		.uleb128 0xe
 453 001c 00       		.byte	0x0
 454 001d 00       		.byte	0x0
 455 001e 03       		.uleb128 0x3
 456 001f 16       		.uleb128 0x16
 457 0020 00       		.byte	0x0
 458 0021 03       		.uleb128 0x3
 459 0022 08       		.uleb128 0x8
 460 0023 3A       		.uleb128 0x3a
 461 0024 0B       		.uleb128 0xb
 462 0025 3B       		.uleb128 0x3b
 463 0026 0B       		.uleb128 0xb
 464 0027 49       		.uleb128 0x49
 465 0028 13       		.uleb128 0x13
 466 0029 00       		.byte	0x0
 467 002a 00       		.byte	0x0
 468 002b 04       		.uleb128 0x4
 469 002c 24       		.uleb128 0x24
 470 002d 00       		.byte	0x0
ARM GAS  C:\DOCUME~1\ADMINI~1\LOCALS~1\Temp\ccaE8mhc.s 			page 11


 471 002e 0B       		.uleb128 0xb
 472 002f 0B       		.uleb128 0xb
 473 0030 3E       		.uleb128 0x3e
 474 0031 0B       		.uleb128 0xb
 475 0032 03       		.uleb128 0x3
 476 0033 08       		.uleb128 0x8
 477 0034 00       		.byte	0x0
 478 0035 00       		.byte	0x0
 479 0036 05       		.uleb128 0x5
 480 0037 2E       		.uleb128 0x2e
 481 0038 01       		.byte	0x1
 482 0039 3F       		.uleb128 0x3f
 483 003a 0C       		.uleb128 0xc
 484 003b 03       		.uleb128 0x3
 485 003c 0E       		.uleb128 0xe
 486 003d 3A       		.uleb128 0x3a
 487 003e 0B       		.uleb128 0xb
 488 003f 3B       		.uleb128 0x3b
 489 0040 0B       		.uleb128 0xb
 490 0041 27       		.uleb128 0x27
 491 0042 0C       		.uleb128 0xc
 492 0043 49       		.uleb128 0x49
 493 0044 13       		.uleb128 0x13
 494 0045 20       		.uleb128 0x20
 495 0046 0B       		.uleb128 0xb
 496 0047 01       		.uleb128 0x1
 497 0048 13       		.uleb128 0x13
 498 0049 00       		.byte	0x0
 499 004a 00       		.byte	0x0
 500 004b 06       		.uleb128 0x6
 501 004c 05       		.uleb128 0x5
 502 004d 00       		.byte	0x0
 503 004e 03       		.uleb128 0x3
 504 004f 0E       		.uleb128 0xe
 505 0050 3A       		.uleb128 0x3a
 506 0051 0B       		.uleb128 0xb
 507 0052 3B       		.uleb128 0x3b
 508 0053 0B       		.uleb128 0xb
 509 0054 49       		.uleb128 0x49
 510 0055 13       		.uleb128 0x13
 511 0056 00       		.byte	0x0
 512 0057 00       		.byte	0x0
 513 0058 07       		.uleb128 0x7
 514 0059 0F       		.uleb128 0xf
 515 005a 00       		.byte	0x0
 516 005b 0B       		.uleb128 0xb
 517 005c 0B       		.uleb128 0xb
 518 005d 49       		.uleb128 0x49
 519 005e 13       		.uleb128 0x13
 520 005f 00       		.byte	0x0
 521 0060 00       		.byte	0x0
 522 0061 08       		.uleb128 0x8
 523 0062 2E       		.uleb128 0x2e
 524 0063 00       		.byte	0x0
 525 0064 3F       		.uleb128 0x3f
 526 0065 0C       		.uleb128 0xc
 527 0066 03       		.uleb128 0x3
ARM GAS  C:\DOCUME~1\ADMINI~1\LOCALS~1\Temp\ccaE8mhc.s 			page 12


 528 0067 0E       		.uleb128 0xe
 529 0068 3A       		.uleb128 0x3a
 530 0069 0B       		.uleb128 0xb
 531 006a 3B       		.uleb128 0x3b
 532 006b 0B       		.uleb128 0xb
 533 006c 27       		.uleb128 0x27
 534 006d 0C       		.uleb128 0xc
 535 006e 11       		.uleb128 0x11
 536 006f 01       		.uleb128 0x1
 537 0070 12       		.uleb128 0x12
 538 0071 01       		.uleb128 0x1
 539 0072 40       		.uleb128 0x40
 540 0073 06       		.uleb128 0x6
 541 0074 00       		.byte	0x0
 542 0075 00       		.byte	0x0
 543 0076 09       		.uleb128 0x9
 544 0077 2E       		.uleb128 0x2e
 545 0078 00       		.byte	0x0
 546 0079 3F       		.uleb128 0x3f
 547 007a 0C       		.uleb128 0xc
 548 007b 03       		.uleb128 0x3
 549 007c 0E       		.uleb128 0xe
 550 007d 3A       		.uleb128 0x3a
 551 007e 0B       		.uleb128 0xb
 552 007f 3B       		.uleb128 0x3b
 553 0080 0B       		.uleb128 0xb
 554 0081 27       		.uleb128 0x27
 555 0082 0C       		.uleb128 0xc
 556 0083 49       		.uleb128 0x49
 557 0084 13       		.uleb128 0x13
 558 0085 11       		.uleb128 0x11
 559 0086 01       		.uleb128 0x1
 560 0087 12       		.uleb128 0x12
 561 0088 01       		.uleb128 0x1
 562 0089 40       		.uleb128 0x40
 563 008a 06       		.uleb128 0x6
 564 008b 00       		.byte	0x0
 565 008c 00       		.byte	0x0
 566 008d 0A       		.uleb128 0xa
 567 008e 2E       		.uleb128 0x2e
 568 008f 01       		.byte	0x1
 569 0090 31       		.uleb128 0x31
 570 0091 13       		.uleb128 0x13
 571 0092 11       		.uleb128 0x11
 572 0093 01       		.uleb128 0x1
 573 0094 12       		.uleb128 0x12
 574 0095 01       		.uleb128 0x1
 575 0096 40       		.uleb128 0x40
 576 0097 0A       		.uleb128 0xa
 577 0098 01       		.uleb128 0x1
 578 0099 13       		.uleb128 0x13
 579 009a 00       		.byte	0x0
 580 009b 00       		.byte	0x0
 581 009c 0B       		.uleb128 0xb
 582 009d 05       		.uleb128 0x5
 583 009e 00       		.byte	0x0
 584 009f 31       		.uleb128 0x31
ARM GAS  C:\DOCUME~1\ADMINI~1\LOCALS~1\Temp\ccaE8mhc.s 			page 13


 585 00a0 13       		.uleb128 0x13
 586 00a1 02       		.uleb128 0x2
 587 00a2 06       		.uleb128 0x6
 588 00a3 00       		.byte	0x0
 589 00a4 00       		.byte	0x0
 590 00a5 0C       		.uleb128 0xc
 591 00a6 01       		.uleb128 0x1
 592 00a7 01       		.byte	0x1
 593 00a8 49       		.uleb128 0x49
 594 00a9 13       		.uleb128 0x13
 595 00aa 01       		.uleb128 0x1
 596 00ab 13       		.uleb128 0x13
 597 00ac 00       		.byte	0x0
 598 00ad 00       		.byte	0x0
 599 00ae 0D       		.uleb128 0xd
 600 00af 21       		.uleb128 0x21
 601 00b0 00       		.byte	0x0
 602 00b1 49       		.uleb128 0x49
 603 00b2 13       		.uleb128 0x13
 604 00b3 2F       		.uleb128 0x2f
 605 00b4 0B       		.uleb128 0xb
 606 00b5 00       		.byte	0x0
 607 00b6 00       		.byte	0x0
 608 00b7 0E       		.uleb128 0xe
 609 00b8 34       		.uleb128 0x34
 610 00b9 00       		.byte	0x0
 611 00ba 03       		.uleb128 0x3
 612 00bb 0E       		.uleb128 0xe
 613 00bc 3A       		.uleb128 0x3a
 614 00bd 0B       		.uleb128 0xb
 615 00be 3B       		.uleb128 0x3b
 616 00bf 0B       		.uleb128 0xb
 617 00c0 49       		.uleb128 0x49
 618 00c1 13       		.uleb128 0x13
 619 00c2 3F       		.uleb128 0x3f
 620 00c3 0C       		.uleb128 0xc
 621 00c4 3C       		.uleb128 0x3c
 622 00c5 0C       		.uleb128 0xc
 623 00c6 00       		.byte	0x0
 624 00c7 00       		.byte	0x0
 625 00c8 0F       		.uleb128 0xf
 626 00c9 34       		.uleb128 0x34
 627 00ca 00       		.byte	0x0
 628 00cb 03       		.uleb128 0x3
 629 00cc 0E       		.uleb128 0xe
 630 00cd 3A       		.uleb128 0x3a
 631 00ce 0B       		.uleb128 0xb
 632 00cf 3B       		.uleb128 0x3b
 633 00d0 0B       		.uleb128 0xb
 634 00d1 49       		.uleb128 0x49
 635 00d2 13       		.uleb128 0x13
 636 00d3 3F       		.uleb128 0x3f
 637 00d4 0C       		.uleb128 0xc
 638 00d5 02       		.uleb128 0x2
 639 00d6 0A       		.uleb128 0xa
 640 00d7 00       		.byte	0x0
 641 00d8 00       		.byte	0x0
ARM GAS  C:\DOCUME~1\ADMINI~1\LOCALS~1\Temp\ccaE8mhc.s 			page 14


 642 00d9 00       		.byte	0x0
 643              		.section	.debug_pubnames,"",%progbits
 644 0000 7A000000 		.4byte	0x7a
 645 0004 0200     		.2byte	0x2
 646 0006 00000000 		.4byte	.Ldebug_info0
 647 000a 4A010000 		.4byte	0x14a
 648 000e 9A000000 		.4byte	0x9a
 649 0012 54455354 		.ascii	"TEST_TestTask2\000"
 649      5F546573 
 649      74546173 
 649      6B3200
 650 0021 AF000000 		.4byte	0xaf
 651 0025 54455354 		.ascii	"TEST_TestTask1\000"
 651      5F546573 
 651      74546173 
 651      6B3100
 652 0034 C4000000 		.4byte	0xc4
 653 0038 6D61696E 		.ascii	"main\000"
 653      00
 654 003d DD000000 		.4byte	0xdd
 655 0041 54455354 		.ascii	"TEST_GetTaskInitSp\000"
 655      5F476574 
 655      5461736B 
 655      496E6974 
 655      537000
 656 0054 25010000 		.4byte	0x125
 657 0058 67617569 		.ascii	"gauiTask1Stack\000"
 657      5461736B 
 657      31537461 
 657      636B00
 658 0067 37010000 		.4byte	0x137
 659 006b 67617569 		.ascii	"gauiTask2Stack\000"
 659      5461736B 
 659      32537461 
 659      636B00
 660 007a 00000000 		.4byte	0x0
 661              		.section	.debug_pubtypes,"",%progbits
 662 0000 25000000 		.4byte	0x25
 663 0004 0200     		.2byte	0x2
 664 0006 00000000 		.4byte	.Ldebug_info0
 665 000a 4A010000 		.4byte	0x14a
 666 000e 33000000 		.4byte	0x33
 667 0012 553800   		.ascii	"U8\000"
 668 0015 4B000000 		.4byte	0x4b
 669 0019 55333200 		.ascii	"U32\000"
 670 001d 64000000 		.4byte	0x64
 671 0021 53333200 		.ascii	"S32\000"
 672 0025 00000000 		.4byte	0x0
 673              		.section	.debug_aranges,"",%progbits
 674 0000 1C000000 		.4byte	0x1c
 675 0004 0200     		.2byte	0x2
 676 0006 00000000 		.4byte	.Ldebug_info0
 677 000a 04       		.byte	0x4
 678 000b 00       		.byte	0x0
 679 000c 0000     		.2byte	0x0
 680 000e 0000     		.2byte	0x0
 681 0010 00000000 		.4byte	.Ltext0
ARM GAS  C:\DOCUME~1\ADMINI~1\LOCALS~1\Temp\ccaE8mhc.s 			page 15


 682 0014 C4000000 		.4byte	.Letext0-.Ltext0
 683 0018 00000000 		.4byte	0x0
 684 001c 00000000 		.4byte	0x0
 685              		.section	.debug_str,"MS",%progbits,1
 686              	.LASF8:
 687 0000 67617569 		.ascii	"gauiTask1Stack\000"
 687      5461736B 
 687      31537461 
 687      636B00
 688              	.LASF10:
 689 000f 474E5520 		.ascii	"GNU C 4.5.2\000"
 689      4320342E 
 689      352E3200 
 690              	.LASF1:
 691 001b 756E7369 		.ascii	"unsigned int\000"
 691      676E6564 
 691      20696E74 
 691      00
 692              	.LASF15:
 693 0028 6D61696E 		.ascii	"main\000"
 693      00
 694              	.LASF11:
 695 002d 2E2E2F73 		.ascii	"../srccode/test.c\000"
 695      7263636F 
 695      64652F74 
 695      6573742E 
 695      6300
 696              	.LASF0:
 697 003f 6C6F6E67 		.ascii	"long unsigned int\000"
 697      20756E73 
 697      69676E65 
 697      6420696E 
 697      7400
 698              	.LASF12:
 699 0051 433A5C44 		.ascii	"C:\\Documents and Settings\\Administrator\\\327\300"
 699      6F63756D 
 699      656E7473 
 699      20616E64 
 699      20536574 
 700 007b C3E65CD0 		.ascii	"\303\346\\\320\302\275\250\316\304\274\376\274\320\\"
 700      C2BDA8CE 
 700      C4BCFEBC 
 700      D05C
 701 0089 D0C2BDA8 		.ascii	"\320\302\275\250\316\304\274\376\274\320\\RTOS_Wanl"
 701      CEC4BCFE 
 701      BCD05C52 
 701      544F535F 
 701      57616E6C 
 702 009d 6978332E 		.ascii	"ix3.1\\project\000"
 702      315C7072 
 702      6F6A6563 
 702      7400
 703              	.LASF14:
 704 00ab 75635461 		.ascii	"ucTask\000"
 704      736B00
 705              	.LASF2:
 706 00b2 756E7369 		.ascii	"unsigned char\000"
ARM GAS  C:\DOCUME~1\ADMINI~1\LOCALS~1\Temp\ccaE8mhc.s 			page 16


 706      676E6564 
 706      20636861 
 706      7200
 707              	.LASF9:
 708 00c0 67617569 		.ascii	"gauiTask2Stack\000"
 708      5461736B 
 708      32537461 
 708      636B00
 709              	.LASF4:
 710 00cf 63686172 		.ascii	"char\000"
 710      00
 711              	.LASF3:
 712 00d4 73686F72 		.ascii	"short unsigned int\000"
 712      7420756E 
 712      7369676E 
 712      65642069 
 712      6E7400
 713              	.LASF7:
 714 00e7 54455354 		.ascii	"TEST_TestTask1\000"
 714      5F546573 
 714      74546173 
 714      6B3100
 715              	.LASF6:
 716 00f6 54455354 		.ascii	"TEST_TestTask2\000"
 716      5F546573 
 716      74546173 
 716      6B3200
 717              	.LASF5:
 718 0105 73686F72 		.ascii	"short int\000"
 718      7420696E 
 718      7400
 719              	.LASF13:
 720 010f 54455354 		.ascii	"TEST_GetTaskInitSp\000"
 720      5F476574 
 720      5461736B 
 720      496E6974 
 720      537000
 721              		.ident	"GCC: (Sourcery G++ Lite 2011.03-41) 4.5.2"
 722              		.section	.note.GNU-stack,"",%progbits
ARM GAS  C:\DOCUME~1\ADMINI~1\LOCALS~1\Temp\ccaE8mhc.s 			page 17


DEFINED SYMBOLS
                            *ABS*:00000000 test.c
C:\DOCUME~1\ADMINI~1\LOCALS~1\Temp\ccaE8mhc.s:21     .text:00000000 $a
C:\DOCUME~1\ADMINI~1\LOCALS~1\Temp\ccaE8mhc.s:24     .text:00000000 TEST_TestTask2
C:\DOCUME~1\ADMINI~1\LOCALS~1\Temp\ccaE8mhc.s:60     .text:00000024 $d
                       .ARM.extab:00000000 $d
                       .ARM.exidx:00000000 $d
C:\DOCUME~1\ADMINI~1\LOCALS~1\Temp\ccaE8mhc.s:65     .text:00000028 $a
C:\DOCUME~1\ADMINI~1\LOCALS~1\Temp\ccaE8mhc.s:68     .text:00000028 TEST_TestTask1
C:\DOCUME~1\ADMINI~1\LOCALS~1\Temp\ccaE8mhc.s:103    .text:0000004c $d
C:\DOCUME~1\ADMINI~1\LOCALS~1\Temp\ccaE8mhc.s:108    .text:00000050 $a
C:\DOCUME~1\ADMINI~1\LOCALS~1\Temp\ccaE8mhc.s:111    .text:00000050 main
C:\DOCUME~1\ADMINI~1\LOCALS~1\Temp\ccaE8mhc.s:157    .text:00000094 $d
                            *COM*:00000190 gauiTask1Stack
                            *COM*:00000190 gauiTask2Stack
C:\DOCUME~1\ADMINI~1\LOCALS~1\Temp\ccaE8mhc.s:165    .text:000000a4 $a
C:\DOCUME~1\ADMINI~1\LOCALS~1\Temp\ccaE8mhc.s:168    .text:000000a4 TEST_GetTaskInitSp
C:\DOCUME~1\ADMINI~1\LOCALS~1\Temp\ccaE8mhc.s:190    .text:000000bc $d
C:\DOCUME~1\ADMINI~1\LOCALS~1\Temp\ccaE8mhc.s:199    .rodata.str1.4:00000000 $d
                     .debug_frame:00000010 $d

UNDEFINED SYMBOLS
DEV_PutString
DEV_DelayMs
WLX_TaskSwitch
__aeabi_unwind_cpp_pr1
DEV_HardwareInit
WLX_TaskInit
WLX_TaskStart
__aeabi_unwind_cpp_pr0
