ARM GAS  C:\DOCUME~1\ADMINI~1\LOCALS~1\Temp\cc2xsWEz.s 			page 1


   1              		.cpu arm7tdmi
   2              		.fpu softvfp
   3              		.eabi_attribute 20, 1
   4              		.eabi_attribute 21, 1
   5              		.eabi_attribute 23, 3
   6              		.eabi_attribute 24, 1
   7              		.eabi_attribute 25, 1
   8              		.eabi_attribute 26, 2
   9              		.eabi_attribute 30, 6
  10              		.eabi_attribute 18, 4
  11              		.file	"unoptimize.c"
  18 0000 60000000 		.text
  18      02004400 
  18      00000201 
  18      FB0E0D00 
  18      01010101 
  19              	.Ltext0:
  20              		.cfi_sections	.debug_frame
  21              		.align	2
  22              		.global	DEV_DelayMs
  23              		.type	DEV_DelayMs, %function
  24              	DEV_DelayMs:
  25              		.fnstart
  26              	.LFB0:
  27              		.file 1 "../srccode/unoptimize.c"
   1:../srccode/unoptimize.c **** 
   2:../srccode/unoptimize.c **** #include "global.h"
   3:../srccode/unoptimize.c **** 
   4:../srccode/unoptimize.c **** 
   5:../srccode/unoptimize.c **** /***********************************************************************************
   6:../srccode/unoptimize.c **** 函数功能: 延迟ms函数, 采用死循环延迟时间, 该函数的延迟时间与编译选项及芯片时钟相关.
   7:../srccode/unoptimize.c **** 入口参数: uiMs: 要延迟的时间, 单位ms.
   8:../srccode/unoptimize.c **** 返 回 值: none.
   9:../srccode/unoptimize.c **** ***********************************************************************************/
  10:../srccode/unoptimize.c **** void DEV_DelayMs(U32 uiMs)
  11:../srccode/unoptimize.c **** {
  28              		.loc 1 11 0
  29              		.cfi_startproc
  30              		@ Function supports interworking.
  31              		@ args = 0, pretend = 0, frame = 16
  32              		@ frame_needed = 1, uses_anonymous_args = 0
  33              		.movsp ip
  34 0000 0DC0A0E1 		mov	ip, sp
  35              	.LCFI0:
  36              		.cfi_def_cfa_register 12
  37 0004 00D82DE9 		stmfd	sp!, {fp, ip, lr, pc}
  38              		.pad #4
  39              		.save {fp, ip, lr}
  40              		.setfp fp, ip, #-4
  41 0008 04B04CE2 		sub	fp, ip, #4
  42              		.cfi_offset 14, -8
ARM GAS  C:\DOCUME~1\ADMINI~1\LOCALS~1\Temp\cc2xsWEz.s 			page 2


  43              		.cfi_offset 13, -12
  44              		.cfi_offset 11, -16
  45              	.LCFI1:
  46              		.cfi_def_cfa 11, 4
  47              		.pad #16
  48 000c 10D04DE2 		sub	sp, sp, #16
  49 0010 18000BE5 		str	r0, [fp, #-24]
  12:../srccode/unoptimize.c ****     U32 i;
  13:../srccode/unoptimize.c ****     U32 j;
  14:../srccode/unoptimize.c **** 
  15:../srccode/unoptimize.c ****     j = 1265 * uiMs;
  50              		.loc 1 15 0
  51 0014 18201BE5 		ldr	r2, [fp, #-24]
  52 0018 0230A0E1 		mov	r3, r2
  53 001c 0333A0E1 		mov	r3, r3, asl #6
  54 0020 033062E0 		rsb	r3, r2, r3
  55 0024 0331A0E1 		mov	r3, r3, asl #2
  56 0028 023083E0 		add	r3, r3, r2
  57 002c 0321A0E1 		mov	r2, r3, asl #2
  58 0030 023083E0 		add	r3, r3, r2
  59 0034 14300BE5 		str	r3, [fp, #-20]
  16:../srccode/unoptimize.c **** 
  17:../srccode/unoptimize.c ****     for(i = 0; ; i++)
  60              		.loc 1 17 0
  61 0038 0030A0E3 		mov	r3, #0
  62 003c 10300BE5 		str	r3, [fp, #-16]
  63              	.L3:
  18:../srccode/unoptimize.c ****     {
  19:../srccode/unoptimize.c ****         if(i == j)
  64              		.loc 1 19 0
  65 0040 10201BE5 		ldr	r2, [fp, #-16]
  66 0044 14301BE5 		ldr	r3, [fp, #-20]
  67 0048 030052E1 		cmp	r2, r3
  68 004c 0300000A 		beq	.L5
  69              	.L2:
  17:../srccode/unoptimize.c ****     for(i = 0; ; i++)
  70              		.loc 1 17 0
  71 0050 10301BE5 		ldr	r3, [fp, #-16]
  72 0054 013083E2 		add	r3, r3, #1
  73 0058 10300BE5 		str	r3, [fp, #-16]
  20:../srccode/unoptimize.c ****         {
  21:../srccode/unoptimize.c ****             break;
  22:../srccode/unoptimize.c ****         }
  23:../srccode/unoptimize.c ****     }
  74              		.loc 1 23 0
  75 005c F7FFFFEA 		b	.L3
  76              	.L5:
  24:../srccode/unoptimize.c **** }
  77              		.loc 1 24 0
  78 0060 0000A0E1 		mov	r0, r0	@ nop
  79              	.L4:
  80 0064 0CD04BE2 		sub	sp, fp, #12
  81 0068 00689DE8 		ldmfd	sp, {fp, sp, lr}
  82 006c 1EFF2FE1 		bx	lr
  83              		.cfi_endproc
  84              	.LFE0:
  85              		.fnend
ARM GAS  C:\DOCUME~1\ADMINI~1\LOCALS~1\Temp\cc2xsWEz.s 			page 3


  86              		.size	DEV_DelayMs, .-DEV_DelayMs
  87              	.Letext0:
 352              		.section	.note.GNU-stack,"",%progbits
ARM GAS  C:\DOCUME~1\ADMINI~1\LOCALS~1\Temp\cc2xsWEz.s 			page 9

