ARM GAS  C:\DOCUME~1\ADMINI~1\LOCALS~1\Temp\cctyr4zd.s 			page 1


   1              		.cpu arm7tdmi
   2              		.fpu softvfp
   3              		.eabi_attribute 20, 1
   4              		.eabi_attribute 21, 1
   5              		.eabi_attribute 23, 3
   6              		.eabi_attribute 24, 1
   7              		.eabi_attribute 25, 1
   8              		.eabi_attribute 26, 2
   9              		.eabi_attribute 30, 2
  10              		.eabi_attribute 18, 4
  11              		.file	"wlx_core_c.c"
  18 0000 C2000000 		.text
  18      02003900 
  18      00000201 
  18      FB0E0D00 
  18      01010101 
  19              	.Ltext0:
  20              		.cfi_sections	.debug_frame
  21              		.align	2
  22              		.global	WLX_TaskInit
  23              		.type	WLX_TaskInit, %function
  24              	WLX_TaskInit:
  25              		.fnstart
  26              	.LFB0:
  27              		.file 1 "../wanlix/wlx_core_c.c"
   1:../wanlix/wlx_core_c.c **** 
   2:../wanlix/wlx_core_c.c **** #include "wlx_core_c.h"
   3:../wanlix/wlx_core_c.c **** 
   4:../wanlix/wlx_core_c.c **** 
   5:../wanlix/wlx_core_c.c **** U32 guiCurTask;                 /* 当前运行的任务 */
   6:../wanlix/wlx_core_c.c **** U32 guiNextTaskSp;              /* 将要运行的任务堆栈指针 */
   7:../wanlix/wlx_core_c.c **** U32* gpuiCurTaskSpAddr;         /* 存放当前运行任务堆栈指针的地址 */
   8:../wanlix/wlx_core_c.c **** 
   9:../wanlix/wlx_core_c.c **** U32 guiTask1CurSp;              /* 任务1当前的堆栈指针 */
  10:../wanlix/wlx_core_c.c **** U32 guiTask2CurSp;              /* 任务2当前的堆栈指针 */
  11:../wanlix/wlx_core_c.c **** 
  12:../wanlix/wlx_core_c.c **** 
  13:../wanlix/wlx_core_c.c **** /***********************************************************************************
  14:../wanlix/wlx_core_c.c **** 函数功能: 创建任务运行前的状态.
  15:../wanlix/wlx_core_c.c **** 入口参数: ucTask: 运行的任务, 1或者2.
  16:../wanlix/wlx_core_c.c ****           vfFuncPointer: 任务运行的函数指针.
  17:../wanlix/wlx_core_c.c ****           puiTaskStack: 任务使用的堆栈地址.
  18:../wanlix/wlx_core_c.c **** 返 回 值: none.
  19:../wanlix/wlx_core_c.c **** ***********************************************************************************/
  20:../wanlix/wlx_core_c.c **** void WLX_TaskInit(U8 ucTask, VFUNC vfFuncPointer, U32* puiTaskStack)
  21:../wanlix/wlx_core_c.c **** {
  28              		.loc 1 21 0
  29              		.cfi_startproc
  30              		@ Function supports interworking.
  31              		@ args = 0, pretend = 0, frame = 40
  32              		@ frame_needed = 0, uses_anonymous_args = 0
ARM GAS  C:\DOCUME~1\ADMINI~1\LOCALS~1\Temp\cctyr4zd.s 			page 2


  33              		@ link register save eliminated.
  34              	.LVL0:
  35 0000 F0072DE9 		stmfd	sp!, {r4, r5, r6, r7, r8, r9, sl}
  36              		.save {r4, r5, r6, r7, r8, r9, sl}
  37              	.LCFI0:
  38              		.cfi_def_cfa_offset 28
  22:../wanlix/wlx_core_c.c ****     U32* puiSp;
  23:../wanlix/wlx_core_c.c **** 
  24:../wanlix/wlx_core_c.c ****     /* 对堆栈初始化 */
  25:../wanlix/wlx_core_c.c ****     puiSp = puiTaskStack;               /* 获取堆栈指针 */
  26:../wanlix/wlx_core_c.c **** 
  27:../wanlix/wlx_core_c.c ****     *(--puiSp) = (U32)vfFuncPointer;    /* R14 */
  28:../wanlix/wlx_core_c.c ****     *(--puiSp) = (U32)puiTaskStack;     /* R13 */
  29:../wanlix/wlx_core_c.c ****     *(--puiSp) = 0;                     /* R12 */
  30:../wanlix/wlx_core_c.c ****     *(--puiSp) = 0;                     /* R11 */
  31:../wanlix/wlx_core_c.c ****     *(--puiSp) = 0;                     /* R10 */
  32:../wanlix/wlx_core_c.c ****     *(--puiSp) = 0;                     /* R9 */
  33:../wanlix/wlx_core_c.c ****     *(--puiSp) = 0;                     /* R8 */
  34:../wanlix/wlx_core_c.c ****     *(--puiSp) = 0;                     /* R7 */
  35:../wanlix/wlx_core_c.c ****     *(--puiSp) = 0;                     /* R6 */
  36:../wanlix/wlx_core_c.c ****     *(--puiSp) = 0;                     /* R5 */
  39              		.loc 1 36 0
  40 0004 283042E2 		sub	r3, r2, #40
  21:../wanlix/wlx_core_c.c **** {
  41              		.loc 1 21 0
  42              		.pad #44
  43 0008 2CD04DE2 		sub	sp, sp, #44
  44              	.LCFI1:
  45              		.cfi_def_cfa_offset 72
  31:../wanlix/wlx_core_c.c ****     *(--puiSp) = 0;                     /* R10 */
  46              		.loc 1 31 0
  47 000c 148042E2 		sub	r8, r2, #20
  48              		.cfi_offset 10, -4
  49              		.cfi_offset 9, -8
  50              		.cfi_offset 8, -12
  51              		.cfi_offset 7, -16
  52              		.cfi_offset 6, -20
  53              		.cfi_offset 5, -24
  54              		.cfi_offset 4, -28
  55 0010 04808DE5 		str	r8, [sp, #4]
  56              	.LVL1:
  57              		.loc 1 36 0
  58 0014 10308DE5 		str	r3, [sp, #16]
  32:../wanlix/wlx_core_c.c ****     *(--puiSp) = 0;                     /* R9 */
  59              		.loc 1 32 0
  60 0018 188042E2 		sub	r8, r2, #24
  61              	.LVL2:
  35:../wanlix/wlx_core_c.c ****     *(--puiSp) = 0;                     /* R6 */
  62              		.loc 1 35 0
  63 001c 24C042E2 		sub	ip, r2, #36
  37:../wanlix/wlx_core_c.c ****     *(--puiSp) = 0;                     /* R4 */
  38:../wanlix/wlx_core_c.c ****     *(--puiSp) = 0;                     /* R3 */
  64              		.loc 1 38 0
  65 0020 083043E2 		sub	r3, r3, #8
  35:../wanlix/wlx_core_c.c ****     *(--puiSp) = 0;                     /* R6 */
  66              		.loc 1 35 0
  67 0024 0CC08DE5 		str	ip, [sp, #12]
ARM GAS  C:\DOCUME~1\ADMINI~1\LOCALS~1\Temp\cctyr4zd.s 			page 3


  68              	.LVL3:
  69              		.loc 1 38 0
  70 0028 18308DE5 		str	r3, [sp, #24]
  37:../wanlix/wlx_core_c.c ****     *(--puiSp) = 0;                     /* R4 */
  71              		.loc 1 37 0
  72 002c 14C048E2 		sub	ip, r8, #20
  39:../wanlix/wlx_core_c.c ****     *(--puiSp) = 0;                     /* R2 */
  40:../wanlix/wlx_core_c.c ****     *(--puiSp) = 0;                     /* R1 */
  73              		.loc 1 40 0
  74 0030 083043E2 		sub	r3, r3, #8
  75 0034 20308DE5 		str	r3, [sp, #32]
  37:../wanlix/wlx_core_c.c ****     *(--puiSp) = 0;                     /* R4 */
  76              		.loc 1 37 0
  77 0038 14C08DE5 		str	ip, [sp, #20]
  78              	.LVL4:
  39:../wanlix/wlx_core_c.c ****     *(--puiSp) = 0;                     /* R2 */
  79              		.loc 1 39 0
  80 003c 08C04CE2 		sub	ip, ip, #8
  81 0040 1CC08DE5 		str	ip, [sp, #28]
  82              	.LVL5:
  41:../wanlix/wlx_core_c.c ****     *(--puiSp) = 0;                     /* R0 */
  83              		.loc 1 41 0
  84 0044 20C09DE5 		ldr	ip, [sp, #32]
  29:../wanlix/wlx_core_c.c ****     *(--puiSp) = 0;                     /* R12 */
  85              		.loc 1 29 0
  86 0048 0030A0E3 		mov	r3, #0
  87              	.LVL6:
  88              		.loc 1 41 0
  89 004c 04C04CE2 		sub	ip, ip, #4
  90              	.LVL7:
  42:../wanlix/wlx_core_c.c ****     *(--puiSp) = MODE_USR;              /* CPSR */
  43:../wanlix/wlx_core_c.c **** 
  44:../wanlix/wlx_core_c.c ****     /* 记录当前任务的堆栈指针, 下次运行这个任务时可根据该值恢复堆栈 */
  45:../wanlix/wlx_core_c.c ****     if(1 == ucTask)
  91              		.loc 1 45 0
  92 0050 010050E3 		cmp	r0, #1
  32:../wanlix/wlx_core_c.c ****     *(--puiSp) = 0;                     /* R9 */
  93              		.loc 1 32 0
  94 0054 04009DE5 		ldr	r0, [sp, #4]
  95              	.LVL8:
  41:../wanlix/wlx_core_c.c ****     *(--puiSp) = 0;                     /* R0 */
  96              		.loc 1 41 0
  97 0058 24C08DE5 		str	ip, [sp, #36]
  98              	.LVL9:
  27:../wanlix/wlx_core_c.c ****     *(--puiSp) = (U32)vfFuncPointer;    /* R14 */
  99              		.loc 1 27 0
 100 005c 041002E5 		str	r1, [r2, #-4]
  29:../wanlix/wlx_core_c.c ****     *(--puiSp) = 0;                     /* R12 */
 101              		.loc 1 29 0
 102 0060 0C3002E5 		str	r3, [r2, #-12]
  30:../wanlix/wlx_core_c.c ****     *(--puiSp) = 0;                     /* R11 */
 103              		.loc 1 30 0
 104 0064 103002E5 		str	r3, [r2, #-16]
  31:../wanlix/wlx_core_c.c ****     *(--puiSp) = 0;                     /* R10 */
 105              		.loc 1 31 0
 106 0068 143002E5 		str	r3, [r2, #-20]
  28:../wanlix/wlx_core_c.c ****     *(--puiSp) = (U32)puiTaskStack;     /* R13 */
ARM GAS  C:\DOCUME~1\ADMINI~1\LOCALS~1\Temp\cctyr4zd.s 			page 4


 107              		.loc 1 28 0
 108 006c 082002E5 		str	r2, [r2, #-8]
  36:../wanlix/wlx_core_c.c ****     *(--puiSp) = 0;                     /* R5 */
 109              		.loc 1 36 0
 110 0070 0C209DE5 		ldr	r2, [sp, #12]
 111              	.LVL10:
  32:../wanlix/wlx_core_c.c ****     *(--puiSp) = 0;                     /* R9 */
 112              		.loc 1 32 0
 113 0074 043000E5 		str	r3, [r0, #-4]
  42:../wanlix/wlx_core_c.c ****     *(--puiSp) = MODE_USR;              /* CPSR */
 114              		.loc 1 42 0
 115 0078 04104CE2 		sub	r1, ip, #4
 116              	.LVL11:
  38:../wanlix/wlx_core_c.c ****     *(--puiSp) = 0;                     /* R3 */
 117              		.loc 1 38 0
 118 007c 14009DE5 		ldr	r0, [sp, #20]
  37:../wanlix/wlx_core_c.c ****     *(--puiSp) = 0;                     /* R4 */
 119              		.loc 1 37 0
 120 0080 10C09DE5 		ldr	ip, [sp, #16]
 121              	.LVL12:
  33:../wanlix/wlx_core_c.c ****     *(--puiSp) = 0;                     /* R8 */
 122              		.loc 1 33 0
 123 0084 043008E5 		str	r3, [r8, #-4]
  34:../wanlix/wlx_core_c.c ****     *(--puiSp) = 0;                     /* R7 */
 124              		.loc 1 34 0
 125 0088 083008E5 		str	r3, [r8, #-8]
  35:../wanlix/wlx_core_c.c ****     *(--puiSp) = 0;                     /* R6 */
 126              		.loc 1 35 0
 127 008c 0C3008E5 		str	r3, [r8, #-12]
  36:../wanlix/wlx_core_c.c ****     *(--puiSp) = 0;                     /* R5 */
 128              		.loc 1 36 0
 129 0090 043002E5 		str	r3, [r2, #-4]
  39:../wanlix/wlx_core_c.c ****     *(--puiSp) = 0;                     /* R2 */
 130              		.loc 1 39 0
 131 0094 18209DE5 		ldr	r2, [sp, #24]
  37:../wanlix/wlx_core_c.c ****     *(--puiSp) = 0;                     /* R4 */
 132              		.loc 1 37 0
 133 0098 04300CE5 		str	r3, [ip, #-4]
  38:../wanlix/wlx_core_c.c ****     *(--puiSp) = 0;                     /* R3 */
 134              		.loc 1 38 0
 135 009c 043000E5 		str	r3, [r0, #-4]
  40:../wanlix/wlx_core_c.c ****     *(--puiSp) = 0;                     /* R1 */
 136              		.loc 1 40 0
 137 00a0 1CC09DE5 		ldr	ip, [sp, #28]
  41:../wanlix/wlx_core_c.c ****     *(--puiSp) = 0;                     /* R0 */
 138              		.loc 1 41 0
 139 00a4 20009DE5 		ldr	r0, [sp, #32]
  39:../wanlix/wlx_core_c.c ****     *(--puiSp) = 0;                     /* R2 */
 140              		.loc 1 39 0
 141 00a8 043002E5 		str	r3, [r2, #-4]
  42:../wanlix/wlx_core_c.c ****     *(--puiSp) = MODE_USR;              /* CPSR */
 142              		.loc 1 42 0
 143 00ac 24209DE5 		ldr	r2, [sp, #36]
  40:../wanlix/wlx_core_c.c ****     *(--puiSp) = 0;                     /* R1 */
 144              		.loc 1 40 0
 145 00b0 04300CE5 		str	r3, [ip, #-4]
  41:../wanlix/wlx_core_c.c ****     *(--puiSp) = 0;                     /* R0 */
ARM GAS  C:\DOCUME~1\ADMINI~1\LOCALS~1\Temp\cctyr4zd.s 			page 5


 146              		.loc 1 41 0
 147 00b4 043000E5 		str	r3, [r0, #-4]
  42:../wanlix/wlx_core_c.c ****     *(--puiSp) = MODE_USR;              /* CPSR */
 148              		.loc 1 42 0
 149 00b8 1030A0E3 		mov	r3, #16
 150 00bc 043002E5 		str	r3, [r2, #-4]
  46:../wanlix/wlx_core_c.c ****     {
  47:../wanlix/wlx_core_c.c ****         guiTask1CurSp = (U32)puiSp;
 151              		.loc 1 47 0
 152 00c0 10309F05 		ldreq	r3, .L4
  48:../wanlix/wlx_core_c.c ****     }
  49:../wanlix/wlx_core_c.c ****     else //if(2 == ucTask)
  50:../wanlix/wlx_core_c.c ****     {
  51:../wanlix/wlx_core_c.c ****         guiTask2CurSp = (U32)puiSp;
 153              		.loc 1 51 0
 154 00c4 10309F15 		ldrne	r3, .L4+4
 155 00c8 001083E5 		str	r1, [r3, #0]
  52:../wanlix/wlx_core_c.c ****     }
  53:../wanlix/wlx_core_c.c **** }
 156              		.loc 1 53 0
 157 00cc 2CD08DE2 		add	sp, sp, #44
 158 00d0 F007BDE8 		ldmfd	sp!, {r4, r5, r6, r7, r8, r9, sl}
 159 00d4 1EFF2FE1 		bx	lr
 160              	.L5:
 161              		.align	2
 162              	.L4:
 163 00d8 00000000 		.word	guiTask1CurSp
 164 00dc 00000000 		.word	guiTask2CurSp
 165              		.cfi_endproc
 166              	.LFE0:
 167              		.fnend
 168              		.size	WLX_TaskInit, .-WLX_TaskInit
 169              		.align	2
 170              		.global	WLX_TaskSwitch
 171              		.type	WLX_TaskSwitch, %function
 172              	WLX_TaskSwitch:
 173              		.fnstart
 174              	.LFB1:
  54:../wanlix/wlx_core_c.c **** 
  55:../wanlix/wlx_core_c.c **** /***********************************************************************************
  56:../wanlix/wlx_core_c.c **** 函数功能: 调用该函数将发生任务切换.
  57:../wanlix/wlx_core_c.c **** 入口参数: none.
  58:../wanlix/wlx_core_c.c **** 返 回 值: none.
  59:../wanlix/wlx_core_c.c **** ***********************************************************************************/
  60:../wanlix/wlx_core_c.c **** void WLX_TaskSwitch(void)
  61:../wanlix/wlx_core_c.c **** {
 175              		.loc 1 61 0
 176              		.cfi_startproc
 177              		@ Function supports interworking.
 178              		@ args = 0, pretend = 0, frame = 0
 179              		@ frame_needed = 1, uses_anonymous_args = 0
  62:../wanlix/wlx_core_c.c ****     if(1 == guiCurTask)
 180              		.loc 1 62 0
 181 00e0 70309FE5 		ldr	r3, .L11
 182 00e4 002093E5 		ldr	r2, [r3, #0]
  61:../wanlix/wlx_core_c.c **** {
 183              		.loc 1 61 0
ARM GAS  C:\DOCUME~1\ADMINI~1\LOCALS~1\Temp\cctyr4zd.s 			page 6


 184              		.movsp ip
 185 00e8 0DC0A0E1 		mov	ip, sp
 186              	.LCFI2:
 187              		.cfi_def_cfa_register 12
 188              		.loc 1 62 0
 189 00ec 010052E3 		cmp	r2, #1
  61:../wanlix/wlx_core_c.c **** {
 190              		.loc 1 61 0
 191 00f0 00D82DE9 		stmfd	sp!, {fp, ip, lr, pc}
 192              		.pad #4
 193              		.save {fp, ip, lr}
 194              		.setfp fp, ip, #-4
 195 00f4 04B04CE2 		sub	fp, ip, #4
 196              		.cfi_offset 14, -8
 197              		.cfi_offset 13, -12
 198              		.cfi_offset 11, -16
 199              	.LCFI3:
 200              		.cfi_def_cfa 11, 4
 201              		.loc 1 62 0
 202 00f8 0C00000A 		beq	.L10
  63:../wanlix/wlx_core_c.c ****     {
  64:../wanlix/wlx_core_c.c ****         /* 存入当前任务堆栈指针的地址 */
  65:../wanlix/wlx_core_c.c ****         gpuiCurTaskSpAddr = &guiTask1CurSp;
  66:../wanlix/wlx_core_c.c **** 
  67:../wanlix/wlx_core_c.c ****         /* 获取即将运行任务的堆栈指针 */
  68:../wanlix/wlx_core_c.c ****         guiNextTaskSp = guiTask2CurSp;
  69:../wanlix/wlx_core_c.c **** 
  70:../wanlix/wlx_core_c.c ****         /* 更新下次调度的任务 */
  71:../wanlix/wlx_core_c.c ****         guiCurTask = 2;
  72:../wanlix/wlx_core_c.c ****     }
  73:../wanlix/wlx_core_c.c ****     else //if(2 == guiCurTask)
  74:../wanlix/wlx_core_c.c ****     {
  75:../wanlix/wlx_core_c.c ****         gpuiCurTaskSpAddr = &guiTask2CurSp;
  76:../wanlix/wlx_core_c.c **** 
  77:../wanlix/wlx_core_c.c ****         guiNextTaskSp = guiTask1CurSp;
 203              		.loc 1 77 0
 204 00fc 58109FE5 		ldr	r1, .L11+4
  75:../wanlix/wlx_core_c.c ****         gpuiCurTaskSpAddr = &guiTask2CurSp;
 205              		.loc 1 75 0
 206 0100 58009FE5 		ldr	r0, .L11+8
 207              		.loc 1 77 0
 208 0104 00C091E5 		ldr	ip, [r1, #0]
  75:../wanlix/wlx_core_c.c ****         gpuiCurTaskSpAddr = &guiTask2CurSp;
 209              		.loc 1 75 0
 210 0108 54209FE5 		ldr	r2, .L11+12
 211              		.loc 1 77 0
 212 010c 54E09FE5 		ldr	lr, .L11+16
  78:../wanlix/wlx_core_c.c **** 
  79:../wanlix/wlx_core_c.c ****         guiCurTask = 1;
 213              		.loc 1 79 0
 214 0110 0110A0E3 		mov	r1, #1
  75:../wanlix/wlx_core_c.c ****         gpuiCurTaskSpAddr = &guiTask2CurSp;
 215              		.loc 1 75 0
 216 0114 000082E5 		str	r0, [r2, #0]
  77:../wanlix/wlx_core_c.c ****         guiNextTaskSp = guiTask1CurSp;
 217              		.loc 1 77 0
 218 0118 00C08EE5 		str	ip, [lr, #0]
ARM GAS  C:\DOCUME~1\ADMINI~1\LOCALS~1\Temp\cctyr4zd.s 			page 7


 219              		.loc 1 79 0
 220 011c 001083E5 		str	r1, [r3, #0]
 221              	.L8:
  80:../wanlix/wlx_core_c.c ****     }
  81:../wanlix/wlx_core_c.c **** 
  82:../wanlix/wlx_core_c.c ****     /* 切换任务 */
  83:../wanlix/wlx_core_c.c ****     WLX_ContextSwitch();
 222              		.loc 1 83 0
 223 0120 FEFFFFEB 		bl	WLX_ContextSwitch
  84:../wanlix/wlx_core_c.c **** }
 224              		.loc 1 84 0
 225 0124 0CD04BE2 		sub	sp, fp, #12
 226 0128 00689DE8 		ldmfd	sp, {fp, sp, lr}
 227 012c 1EFF2FE1 		bx	lr
 228              	.L10:
  68:../wanlix/wlx_core_c.c ****         guiNextTaskSp = guiTask2CurSp;
 229              		.loc 1 68 0
 230 0130 28009FE5 		ldr	r0, .L11+8
  65:../wanlix/wlx_core_c.c ****         gpuiCurTaskSpAddr = &guiTask1CurSp;
 231              		.loc 1 65 0
 232 0134 20E09FE5 		ldr	lr, .L11+4
  68:../wanlix/wlx_core_c.c ****         guiNextTaskSp = guiTask2CurSp;
 233              		.loc 1 68 0
 234 0138 001090E5 		ldr	r1, [r0, #0]
  65:../wanlix/wlx_core_c.c ****         gpuiCurTaskSpAddr = &guiTask1CurSp;
 235              		.loc 1 65 0
 236 013c 20209FE5 		ldr	r2, .L11+12
  68:../wanlix/wlx_core_c.c ****         guiNextTaskSp = guiTask2CurSp;
 237              		.loc 1 68 0
 238 0140 20C09FE5 		ldr	ip, .L11+16
  71:../wanlix/wlx_core_c.c ****         guiCurTask = 2;
 239              		.loc 1 71 0
 240 0144 0200A0E3 		mov	r0, #2
  65:../wanlix/wlx_core_c.c ****         gpuiCurTaskSpAddr = &guiTask1CurSp;
 241              		.loc 1 65 0
 242 0148 00E082E5 		str	lr, [r2, #0]
  68:../wanlix/wlx_core_c.c ****         guiNextTaskSp = guiTask2CurSp;
 243              		.loc 1 68 0
 244 014c 00108CE5 		str	r1, [ip, #0]
  71:../wanlix/wlx_core_c.c ****         guiCurTask = 2;
 245              		.loc 1 71 0
 246 0150 000083E5 		str	r0, [r3, #0]
 247 0154 F1FFFFEA 		b	.L8
 248              	.L12:
 249              		.align	2
 250              	.L11:
 251 0158 00000000 		.word	guiCurTask
 252 015c 00000000 		.word	guiTask1CurSp
 253 0160 00000000 		.word	guiTask2CurSp
 254 0164 00000000 		.word	gpuiCurTaskSpAddr
 255 0168 00000000 		.word	guiNextTaskSp
 256              		.cfi_endproc
 257              	.LFE1:
 258              		.fnend
 259              		.size	WLX_TaskSwitch, .-WLX_TaskSwitch
 260              		.align	2
 261              		.global	WLX_TaskStart
ARM GAS  C:\DOCUME~1\ADMINI~1\LOCALS~1\Temp\cctyr4zd.s 			page 8


 262              		.type	WLX_TaskStart, %function
 263              	WLX_TaskStart:
 264              		.fnstart
 265              	.LFB2:
  85:../wanlix/wlx_core_c.c **** 
  86:../wanlix/wlx_core_c.c **** /***********************************************************************************
  87:../wanlix/wlx_core_c.c **** 函数功能: 开始进入任务调度.
  88:../wanlix/wlx_core_c.c **** 入口参数: none.
  89:../wanlix/wlx_core_c.c **** 返 回 值: none.
  90:../wanlix/wlx_core_c.c **** ***********************************************************************************/
  91:../wanlix/wlx_core_c.c **** void WLX_TaskStart(void)
  92:../wanlix/wlx_core_c.c **** {
 266              		.loc 1 92 0
 267              		.cfi_startproc
 268              		@ Function supports interworking.
 269              		@ args = 0, pretend = 0, frame = 0
 270              		@ frame_needed = 1, uses_anonymous_args = 0
  93:../wanlix/wlx_core_c.c ****     /* 任务运行前不需要保存任务堆栈指针 */
  94:../wanlix/wlx_core_c.c ****     gpuiCurTaskSpAddr = (U32*)NULL;
  95:../wanlix/wlx_core_c.c **** 
  96:../wanlix/wlx_core_c.c ****     /* 获取即将运行任务的堆栈指针 */
  97:../wanlix/wlx_core_c.c ****     guiNextTaskSp = guiTask1CurSp;
 271              		.loc 1 97 0
 272 016c 3C209FE5 		ldr	r2, .L14
  92:../wanlix/wlx_core_c.c **** {
 273              		.loc 1 92 0
 274              		.movsp ip
 275 0170 0DC0A0E1 		mov	ip, sp
 276              	.LCFI4:
 277              		.cfi_def_cfa_register 12
 278 0174 00D82DE9 		stmfd	sp!, {fp, ip, lr, pc}
 279              		.pad #4
 280              		.save {fp, ip, lr}
 281              		.loc 1 97 0
 282 0178 000092E5 		ldr	r0, [r2, #0]
  94:../wanlix/wlx_core_c.c ****     gpuiCurTaskSpAddr = (U32*)NULL;
 283              		.loc 1 94 0
 284 017c 30E09FE5 		ldr	lr, .L14+4
 285              		.cfi_offset 14, -8
 286              		.cfi_offset 13, -12
 287              		.cfi_offset 11, -16
 288              		.loc 1 97 0
 289 0180 30109FE5 		ldr	r1, .L14+8
  98:../wanlix/wlx_core_c.c **** 
  99:../wanlix/wlx_core_c.c ****     /* 更新下次调度的任务 */
 100:../wanlix/wlx_core_c.c ****     guiCurTask = 1;
 290              		.loc 1 100 0
 291 0184 30309FE5 		ldr	r3, .L14+12
  92:../wanlix/wlx_core_c.c **** {
 292              		.loc 1 92 0
 293              		.setfp fp, ip, #-4
 294 0188 04B04CE2 		sub	fp, ip, #4
 295              	.LCFI5:
 296              		.cfi_def_cfa 11, 4
 297              		.loc 1 100 0
 298 018c 0120A0E3 		mov	r2, #1
  94:../wanlix/wlx_core_c.c ****     gpuiCurTaskSpAddr = (U32*)NULL;
ARM GAS  C:\DOCUME~1\ADMINI~1\LOCALS~1\Temp\cctyr4zd.s 			page 9


 299              		.loc 1 94 0
 300 0190 00C0A0E3 		mov	ip, #0
 301 0194 00C08EE5 		str	ip, [lr, #0]
  97:../wanlix/wlx_core_c.c ****     guiNextTaskSp = guiTask1CurSp;
 302              		.loc 1 97 0
 303 0198 000081E5 		str	r0, [r1, #0]
 304              		.loc 1 100 0
 305 019c 002083E5 		str	r2, [r3, #0]
 101:../wanlix/wlx_core_c.c **** 
 102:../wanlix/wlx_core_c.c ****     WLX_ContextSwitch();
 306              		.loc 1 102 0
 307 01a0 FEFFFFEB 		bl	WLX_ContextSwitch
 103:../wanlix/wlx_core_c.c **** }
 308              		.loc 1 103 0
 309 01a4 0CD04BE2 		sub	sp, fp, #12
 310 01a8 00689DE8 		ldmfd	sp, {fp, sp, lr}
 311 01ac 1EFF2FE1 		bx	lr
 312              	.L15:
 313              		.align	2
 314              	.L14:
 315 01b0 00000000 		.word	guiTask1CurSp
 316 01b4 00000000 		.word	gpuiCurTaskSpAddr
 317 01b8 00000000 		.word	guiNextTaskSp
 318 01bc 00000000 		.word	guiCurTask
 319              		.cfi_endproc
 320              	.LFE2:
 321              		.fnend
 322              		.size	WLX_TaskStart, .-WLX_TaskStart
 323              		.comm	guiCurTask,4,4
 324              		.comm	guiNextTaskSp,4,4
 325              		.comm	gpuiCurTaskSpAddr,4,4
 326              		.comm	guiTask1CurSp,4,4
 327              		.comm	guiTask2CurSp,4,4
 328              	.Letext0:
 953              		.section	.note.GNU-stack,"",%progbits
ARM GAS  C:\DOCUME~1\ADMINI~1\LOCALS~1\Temp\cctyr4zd.s 			page 23

