ARM GAS  C:\DOCUME~1\ADMINI~1\LOCALS~1\Temp\cctyr4zd.s 			page 1


   1              		.cpu arm7tdmi
   2              		.fpu softvfp
   3              		.eabi_attribute 20, 1
   4              		.eabi_attribute 21, 1
   5              		.eabi_attribute 23, 3
   6              		.eabi_attribute 24, 1
   7              		.eabi_attribute 25, 1
   8              		.eabi_attribute 26, 2
   9              		.eabi_attribute 30, 2
  10              		.eabi_attribute 18, 4
  11              		.file	"wlx_core_c.c"
  12              		.section	.debug_abbrev,"",%progbits
  13              	.Ldebug_abbrev0:
  14              		.section	.debug_info,"",%progbits
  15              	.Ldebug_info0:
  16              		.section	.debug_line,"",%progbits
  17              	.Ldebug_line0:
  18 0000 C2000000 		.text
  18      02003900 
  18      00000201 
  18      FB0E0D00 
  18      01010101 
  19              	.Ltext0:
  20              		.cfi_sections	.debug_frame
  21              		.align	2
  22              		.global	WLX_TaskInit
  23              		.type	WLX_TaskInit, %function
  24              	WLX_TaskInit:
  25              		.fnstart
  26              	.LFB0:
  27              		.file 1 "../wanlix/wlx_core_c.c"
   1:../wanlix/wlx_core_c.c **** 
   2:../wanlix/wlx_core_c.c **** #include "wlx_core_c.h"
   3:../wanlix/wlx_core_c.c **** 
   4:../wanlix/wlx_core_c.c **** 
   5:../wanlix/wlx_core_c.c **** U32 guiCurTask;                 /* 当前运行的任务 */
   6:../wanlix/wlx_core_c.c **** U32 guiNextTaskSp;              /* 将要运行的任务堆栈指针 */
   7:../wanlix/wlx_core_c.c **** U32* gpuiCurTaskSpAddr;         /* 存放当前运行任务堆栈指针的地址 */
   8:../wanlix/wlx_core_c.c **** 
   9:../wanlix/wlx_core_c.c **** U32 guiTask1CurSp;              /* 任务1当前的堆栈指针 */
  10:../wanlix/wlx_core_c.c **** U32 guiTask2CurSp;              /* 任务2当前的堆栈指针 */
  11:../wanlix/wlx_core_c.c **** 
  12:../wanlix/wlx_core_c.c **** 
  13:../wanlix/wlx_core_c.c **** /***********************************************************************************
  14:../wanlix/wlx_core_c.c **** 函数功能: 创建任务运行前的状态.
  15:../wanlix/wlx_core_c.c **** 入口参数: ucTask: 运行的任务, 1或者2.
  16:../wanlix/wlx_core_c.c ****           vfFuncPointer: 任务运行的函数指针.
  17:../wanlix/wlx_core_c.c ****           puiTaskStack: 任务使用的堆栈地址.
  18:../wanlix/wlx_core_c.c **** 返 回 值: none.
  19:../wanlix/wlx_core_c.c **** ***********************************************************************************/
  20:../wanlix/wlx_core_c.c **** void WLX_TaskInit(U8 ucTask, VFUNC vfFuncPointer, U32* puiTaskStack)
  21:../wanlix/wlx_core_c.c **** {
  28              		.loc 1 21 0
  29              		.cfi_startproc
  30              		@ Function supports interworking.
  31              		@ args = 0, pretend = 0, frame = 40
  32              		@ frame_needed = 0, uses_anonymous_args = 0
ARM GAS  C:\DOCUME~1\ADMINI~1\LOCALS~1\Temp\cctyr4zd.s 			page 2


  33              		@ link register save eliminated.
  34              	.LVL0:
  35 0000 F0072DE9 		stmfd	sp!, {r4, r5, r6, r7, r8, r9, sl}
  36              		.save {r4, r5, r6, r7, r8, r9, sl}
  37              	.LCFI0:
  38              		.cfi_def_cfa_offset 28
  22:../wanlix/wlx_core_c.c ****     U32* puiSp;
  23:../wanlix/wlx_core_c.c **** 
  24:../wanlix/wlx_core_c.c ****     /* 对堆栈初始化 */
  25:../wanlix/wlx_core_c.c ****     puiSp = puiTaskStack;               /* 获取堆栈指针 */
  26:../wanlix/wlx_core_c.c **** 
  27:../wanlix/wlx_core_c.c ****     *(--puiSp) = (U32)vfFuncPointer;    /* R14 */
  28:../wanlix/wlx_core_c.c ****     *(--puiSp) = (U32)puiTaskStack;     /* R13 */
  29:../wanlix/wlx_core_c.c ****     *(--puiSp) = 0;                     /* R12 */
  30:../wanlix/wlx_core_c.c ****     *(--puiSp) = 0;                     /* R11 */
  31:../wanlix/wlx_core_c.c ****     *(--puiSp) = 0;                     /* R10 */
  32:../wanlix/wlx_core_c.c ****     *(--puiSp) = 0;                     /* R9 */
  33:../wanlix/wlx_core_c.c ****     *(--puiSp) = 0;                     /* R8 */
  34:../wanlix/wlx_core_c.c ****     *(--puiSp) = 0;                     /* R7 */
  35:../wanlix/wlx_core_c.c ****     *(--puiSp) = 0;                     /* R6 */
  36:../wanlix/wlx_core_c.c ****     *(--puiSp) = 0;                     /* R5 */
  39              		.loc 1 36 0
  40 0004 283042E2 		sub	r3, r2, #40
  21:../wanlix/wlx_core_c.c **** {
  41              		.loc 1 21 0
  42              		.pad #44
  43 0008 2CD04DE2 		sub	sp, sp, #44
  44              	.LCFI1:
  45              		.cfi_def_cfa_offset 72
  31:../wanlix/wlx_core_c.c ****     *(--puiSp) = 0;                     /* R10 */
  46              		.loc 1 31 0
  47 000c 148042E2 		sub	r8, r2, #20
  48              		.cfi_offset 10, -4
  49              		.cfi_offset 9, -8
  50              		.cfi_offset 8, -12
  51              		.cfi_offset 7, -16
  52              		.cfi_offset 6, -20
  53              		.cfi_offset 5, -24
  54              		.cfi_offset 4, -28
  55 0010 04808DE5 		str	r8, [sp, #4]
  56              	.LVL1:
  57              		.loc 1 36 0
  58 0014 10308DE5 		str	r3, [sp, #16]
  32:../wanlix/wlx_core_c.c ****     *(--puiSp) = 0;                     /* R9 */
  59              		.loc 1 32 0
  60 0018 188042E2 		sub	r8, r2, #24
  61              	.LVL2:
  35:../wanlix/wlx_core_c.c ****     *(--puiSp) = 0;                     /* R6 */
  62              		.loc 1 35 0
  63 001c 24C042E2 		sub	ip, r2, #36
  37:../wanlix/wlx_core_c.c ****     *(--puiSp) = 0;                     /* R4 */
  38:../wanlix/wlx_core_c.c ****     *(--puiSp) = 0;                     /* R3 */
  64              		.loc 1 38 0
  65 0020 083043E2 		sub	r3, r3, #8
  35:../wanlix/wlx_core_c.c ****     *(--puiSp) = 0;                     /* R6 */
  66              		.loc 1 35 0
  67 0024 0CC08DE5 		str	ip, [sp, #12]
ARM GAS  C:\DOCUME~1\ADMINI~1\LOCALS~1\Temp\cctyr4zd.s 			page 3


  68              	.LVL3:
  69              		.loc 1 38 0
  70 0028 18308DE5 		str	r3, [sp, #24]
  37:../wanlix/wlx_core_c.c ****     *(--puiSp) = 0;                     /* R4 */
  71              		.loc 1 37 0
  72 002c 14C048E2 		sub	ip, r8, #20
  39:../wanlix/wlx_core_c.c ****     *(--puiSp) = 0;                     /* R2 */
  40:../wanlix/wlx_core_c.c ****     *(--puiSp) = 0;                     /* R1 */
  73              		.loc 1 40 0
  74 0030 083043E2 		sub	r3, r3, #8
  75 0034 20308DE5 		str	r3, [sp, #32]
  37:../wanlix/wlx_core_c.c ****     *(--puiSp) = 0;                     /* R4 */
  76              		.loc 1 37 0
  77 0038 14C08DE5 		str	ip, [sp, #20]
  78              	.LVL4:
  39:../wanlix/wlx_core_c.c ****     *(--puiSp) = 0;                     /* R2 */
  79              		.loc 1 39 0
  80 003c 08C04CE2 		sub	ip, ip, #8
  81 0040 1CC08DE5 		str	ip, [sp, #28]
  82              	.LVL5:
  41:../wanlix/wlx_core_c.c ****     *(--puiSp) = 0;                     /* R0 */
  83              		.loc 1 41 0
  84 0044 20C09DE5 		ldr	ip, [sp, #32]
  29:../wanlix/wlx_core_c.c ****     *(--puiSp) = 0;                     /* R12 */
  85              		.loc 1 29 0
  86 0048 0030A0E3 		mov	r3, #0
  87              	.LVL6:
  88              		.loc 1 41 0
  89 004c 04C04CE2 		sub	ip, ip, #4
  90              	.LVL7:
  42:../wanlix/wlx_core_c.c ****     *(--puiSp) = MODE_USR;              /* CPSR */
  43:../wanlix/wlx_core_c.c **** 
  44:../wanlix/wlx_core_c.c ****     /* 记录当前任务的堆栈指针, 下次运行这个任务时可根据该值恢复堆栈 */
  45:../wanlix/wlx_core_c.c ****     if(1 == ucTask)
  91              		.loc 1 45 0
  92 0050 010050E3 		cmp	r0, #1
  32:../wanlix/wlx_core_c.c ****     *(--puiSp) = 0;                     /* R9 */
  93              		.loc 1 32 0
  94 0054 04009DE5 		ldr	r0, [sp, #4]
  95              	.LVL8:
  41:../wanlix/wlx_core_c.c ****     *(--puiSp) = 0;                     /* R0 */
  96              		.loc 1 41 0
  97 0058 24C08DE5 		str	ip, [sp, #36]
  98              	.LVL9:
  27:../wanlix/wlx_core_c.c ****     *(--puiSp) = (U32)vfFuncPointer;    /* R14 */
  99              		.loc 1 27 0
 100 005c 041002E5 		str	r1, [r2, #-4]
  29:../wanlix/wlx_core_c.c ****     *(--puiSp) = 0;                     /* R12 */
 101              		.loc 1 29 0
 102 0060 0C3002E5 		str	r3, [r2, #-12]
  30:../wanlix/wlx_core_c.c ****     *(--puiSp) = 0;                     /* R11 */
 103              		.loc 1 30 0
 104 0064 103002E5 		str	r3, [r2, #-16]
  31:../wanlix/wlx_core_c.c ****     *(--puiSp) = 0;                     /* R10 */
 105              		.loc 1 31 0
 106 0068 143002E5 		str	r3, [r2, #-20]
  28:../wanlix/wlx_core_c.c ****     *(--puiSp) = (U32)puiTaskStack;     /* R13 */
ARM GAS  C:\DOCUME~1\ADMINI~1\LOCALS~1\Temp\cctyr4zd.s 			page 4


 107              		.loc 1 28 0
 108 006c 082002E5 		str	r2, [r2, #-8]
  36:../wanlix/wlx_core_c.c ****     *(--puiSp) = 0;                     /* R5 */
 109              		.loc 1 36 0
 110 0070 0C209DE5 		ldr	r2, [sp, #12]
 111              	.LVL10:
  32:../wanlix/wlx_core_c.c ****     *(--puiSp) = 0;                     /* R9 */
 112              		.loc 1 32 0
 113 0074 043000E5 		str	r3, [r0, #-4]
  42:../wanlix/wlx_core_c.c ****     *(--puiSp) = MODE_USR;              /* CPSR */
 114              		.loc 1 42 0
 115 0078 04104CE2 		sub	r1, ip, #4
 116              	.LVL11:
  38:../wanlix/wlx_core_c.c ****     *(--puiSp) = 0;                     /* R3 */
 117              		.loc 1 38 0
 118 007c 14009DE5 		ldr	r0, [sp, #20]
  37:../wanlix/wlx_core_c.c ****     *(--puiSp) = 0;                     /* R4 */
 119              		.loc 1 37 0
 120 0080 10C09DE5 		ldr	ip, [sp, #16]
 121              	.LVL12:
  33:../wanlix/wlx_core_c.c ****     *(--puiSp) = 0;                     /* R8 */
 122              		.loc 1 33 0
 123 0084 043008E5 		str	r3, [r8, #-4]
  34:../wanlix/wlx_core_c.c ****     *(--puiSp) = 0;                     /* R7 */
 124              		.loc 1 34 0
 125 0088 083008E5 		str	r3, [r8, #-8]
  35:../wanlix/wlx_core_c.c ****     *(--puiSp) = 0;                     /* R6 */
 126              		.loc 1 35 0
 127 008c 0C3008E5 		str	r3, [r8, #-12]
  36:../wanlix/wlx_core_c.c ****     *(--puiSp) = 0;                     /* R5 */
 128              		.loc 1 36 0
 129 0090 043002E5 		str	r3, [r2, #-4]
  39:../wanlix/wlx_core_c.c ****     *(--puiSp) = 0;                     /* R2 */
 130              		.loc 1 39 0
 131 0094 18209DE5 		ldr	r2, [sp, #24]
  37:../wanlix/wlx_core_c.c ****     *(--puiSp) = 0;                     /* R4 */
 132              		.loc 1 37 0
 133 0098 04300CE5 		str	r3, [ip, #-4]
  38:../wanlix/wlx_core_c.c ****     *(--puiSp) = 0;                     /* R3 */
 134              		.loc 1 38 0
 135 009c 043000E5 		str	r3, [r0, #-4]
  40:../wanlix/wlx_core_c.c ****     *(--puiSp) = 0;                     /* R1 */
 136              		.loc 1 40 0
 137 00a0 1CC09DE5 		ldr	ip, [sp, #28]
  41:../wanlix/wlx_core_c.c ****     *(--puiSp) = 0;                     /* R0 */
 138              		.loc 1 41 0
 139 00a4 20009DE5 		ldr	r0, [sp, #32]
  39:../wanlix/wlx_core_c.c ****     *(--puiSp) = 0;                     /* R2 */
 140              		.loc 1 39 0
 141 00a8 043002E5 		str	r3, [r2, #-4]
  42:../wanlix/wlx_core_c.c ****     *(--puiSp) = MODE_USR;              /* CPSR */
 142              		.loc 1 42 0
 143 00ac 24209DE5 		ldr	r2, [sp, #36]
  40:../wanlix/wlx_core_c.c ****     *(--puiSp) = 0;                     /* R1 */
 144              		.loc 1 40 0
 145 00b0 04300CE5 		str	r3, [ip, #-4]
  41:../wanlix/wlx_core_c.c ****     *(--puiSp) = 0;                     /* R0 */
ARM GAS  C:\DOCUME~1\ADMINI~1\LOCALS~1\Temp\cctyr4zd.s 			page 5


 146              		.loc 1 41 0
 147 00b4 043000E5 		str	r3, [r0, #-4]
  42:../wanlix/wlx_core_c.c ****     *(--puiSp) = MODE_USR;              /* CPSR */
 148              		.loc 1 42 0
 149 00b8 1030A0E3 		mov	r3, #16
 150 00bc 043002E5 		str	r3, [r2, #-4]
  46:../wanlix/wlx_core_c.c ****     {
  47:../wanlix/wlx_core_c.c ****         guiTask1CurSp = (U32)puiSp;
 151              		.loc 1 47 0
 152 00c0 10309F05 		ldreq	r3, .L4
  48:../wanlix/wlx_core_c.c ****     }
  49:../wanlix/wlx_core_c.c ****     else //if(2 == ucTask)
  50:../wanlix/wlx_core_c.c ****     {
  51:../wanlix/wlx_core_c.c ****         guiTask2CurSp = (U32)puiSp;
 153              		.loc 1 51 0
 154 00c4 10309F15 		ldrne	r3, .L4+4
 155 00c8 001083E5 		str	r1, [r3, #0]
  52:../wanlix/wlx_core_c.c ****     }
  53:../wanlix/wlx_core_c.c **** }
 156              		.loc 1 53 0
 157 00cc 2CD08DE2 		add	sp, sp, #44
 158 00d0 F007BDE8 		ldmfd	sp!, {r4, r5, r6, r7, r8, r9, sl}
 159 00d4 1EFF2FE1 		bx	lr
 160              	.L5:
 161              		.align	2
 162              	.L4:
 163 00d8 00000000 		.word	guiTask1CurSp
 164 00dc 00000000 		.word	guiTask2CurSp
 165              		.cfi_endproc
 166              	.LFE0:
 167              		.fnend
 168              		.size	WLX_TaskInit, .-WLX_TaskInit
 169              		.align	2
 170              		.global	WLX_TaskSwitch
 171              		.type	WLX_TaskSwitch, %function
 172              	WLX_TaskSwitch:
 173              		.fnstart
 174              	.LFB1:
  54:../wanlix/wlx_core_c.c **** 
  55:../wanlix/wlx_core_c.c **** /***********************************************************************************
  56:../wanlix/wlx_core_c.c **** 函数功能: 调用该函数将发生任务切换.
  57:../wanlix/wlx_core_c.c **** 入口参数: none.
  58:../wanlix/wlx_core_c.c **** 返 回 值: none.
  59:../wanlix/wlx_core_c.c **** ***********************************************************************************/
  60:../wanlix/wlx_core_c.c **** void WLX_TaskSwitch(void)
  61:../wanlix/wlx_core_c.c **** {
 175              		.loc 1 61 0
 176              		.cfi_startproc
 177              		@ Function supports interworking.
 178              		@ args = 0, pretend = 0, frame = 0
 179              		@ frame_needed = 1, uses_anonymous_args = 0
  62:../wanlix/wlx_core_c.c ****     if(1 == guiCurTask)
 180              		.loc 1 62 0
 181 00e0 70309FE5 		ldr	r3, .L11
 182 00e4 002093E5 		ldr	r2, [r3, #0]
  61:../wanlix/wlx_core_c.c **** {
 183              		.loc 1 61 0
ARM GAS  C:\DOCUME~1\ADMINI~1\LOCALS~1\Temp\cctyr4zd.s 			page 6


 184              		.movsp ip
 185 00e8 0DC0A0E1 		mov	ip, sp
 186              	.LCFI2:
 187              		.cfi_def_cfa_register 12
 188              		.loc 1 62 0
 189 00ec 010052E3 		cmp	r2, #1
  61:../wanlix/wlx_core_c.c **** {
 190              		.loc 1 61 0
 191 00f0 00D82DE9 		stmfd	sp!, {fp, ip, lr, pc}
 192              		.pad #4
 193              		.save {fp, ip, lr}
 194              		.setfp fp, ip, #-4
 195 00f4 04B04CE2 		sub	fp, ip, #4
 196              		.cfi_offset 14, -8
 197              		.cfi_offset 13, -12
 198              		.cfi_offset 11, -16
 199              	.LCFI3:
 200              		.cfi_def_cfa 11, 4
 201              		.loc 1 62 0
 202 00f8 0C00000A 		beq	.L10
  63:../wanlix/wlx_core_c.c ****     {
  64:../wanlix/wlx_core_c.c ****         /* 存入当前任务堆栈指针的地址 */
  65:../wanlix/wlx_core_c.c ****         gpuiCurTaskSpAddr = &guiTask1CurSp;
  66:../wanlix/wlx_core_c.c **** 
  67:../wanlix/wlx_core_c.c ****         /* 获取即将运行任务的堆栈指针 */
  68:../wanlix/wlx_core_c.c ****         guiNextTaskSp = guiTask2CurSp;
  69:../wanlix/wlx_core_c.c **** 
  70:../wanlix/wlx_core_c.c ****         /* 更新下次调度的任务 */
  71:../wanlix/wlx_core_c.c ****         guiCurTask = 2;
  72:../wanlix/wlx_core_c.c ****     }
  73:../wanlix/wlx_core_c.c ****     else //if(2 == guiCurTask)
  74:../wanlix/wlx_core_c.c ****     {
  75:../wanlix/wlx_core_c.c ****         gpuiCurTaskSpAddr = &guiTask2CurSp;
  76:../wanlix/wlx_core_c.c **** 
  77:../wanlix/wlx_core_c.c ****         guiNextTaskSp = guiTask1CurSp;
 203              		.loc 1 77 0
 204 00fc 58109FE5 		ldr	r1, .L11+4
  75:../wanlix/wlx_core_c.c ****         gpuiCurTaskSpAddr = &guiTask2CurSp;
 205              		.loc 1 75 0
 206 0100 58009FE5 		ldr	r0, .L11+8
 207              		.loc 1 77 0
 208 0104 00C091E5 		ldr	ip, [r1, #0]
  75:../wanlix/wlx_core_c.c ****         gpuiCurTaskSpAddr = &guiTask2CurSp;
 209              		.loc 1 75 0
 210 0108 54209FE5 		ldr	r2, .L11+12
 211              		.loc 1 77 0
 212 010c 54E09FE5 		ldr	lr, .L11+16
  78:../wanlix/wlx_core_c.c **** 
  79:../wanlix/wlx_core_c.c ****         guiCurTask = 1;
 213              		.loc 1 79 0
 214 0110 0110A0E3 		mov	r1, #1
  75:../wanlix/wlx_core_c.c ****         gpuiCurTaskSpAddr = &guiTask2CurSp;
 215              		.loc 1 75 0
 216 0114 000082E5 		str	r0, [r2, #0]
  77:../wanlix/wlx_core_c.c ****         guiNextTaskSp = guiTask1CurSp;
 217              		.loc 1 77 0
 218 0118 00C08EE5 		str	ip, [lr, #0]
ARM GAS  C:\DOCUME~1\ADMINI~1\LOCALS~1\Temp\cctyr4zd.s 			page 7


 219              		.loc 1 79 0
 220 011c 001083E5 		str	r1, [r3, #0]
 221              	.L8:
  80:../wanlix/wlx_core_c.c ****     }
  81:../wanlix/wlx_core_c.c **** 
  82:../wanlix/wlx_core_c.c ****     /* 切换任务 */
  83:../wanlix/wlx_core_c.c ****     WLX_ContextSwitch();
 222              		.loc 1 83 0
 223 0120 FEFFFFEB 		bl	WLX_ContextSwitch
  84:../wanlix/wlx_core_c.c **** }
 224              		.loc 1 84 0
 225 0124 0CD04BE2 		sub	sp, fp, #12
 226 0128 00689DE8 		ldmfd	sp, {fp, sp, lr}
 227 012c 1EFF2FE1 		bx	lr
 228              	.L10:
  68:../wanlix/wlx_core_c.c ****         guiNextTaskSp = guiTask2CurSp;
 229              		.loc 1 68 0
 230 0130 28009FE5 		ldr	r0, .L11+8
  65:../wanlix/wlx_core_c.c ****         gpuiCurTaskSpAddr = &guiTask1CurSp;
 231              		.loc 1 65 0
 232 0134 20E09FE5 		ldr	lr, .L11+4
  68:../wanlix/wlx_core_c.c ****         guiNextTaskSp = guiTask2CurSp;
 233              		.loc 1 68 0
 234 0138 001090E5 		ldr	r1, [r0, #0]
  65:../wanlix/wlx_core_c.c ****         gpuiCurTaskSpAddr = &guiTask1CurSp;
 235              		.loc 1 65 0
 236 013c 20209FE5 		ldr	r2, .L11+12
  68:../wanlix/wlx_core_c.c ****         guiNextTaskSp = guiTask2CurSp;
 237              		.loc 1 68 0
 238 0140 20C09FE5 		ldr	ip, .L11+16
  71:../wanlix/wlx_core_c.c ****         guiCurTask = 2;
 239              		.loc 1 71 0
 240 0144 0200A0E3 		mov	r0, #2
  65:../wanlix/wlx_core_c.c ****         gpuiCurTaskSpAddr = &guiTask1CurSp;
 241              		.loc 1 65 0
 242 0148 00E082E5 		str	lr, [r2, #0]
  68:../wanlix/wlx_core_c.c ****         guiNextTaskSp = guiTask2CurSp;
 243              		.loc 1 68 0
 244 014c 00108CE5 		str	r1, [ip, #0]
  71:../wanlix/wlx_core_c.c ****         guiCurTask = 2;
 245              		.loc 1 71 0
 246 0150 000083E5 		str	r0, [r3, #0]
 247 0154 F1FFFFEA 		b	.L8
 248              	.L12:
 249              		.align	2
 250              	.L11:
 251 0158 00000000 		.word	guiCurTask
 252 015c 00000000 		.word	guiTask1CurSp
 253 0160 00000000 		.word	guiTask2CurSp
 254 0164 00000000 		.word	gpuiCurTaskSpAddr
 255 0168 00000000 		.word	guiNextTaskSp
 256              		.cfi_endproc
 257              	.LFE1:
 258              		.fnend
 259              		.size	WLX_TaskSwitch, .-WLX_TaskSwitch
 260              		.align	2
 261              		.global	WLX_TaskStart
ARM GAS  C:\DOCUME~1\ADMINI~1\LOCALS~1\Temp\cctyr4zd.s 			page 8


 262              		.type	WLX_TaskStart, %function
 263              	WLX_TaskStart:
 264              		.fnstart
 265              	.LFB2:
  85:../wanlix/wlx_core_c.c **** 
  86:../wanlix/wlx_core_c.c **** /***********************************************************************************
  87:../wanlix/wlx_core_c.c **** 函数功能: 开始进入任务调度.
  88:../wanlix/wlx_core_c.c **** 入口参数: none.
  89:../wanlix/wlx_core_c.c **** 返 回 值: none.
  90:../wanlix/wlx_core_c.c **** ***********************************************************************************/
  91:../wanlix/wlx_core_c.c **** void WLX_TaskStart(void)
  92:../wanlix/wlx_core_c.c **** {
 266              		.loc 1 92 0
 267              		.cfi_startproc
 268              		@ Function supports interworking.
 269              		@ args = 0, pretend = 0, frame = 0
 270              		@ frame_needed = 1, uses_anonymous_args = 0
  93:../wanlix/wlx_core_c.c ****     /* 任务运行前不需要保存任务堆栈指针 */
  94:../wanlix/wlx_core_c.c ****     gpuiCurTaskSpAddr = (U32*)NULL;
  95:../wanlix/wlx_core_c.c **** 
  96:../wanlix/wlx_core_c.c ****     /* 获取即将运行任务的堆栈指针 */
  97:../wanlix/wlx_core_c.c ****     guiNextTaskSp = guiTask1CurSp;
 271              		.loc 1 97 0
 272 016c 3C209FE5 		ldr	r2, .L14
  92:../wanlix/wlx_core_c.c **** {
 273              		.loc 1 92 0
 274              		.movsp ip
 275 0170 0DC0A0E1 		mov	ip, sp
 276              	.LCFI4:
 277              		.cfi_def_cfa_register 12
 278 0174 00D82DE9 		stmfd	sp!, {fp, ip, lr, pc}
 279              		.pad #4
 280              		.save {fp, ip, lr}
 281              		.loc 1 97 0
 282 0178 000092E5 		ldr	r0, [r2, #0]
  94:../wanlix/wlx_core_c.c ****     gpuiCurTaskSpAddr = (U32*)NULL;
 283              		.loc 1 94 0
 284 017c 30E09FE5 		ldr	lr, .L14+4
 285              		.cfi_offset 14, -8
 286              		.cfi_offset 13, -12
 287              		.cfi_offset 11, -16
 288              		.loc 1 97 0
 289 0180 30109FE5 		ldr	r1, .L14+8
  98:../wanlix/wlx_core_c.c **** 
  99:../wanlix/wlx_core_c.c ****     /* 更新下次调度的任务 */
 100:../wanlix/wlx_core_c.c ****     guiCurTask = 1;
 290              		.loc 1 100 0
 291 0184 30309FE5 		ldr	r3, .L14+12
  92:../wanlix/wlx_core_c.c **** {
 292              		.loc 1 92 0
 293              		.setfp fp, ip, #-4
 294 0188 04B04CE2 		sub	fp, ip, #4
 295              	.LCFI5:
 296              		.cfi_def_cfa 11, 4
 297              		.loc 1 100 0
 298 018c 0120A0E3 		mov	r2, #1
  94:../wanlix/wlx_core_c.c ****     gpuiCurTaskSpAddr = (U32*)NULL;
ARM GAS  C:\DOCUME~1\ADMINI~1\LOCALS~1\Temp\cctyr4zd.s 			page 9


 299              		.loc 1 94 0
 300 0190 00C0A0E3 		mov	ip, #0
 301 0194 00C08EE5 		str	ip, [lr, #0]
  97:../wanlix/wlx_core_c.c ****     guiNextTaskSp = guiTask1CurSp;
 302              		.loc 1 97 0
 303 0198 000081E5 		str	r0, [r1, #0]
 304              		.loc 1 100 0
 305 019c 002083E5 		str	r2, [r3, #0]
 101:../wanlix/wlx_core_c.c **** 
 102:../wanlix/wlx_core_c.c ****     WLX_ContextSwitch();
 306              		.loc 1 102 0
 307 01a0 FEFFFFEB 		bl	WLX_ContextSwitch
 103:../wanlix/wlx_core_c.c **** }
 308              		.loc 1 103 0
 309 01a4 0CD04BE2 		sub	sp, fp, #12
 310 01a8 00689DE8 		ldmfd	sp, {fp, sp, lr}
 311 01ac 1EFF2FE1 		bx	lr
 312              	.L15:
 313              		.align	2
 314              	.L14:
 315 01b0 00000000 		.word	guiTask1CurSp
 316 01b4 00000000 		.word	gpuiCurTaskSpAddr
 317 01b8 00000000 		.word	guiNextTaskSp
 318 01bc 00000000 		.word	guiCurTask
 319              		.cfi_endproc
 320              	.LFE2:
 321              		.fnend
 322              		.size	WLX_TaskStart, .-WLX_TaskStart
 323              		.comm	guiCurTask,4,4
 324              		.comm	guiNextTaskSp,4,4
 325              		.comm	gpuiCurTaskSpAddr,4,4
 326              		.comm	guiTask1CurSp,4,4
 327              		.comm	guiTask2CurSp,4,4
 328              	.Letext0:
 329              		.section	.debug_loc,"",%progbits
 330              	.Ldebug_loc0:
 331              	.LLST0:
 332 0000 00000000 		.4byte	.LFB0-.Ltext0
 333 0004 04000000 		.4byte	.LCFI0-.Ltext0
 334 0008 0200     		.2byte	0x2
 335 000a 7D       		.byte	0x7d
 336 000b 00       		.sleb128 0
 337 000c 04000000 		.4byte	.LCFI0-.Ltext0
 338 0010 0C000000 		.4byte	.LCFI1-.Ltext0
 339 0014 0200     		.2byte	0x2
 340 0016 7D       		.byte	0x7d
 341 0017 1C       		.sleb128 28
 342 0018 0C000000 		.4byte	.LCFI1-.Ltext0
 343 001c E0000000 		.4byte	.LFE0-.Ltext0
 344 0020 0300     		.2byte	0x3
 345 0022 7D       		.byte	0x7d
 346 0023 C800     		.sleb128 72
 347 0025 00000000 		.4byte	0x0
 348 0029 00000000 		.4byte	0x0
 349              	.LLST1:
 350 002d 00000000 		.4byte	.LVL0-.Ltext0
 351 0031 58000000 		.4byte	.LVL8-.Ltext0
ARM GAS  C:\DOCUME~1\ADMINI~1\LOCALS~1\Temp\cctyr4zd.s 			page 10


 352 0035 0100     		.2byte	0x1
 353 0037 50       		.byte	0x50
 354 0038 00000000 		.4byte	0x0
 355 003c 00000000 		.4byte	0x0
 356              	.LLST2:
 357 0040 00000000 		.4byte	.LVL0-.Ltext0
 358 0044 7C000000 		.4byte	.LVL11-.Ltext0
 359 0048 0100     		.2byte	0x1
 360 004a 51       		.byte	0x51
 361 004b 7C000000 		.4byte	.LVL11-.Ltext0
 362 004f E0000000 		.4byte	.LFE0-.Ltext0
 363 0053 0200     		.2byte	0x2
 364 0055 78       		.byte	0x78
 365 0056 14       		.sleb128 20
 366 0057 00000000 		.4byte	0x0
 367 005b 00000000 		.4byte	0x0
 368              	.LLST3:
 369 005f 00000000 		.4byte	.LVL0-.Ltext0
 370 0063 74000000 		.4byte	.LVL10-.Ltext0
 371 0067 0100     		.2byte	0x1
 372 0069 52       		.byte	0x52
 373 006a 74000000 		.4byte	.LVL10-.Ltext0
 374 006e 7C000000 		.4byte	.LVL11-.Ltext0
 375 0072 0600     		.2byte	0x6
 376 0074 91       		.byte	0x91
 377 0075 40       		.sleb128 -64
 378 0076 06       		.byte	0x6
 379 0077 23       		.byte	0x23
 380 0078 28       		.uleb128 0x28
 381 0079 9F       		.byte	0x9f
 382 007a 84000000 		.4byte	.LVL12-.Ltext0
 383 007e E0000000 		.4byte	.LFE0-.Ltext0
 384 0082 0300     		.2byte	0x3
 385 0084 78       		.byte	0x78
 386 0085 18       		.sleb128 24
 387 0086 9F       		.byte	0x9f
 388 0087 00000000 		.4byte	0x0
 389 008b 00000000 		.4byte	0x0
 390              	.LLST4:
 391 008f 00000000 		.4byte	.LVL0-.Ltext0
 392 0093 14000000 		.4byte	.LVL1-.Ltext0
 393 0097 0100     		.2byte	0x1
 394 0099 54       		.byte	0x54
 395 009a 14000000 		.4byte	.LVL1-.Ltext0
 396 009e 1C000000 		.4byte	.LVL2-.Ltext0
 397 00a2 0100     		.2byte	0x1
 398 00a4 58       		.byte	0x58
 399 00a5 1C000000 		.4byte	.LVL2-.Ltext0
 400 00a9 28000000 		.4byte	.LVL3-.Ltext0
 401 00ad 0100     		.2byte	0x1
 402 00af 59       		.byte	0x59
 403 00b0 28000000 		.4byte	.LVL3-.Ltext0
 404 00b4 3C000000 		.4byte	.LVL4-.Ltext0
 405 00b8 0200     		.2byte	0x2
 406 00ba 91       		.byte	0x91
 407 00bb 40       		.sleb128 -64
 408 00bc 3C000000 		.4byte	.LVL4-.Ltext0
ARM GAS  C:\DOCUME~1\ADMINI~1\LOCALS~1\Temp\cctyr4zd.s 			page 11


 409 00c0 44000000 		.4byte	.LVL5-.Ltext0
 410 00c4 0200     		.2byte	0x2
 411 00c6 91       		.byte	0x91
 412 00c7 48       		.sleb128 -56
 413 00c8 44000000 		.4byte	.LVL5-.Ltext0
 414 00cc 4C000000 		.4byte	.LVL6-.Ltext0
 415 00d0 0100     		.2byte	0x1
 416 00d2 53       		.byte	0x53
 417 00d3 4C000000 		.4byte	.LVL6-.Ltext0
 418 00d7 50000000 		.4byte	.LVL7-.Ltext0
 419 00db 0100     		.2byte	0x1
 420 00dd 5C       		.byte	0x5c
 421 00de 50000000 		.4byte	.LVL7-.Ltext0
 422 00e2 5C000000 		.4byte	.LVL9-.Ltext0
 423 00e6 0200     		.2byte	0x2
 424 00e8 91       		.byte	0x91
 425 00e9 50       		.sleb128 -48
 426 00ea 5C000000 		.4byte	.LVL9-.Ltext0
 427 00ee 7C000000 		.4byte	.LVL11-.Ltext0
 428 00f2 0100     		.2byte	0x1
 429 00f4 5C       		.byte	0x5c
 430 00f5 7C000000 		.4byte	.LVL11-.Ltext0
 431 00f9 E0000000 		.4byte	.LFE0-.Ltext0
 432 00fd 0100     		.2byte	0x1
 433 00ff 51       		.byte	0x51
 434 0100 00000000 		.4byte	0x0
 435 0104 00000000 		.4byte	0x0
 436              	.LLST5:
 437 0108 E0000000 		.4byte	.LFB1-.Ltext0
 438 010c EC000000 		.4byte	.LCFI2-.Ltext0
 439 0110 0200     		.2byte	0x2
 440 0112 7D       		.byte	0x7d
 441 0113 00       		.sleb128 0
 442 0114 EC000000 		.4byte	.LCFI2-.Ltext0
 443 0118 F8000000 		.4byte	.LCFI3-.Ltext0
 444 011c 0200     		.2byte	0x2
 445 011e 7C       		.byte	0x7c
 446 011f 00       		.sleb128 0
 447 0120 F8000000 		.4byte	.LCFI3-.Ltext0
 448 0124 6C010000 		.4byte	.LFE1-.Ltext0
 449 0128 0200     		.2byte	0x2
 450 012a 7B       		.byte	0x7b
 451 012b 04       		.sleb128 4
 452 012c 00000000 		.4byte	0x0
 453 0130 00000000 		.4byte	0x0
 454              	.LLST6:
 455 0134 6C010000 		.4byte	.LFB2-.Ltext0
 456 0138 74010000 		.4byte	.LCFI4-.Ltext0
 457 013c 0200     		.2byte	0x2
 458 013e 7D       		.byte	0x7d
 459 013f 00       		.sleb128 0
 460 0140 74010000 		.4byte	.LCFI4-.Ltext0
 461 0144 8C010000 		.4byte	.LCFI5-.Ltext0
 462 0148 0200     		.2byte	0x2
 463 014a 7C       		.byte	0x7c
 464 014b 00       		.sleb128 0
 465 014c 8C010000 		.4byte	.LCFI5-.Ltext0
ARM GAS  C:\DOCUME~1\ADMINI~1\LOCALS~1\Temp\cctyr4zd.s 			page 12


 466 0150 C0010000 		.4byte	.LFE2-.Ltext0
 467 0154 0200     		.2byte	0x2
 468 0156 7B       		.byte	0x7b
 469 0157 04       		.sleb128 4
 470 0158 00000000 		.4byte	0x0
 471 015c 00000000 		.4byte	0x0
 472              		.file 2 "../wanlix/wanlix.h"
 473              		.section	.debug_info
 474 0000 95010000 		.4byte	0x195
 475 0004 0200     		.2byte	0x2
 476 0006 00000000 		.4byte	.Ldebug_abbrev0
 477 000a 04       		.byte	0x4
 478 000b 01       		.uleb128 0x1
 479 000c 00000000 		.4byte	.LASF16
 480 0010 01       		.byte	0x1
 481 0011 1F010000 		.4byte	.LASF17
 482 0015 57000000 		.4byte	.LASF18
 483 0019 00000000 		.4byte	.Ltext0
 484 001d C0010000 		.4byte	.Letext0
 485 0021 00000000 		.4byte	.Ldebug_line0
 486 0025 02       		.uleb128 0x2
 487 0026 553800   		.ascii	"U8\000"
 488 0029 02       		.byte	0x2
 489 002a 07       		.byte	0x7
 490 002b 2F000000 		.4byte	0x2f
 491 002f 03       		.uleb128 0x3
 492 0030 01       		.byte	0x1
 493 0031 08       		.byte	0x8
 494 0032 C5000000 		.4byte	.LASF0
 495 0036 03       		.uleb128 0x3
 496 0037 02       		.byte	0x2
 497 0038 07       		.byte	0x7
 498 0039 FA000000 		.4byte	.LASF1
 499 003d 02       		.uleb128 0x2
 500 003e 55333200 		.ascii	"U32\000"
 501 0042 02       		.byte	0x2
 502 0043 09       		.byte	0x9
 503 0044 48000000 		.4byte	0x48
 504 0048 03       		.uleb128 0x3
 505 0049 04       		.byte	0x4
 506 004a 07       		.byte	0x7
 507 004b 0C000000 		.4byte	.LASF2
 508 004f 03       		.uleb128 0x3
 509 0050 01       		.byte	0x1
 510 0051 08       		.byte	0x8
 511 0052 D3000000 		.4byte	.LASF3
 512 0056 03       		.uleb128 0x3
 513 0057 02       		.byte	0x2
 514 0058 05       		.byte	0x5
 515 0059 44010000 		.4byte	.LASF4
 516 005d 04       		.uleb128 0x4
 517 005e 04       		.byte	0x4
 518 005f 05       		.byte	0x5
 519 0060 696E7400 		.ascii	"int\000"
 520 0064 05       		.uleb128 0x5
 521 0065 F4000000 		.4byte	.LASF5
 522 0069 02       		.byte	0x2
ARM GAS  C:\DOCUME~1\ADMINI~1\LOCALS~1\Temp\cctyr4zd.s 			page 13


 523 006a 0D       		.byte	0xd
 524 006b 6F000000 		.4byte	0x6f
 525 006f 06       		.uleb128 0x6
 526 0070 04       		.byte	0x4
 527 0071 75000000 		.4byte	0x75
 528 0075 07       		.uleb128 0x7
 529 0076 01       		.byte	0x1
 530 0077 08       		.uleb128 0x8
 531 0078 01       		.byte	0x1
 532 0079 B1000000 		.4byte	.LASF19
 533 007d 01       		.byte	0x1
 534 007e 14       		.byte	0x14
 535 007f 01       		.byte	0x1
 536 0080 00000000 		.4byte	.LFB0
 537 0084 E0000000 		.4byte	.LFE0
 538 0088 00000000 		.4byte	.LLST0
 539 008c CD000000 		.4byte	0xcd
 540 0090 09       		.uleb128 0x9
 541 0091 BE000000 		.4byte	.LASF6
 542 0095 01       		.byte	0x1
 543 0096 14       		.byte	0x14
 544 0097 25000000 		.4byte	0x25
 545 009b 2D000000 		.4byte	.LLST1
 546 009f 09       		.uleb128 0x9
 547 00a0 E6000000 		.4byte	.LASF7
 548 00a4 01       		.byte	0x1
 549 00a5 14       		.byte	0x14
 550 00a6 64000000 		.4byte	0x64
 551 00aa 40000000 		.4byte	.LLST2
 552 00ae 09       		.uleb128 0x9
 553 00af 28000000 		.4byte	.LASF8
 554 00b3 01       		.byte	0x1
 555 00b4 14       		.byte	0x14
 556 00b5 CD000000 		.4byte	0xcd
 557 00b9 5F000000 		.4byte	.LLST3
 558 00bd 0A       		.uleb128 0xa
 559 00be 43000000 		.4byte	.LASF20
 560 00c2 01       		.byte	0x1
 561 00c3 16       		.byte	0x16
 562 00c4 CD000000 		.4byte	0xcd
 563 00c8 8F000000 		.4byte	.LLST4
 564 00cc 00       		.byte	0x0
 565 00cd 06       		.uleb128 0x6
 566 00ce 04       		.byte	0x4
 567 00cf 3D000000 		.4byte	0x3d
 568 00d3 0B       		.uleb128 0xb
 569 00d4 01       		.byte	0x1
 570 00d5 19000000 		.4byte	.LASF9
 571 00d9 01       		.byte	0x1
 572 00da 3C       		.byte	0x3c
 573 00db 01       		.byte	0x1
 574 00dc E0000000 		.4byte	.LFB1
 575 00e0 6C010000 		.4byte	.LFE1
 576 00e4 08010000 		.4byte	.LLST5
 577 00e8 0B       		.uleb128 0xb
 578 00e9 01       		.byte	0x1
 579 00ea 49000000 		.4byte	.LASF10
ARM GAS  C:\DOCUME~1\ADMINI~1\LOCALS~1\Temp\cctyr4zd.s 			page 14


 580 00ee 01       		.byte	0x1
 581 00ef 5B       		.byte	0x5b
 582 00f0 01       		.byte	0x1
 583 00f1 6C010000 		.4byte	.LFB2
 584 00f5 C0010000 		.4byte	.LFE2
 585 00f9 34010000 		.4byte	.LLST6
 586 00fd 0C       		.uleb128 0xc
 587 00fe 4E010000 		.4byte	.LASF11
 588 0102 01       		.byte	0x1
 589 0103 05       		.byte	0x5
 590 0104 3D000000 		.4byte	0x3d
 591 0108 01       		.byte	0x1
 592 0109 01       		.byte	0x1
 593 010a 0C       		.uleb128 0xc
 594 010b 35000000 		.4byte	.LASF12
 595 010f 01       		.byte	0x1
 596 0110 06       		.byte	0x6
 597 0111 3D000000 		.4byte	0x3d
 598 0115 01       		.byte	0x1
 599 0116 01       		.byte	0x1
 600 0117 0C       		.uleb128 0xc
 601 0118 0D010000 		.4byte	.LASF13
 602 011c 01       		.byte	0x1
 603 011d 07       		.byte	0x7
 604 011e CD000000 		.4byte	0xcd
 605 0122 01       		.byte	0x1
 606 0123 01       		.byte	0x1
 607 0124 0C       		.uleb128 0xc
 608 0125 36010000 		.4byte	.LASF14
 609 0129 01       		.byte	0x1
 610 012a 09       		.byte	0x9
 611 012b 3D000000 		.4byte	0x3d
 612 012f 01       		.byte	0x1
 613 0130 01       		.byte	0x1
 614 0131 0C       		.uleb128 0xc
 615 0132 D8000000 		.4byte	.LASF15
 616 0136 01       		.byte	0x1
 617 0137 0A       		.byte	0xa
 618 0138 3D000000 		.4byte	0x3d
 619 013c 01       		.byte	0x1
 620 013d 01       		.byte	0x1
 621 013e 0D       		.uleb128 0xd
 622 013f 4E010000 		.4byte	.LASF11
 623 0143 01       		.byte	0x1
 624 0144 05       		.byte	0x5
 625 0145 3D000000 		.4byte	0x3d
 626 0149 01       		.byte	0x1
 627 014a 05       		.byte	0x5
 628 014b 03       		.byte	0x3
 629 014c 00000000 		.4byte	guiCurTask
 630 0150 0D       		.uleb128 0xd
 631 0151 35000000 		.4byte	.LASF12
 632 0155 01       		.byte	0x1
 633 0156 06       		.byte	0x6
 634 0157 3D000000 		.4byte	0x3d
 635 015b 01       		.byte	0x1
 636 015c 05       		.byte	0x5
ARM GAS  C:\DOCUME~1\ADMINI~1\LOCALS~1\Temp\cctyr4zd.s 			page 15


 637 015d 03       		.byte	0x3
 638 015e 00000000 		.4byte	guiNextTaskSp
 639 0162 0D       		.uleb128 0xd
 640 0163 0D010000 		.4byte	.LASF13
 641 0167 01       		.byte	0x1
 642 0168 07       		.byte	0x7
 643 0169 CD000000 		.4byte	0xcd
 644 016d 01       		.byte	0x1
 645 016e 05       		.byte	0x5
 646 016f 03       		.byte	0x3
 647 0170 00000000 		.4byte	gpuiCurTaskSpAddr
 648 0174 0D       		.uleb128 0xd
 649 0175 36010000 		.4byte	.LASF14
 650 0179 01       		.byte	0x1
 651 017a 09       		.byte	0x9
 652 017b 3D000000 		.4byte	0x3d
 653 017f 01       		.byte	0x1
 654 0180 05       		.byte	0x5
 655 0181 03       		.byte	0x3
 656 0182 00000000 		.4byte	guiTask1CurSp
 657 0186 0D       		.uleb128 0xd
 658 0187 D8000000 		.4byte	.LASF15
 659 018b 01       		.byte	0x1
 660 018c 0A       		.byte	0xa
 661 018d 3D000000 		.4byte	0x3d
 662 0191 01       		.byte	0x1
 663 0192 05       		.byte	0x5
 664 0193 03       		.byte	0x3
 665 0194 00000000 		.4byte	guiTask2CurSp
 666 0198 00       		.byte	0x0
 667              		.section	.debug_abbrev
 668 0000 01       		.uleb128 0x1
 669 0001 11       		.uleb128 0x11
 670 0002 01       		.byte	0x1
 671 0003 25       		.uleb128 0x25
 672 0004 0E       		.uleb128 0xe
 673 0005 13       		.uleb128 0x13
 674 0006 0B       		.uleb128 0xb
 675 0007 03       		.uleb128 0x3
 676 0008 0E       		.uleb128 0xe
 677 0009 1B       		.uleb128 0x1b
 678 000a 0E       		.uleb128 0xe
 679 000b 11       		.uleb128 0x11
 680 000c 01       		.uleb128 0x1
 681 000d 12       		.uleb128 0x12
 682 000e 01       		.uleb128 0x1
 683 000f 10       		.uleb128 0x10
 684 0010 06       		.uleb128 0x6
 685 0011 00       		.byte	0x0
 686 0012 00       		.byte	0x0
 687 0013 02       		.uleb128 0x2
 688 0014 16       		.uleb128 0x16
 689 0015 00       		.byte	0x0
 690 0016 03       		.uleb128 0x3
 691 0017 08       		.uleb128 0x8
 692 0018 3A       		.uleb128 0x3a
 693 0019 0B       		.uleb128 0xb
ARM GAS  C:\DOCUME~1\ADMINI~1\LOCALS~1\Temp\cctyr4zd.s 			page 16


 694 001a 3B       		.uleb128 0x3b
 695 001b 0B       		.uleb128 0xb
 696 001c 49       		.uleb128 0x49
 697 001d 13       		.uleb128 0x13
 698 001e 00       		.byte	0x0
 699 001f 00       		.byte	0x0
 700 0020 03       		.uleb128 0x3
 701 0021 24       		.uleb128 0x24
 702 0022 00       		.byte	0x0
 703 0023 0B       		.uleb128 0xb
 704 0024 0B       		.uleb128 0xb
 705 0025 3E       		.uleb128 0x3e
 706 0026 0B       		.uleb128 0xb
 707 0027 03       		.uleb128 0x3
 708 0028 0E       		.uleb128 0xe
 709 0029 00       		.byte	0x0
 710 002a 00       		.byte	0x0
 711 002b 04       		.uleb128 0x4
 712 002c 24       		.uleb128 0x24
 713 002d 00       		.byte	0x0
 714 002e 0B       		.uleb128 0xb
 715 002f 0B       		.uleb128 0xb
 716 0030 3E       		.uleb128 0x3e
 717 0031 0B       		.uleb128 0xb
 718 0032 03       		.uleb128 0x3
 719 0033 08       		.uleb128 0x8
 720 0034 00       		.byte	0x0
 721 0035 00       		.byte	0x0
 722 0036 05       		.uleb128 0x5
 723 0037 16       		.uleb128 0x16
 724 0038 00       		.byte	0x0
 725 0039 03       		.uleb128 0x3
 726 003a 0E       		.uleb128 0xe
 727 003b 3A       		.uleb128 0x3a
 728 003c 0B       		.uleb128 0xb
 729 003d 3B       		.uleb128 0x3b
 730 003e 0B       		.uleb128 0xb
 731 003f 49       		.uleb128 0x49
 732 0040 13       		.uleb128 0x13
 733 0041 00       		.byte	0x0
 734 0042 00       		.byte	0x0
 735 0043 06       		.uleb128 0x6
 736 0044 0F       		.uleb128 0xf
 737 0045 00       		.byte	0x0
 738 0046 0B       		.uleb128 0xb
 739 0047 0B       		.uleb128 0xb
 740 0048 49       		.uleb128 0x49
 741 0049 13       		.uleb128 0x13
 742 004a 00       		.byte	0x0
 743 004b 00       		.byte	0x0
 744 004c 07       		.uleb128 0x7
 745 004d 15       		.uleb128 0x15
 746 004e 00       		.byte	0x0
 747 004f 27       		.uleb128 0x27
 748 0050 0C       		.uleb128 0xc
 749 0051 00       		.byte	0x0
 750 0052 00       		.byte	0x0
ARM GAS  C:\DOCUME~1\ADMINI~1\LOCALS~1\Temp\cctyr4zd.s 			page 17


 751 0053 08       		.uleb128 0x8
 752 0054 2E       		.uleb128 0x2e
 753 0055 01       		.byte	0x1
 754 0056 3F       		.uleb128 0x3f
 755 0057 0C       		.uleb128 0xc
 756 0058 03       		.uleb128 0x3
 757 0059 0E       		.uleb128 0xe
 758 005a 3A       		.uleb128 0x3a
 759 005b 0B       		.uleb128 0xb
 760 005c 3B       		.uleb128 0x3b
 761 005d 0B       		.uleb128 0xb
 762 005e 27       		.uleb128 0x27
 763 005f 0C       		.uleb128 0xc
 764 0060 11       		.uleb128 0x11
 765 0061 01       		.uleb128 0x1
 766 0062 12       		.uleb128 0x12
 767 0063 01       		.uleb128 0x1
 768 0064 40       		.uleb128 0x40
 769 0065 06       		.uleb128 0x6
 770 0066 01       		.uleb128 0x1
 771 0067 13       		.uleb128 0x13
 772 0068 00       		.byte	0x0
 773 0069 00       		.byte	0x0
 774 006a 09       		.uleb128 0x9
 775 006b 05       		.uleb128 0x5
 776 006c 00       		.byte	0x0
 777 006d 03       		.uleb128 0x3
 778 006e 0E       		.uleb128 0xe
 779 006f 3A       		.uleb128 0x3a
 780 0070 0B       		.uleb128 0xb
 781 0071 3B       		.uleb128 0x3b
 782 0072 0B       		.uleb128 0xb
 783 0073 49       		.uleb128 0x49
 784 0074 13       		.uleb128 0x13
 785 0075 02       		.uleb128 0x2
 786 0076 06       		.uleb128 0x6
 787 0077 00       		.byte	0x0
 788 0078 00       		.byte	0x0
 789 0079 0A       		.uleb128 0xa
 790 007a 34       		.uleb128 0x34
 791 007b 00       		.byte	0x0
 792 007c 03       		.uleb128 0x3
 793 007d 0E       		.uleb128 0xe
 794 007e 3A       		.uleb128 0x3a
 795 007f 0B       		.uleb128 0xb
 796 0080 3B       		.uleb128 0x3b
 797 0081 0B       		.uleb128 0xb
 798 0082 49       		.uleb128 0x49
 799 0083 13       		.uleb128 0x13
 800 0084 02       		.uleb128 0x2
 801 0085 06       		.uleb128 0x6
 802 0086 00       		.byte	0x0
 803 0087 00       		.byte	0x0
 804 0088 0B       		.uleb128 0xb
 805 0089 2E       		.uleb128 0x2e
 806 008a 00       		.byte	0x0
 807 008b 3F       		.uleb128 0x3f
ARM GAS  C:\DOCUME~1\ADMINI~1\LOCALS~1\Temp\cctyr4zd.s 			page 18


 808 008c 0C       		.uleb128 0xc
 809 008d 03       		.uleb128 0x3
 810 008e 0E       		.uleb128 0xe
 811 008f 3A       		.uleb128 0x3a
 812 0090 0B       		.uleb128 0xb
 813 0091 3B       		.uleb128 0x3b
 814 0092 0B       		.uleb128 0xb
 815 0093 27       		.uleb128 0x27
 816 0094 0C       		.uleb128 0xc
 817 0095 11       		.uleb128 0x11
 818 0096 01       		.uleb128 0x1
 819 0097 12       		.uleb128 0x12
 820 0098 01       		.uleb128 0x1
 821 0099 40       		.uleb128 0x40
 822 009a 06       		.uleb128 0x6
 823 009b 00       		.byte	0x0
 824 009c 00       		.byte	0x0
 825 009d 0C       		.uleb128 0xc
 826 009e 34       		.uleb128 0x34
 827 009f 00       		.byte	0x0
 828 00a0 03       		.uleb128 0x3
 829 00a1 0E       		.uleb128 0xe
 830 00a2 3A       		.uleb128 0x3a
 831 00a3 0B       		.uleb128 0xb
 832 00a4 3B       		.uleb128 0x3b
 833 00a5 0B       		.uleb128 0xb
 834 00a6 49       		.uleb128 0x49
 835 00a7 13       		.uleb128 0x13
 836 00a8 3F       		.uleb128 0x3f
 837 00a9 0C       		.uleb128 0xc
 838 00aa 3C       		.uleb128 0x3c
 839 00ab 0C       		.uleb128 0xc
 840 00ac 00       		.byte	0x0
 841 00ad 00       		.byte	0x0
 842 00ae 0D       		.uleb128 0xd
 843 00af 34       		.uleb128 0x34
 844 00b0 00       		.byte	0x0
 845 00b1 03       		.uleb128 0x3
 846 00b2 0E       		.uleb128 0xe
 847 00b3 3A       		.uleb128 0x3a
 848 00b4 0B       		.uleb128 0xb
 849 00b5 3B       		.uleb128 0x3b
 850 00b6 0B       		.uleb128 0xb
 851 00b7 49       		.uleb128 0x49
 852 00b8 13       		.uleb128 0x13
 853 00b9 3F       		.uleb128 0x3f
 854 00ba 0C       		.uleb128 0xc
 855 00bb 02       		.uleb128 0x2
 856 00bc 0A       		.uleb128 0xa
 857 00bd 00       		.byte	0x0
 858 00be 00       		.byte	0x0
 859 00bf 00       		.byte	0x0
 860              		.section	.debug_pubnames,"",%progbits
 861 0000 9F000000 		.4byte	0x9f
 862 0004 0200     		.2byte	0x2
 863 0006 00000000 		.4byte	.Ldebug_info0
 864 000a 99010000 		.4byte	0x199
ARM GAS  C:\DOCUME~1\ADMINI~1\LOCALS~1\Temp\cctyr4zd.s 			page 19


 865 000e 77000000 		.4byte	0x77
 866 0012 574C585F 		.ascii	"WLX_TaskInit\000"
 866      5461736B 
 866      496E6974 
 866      00
 867 001f D3000000 		.4byte	0xd3
 868 0023 574C585F 		.ascii	"WLX_TaskSwitch\000"
 868      5461736B 
 868      53776974 
 868      636800
 869 0032 E8000000 		.4byte	0xe8
 870 0036 574C585F 		.ascii	"WLX_TaskStart\000"
 870      5461736B 
 870      53746172 
 870      7400
 871 0044 3E010000 		.4byte	0x13e
 872 0048 67756943 		.ascii	"guiCurTask\000"
 872      75725461 
 872      736B00
 873 0053 50010000 		.4byte	0x150
 874 0057 6775694E 		.ascii	"guiNextTaskSp\000"
 874      65787454 
 874      61736B53 
 874      7000
 875 0065 62010000 		.4byte	0x162
 876 0069 67707569 		.ascii	"gpuiCurTaskSpAddr\000"
 876      43757254 
 876      61736B53 
 876      70416464 
 876      7200
 877 007b 74010000 		.4byte	0x174
 878 007f 67756954 		.ascii	"guiTask1CurSp\000"
 878      61736B31 
 878      43757253 
 878      7000
 879 008d 86010000 		.4byte	0x186
 880 0091 67756954 		.ascii	"guiTask2CurSp\000"
 880      61736B32 
 880      43757253 
 880      7000
 881 009f 00000000 		.4byte	0x0
 882              		.section	.debug_pubtypes,"",%progbits
 883 0000 27000000 		.4byte	0x27
 884 0004 0200     		.2byte	0x2
 885 0006 00000000 		.4byte	.Ldebug_info0
 886 000a 99010000 		.4byte	0x199
 887 000e 25000000 		.4byte	0x25
 888 0012 553800   		.ascii	"U8\000"
 889 0015 3D000000 		.4byte	0x3d
 890 0019 55333200 		.ascii	"U32\000"
 891 001d 64000000 		.4byte	0x64
 892 0021 5646554E 		.ascii	"VFUNC\000"
 892      4300
 893 0027 00000000 		.4byte	0x0
 894              		.section	.debug_aranges,"",%progbits
 895 0000 1C000000 		.4byte	0x1c
 896 0004 0200     		.2byte	0x2
ARM GAS  C:\DOCUME~1\ADMINI~1\LOCALS~1\Temp\cctyr4zd.s 			page 20


 897 0006 00000000 		.4byte	.Ldebug_info0
 898 000a 04       		.byte	0x4
 899 000b 00       		.byte	0x0
 900 000c 0000     		.2byte	0x0
 901 000e 0000     		.2byte	0x0
 902 0010 00000000 		.4byte	.Ltext0
 903 0014 C0010000 		.4byte	.Letext0-.Ltext0
 904 0018 00000000 		.4byte	0x0
 905 001c 00000000 		.4byte	0x0
 906              		.section	.debug_str,"MS",%progbits,1
 907              	.LASF16:
 908 0000 474E5520 		.ascii	"GNU C 4.5.2\000"
 908      4320342E 
 908      352E3200 
 909              	.LASF2:
 910 000c 756E7369 		.ascii	"unsigned int\000"
 910      676E6564 
 910      20696E74 
 910      00
 911              	.LASF9:
 912 0019 574C585F 		.ascii	"WLX_TaskSwitch\000"
 912      5461736B 
 912      53776974 
 912      636800
 913              	.LASF8:
 914 0028 70756954 		.ascii	"puiTaskStack\000"
 914      61736B53 
 914      7461636B 
 914      00
 915              	.LASF12:
 916 0035 6775694E 		.ascii	"guiNextTaskSp\000"
 916      65787454 
 916      61736B53 
 916      7000
 917              	.LASF20:
 918 0043 70756953 		.ascii	"puiSp\000"
 918      7000
 919              	.LASF10:
 920 0049 574C585F 		.ascii	"WLX_TaskStart\000"
 920      5461736B 
 920      53746172 
 920      7400
 921              	.LASF18:
 922 0057 433A5C44 		.ascii	"C:\\Documents and Settings\\Administrator\\\327\300"
 922      6F63756D 
 922      656E7473 
 922      20616E64 
 922      20536574 
 923 0081 C3E65CD0 		.ascii	"\303\346\\\320\302\275\250\316\304\274\376\274\320\\"
 923      C2BDA8CE 
 923      C4BCFEBC 
 923      D05C
 924 008f D0C2BDA8 		.ascii	"\320\302\275\250\316\304\274\376\274\320\\RTOS_Wanl"
 924      CEC4BCFE 
 924      BCD05C52 
 924      544F535F 
 924      57616E6C 
ARM GAS  C:\DOCUME~1\ADMINI~1\LOCALS~1\Temp\cctyr4zd.s 			page 21


 925 00a3 6978332E 		.ascii	"ix3.1\\project\000"
 925      315C7072 
 925      6F6A6563 
 925      7400
 926              	.LASF19:
 927 00b1 574C585F 		.ascii	"WLX_TaskInit\000"
 927      5461736B 
 927      496E6974 
 927      00
 928              	.LASF6:
 929 00be 75635461 		.ascii	"ucTask\000"
 929      736B00
 930              	.LASF0:
 931 00c5 756E7369 		.ascii	"unsigned char\000"
 931      676E6564 
 931      20636861 
 931      7200
 932              	.LASF3:
 933 00d3 63686172 		.ascii	"char\000"
 933      00
 934              	.LASF15:
 935 00d8 67756954 		.ascii	"guiTask2CurSp\000"
 935      61736B32 
 935      43757253 
 935      7000
 936              	.LASF7:
 937 00e6 76664675 		.ascii	"vfFuncPointer\000"
 937      6E63506F 
 937      696E7465 
 937      7200
 938              	.LASF5:
 939 00f4 5646554E 		.ascii	"VFUNC\000"
 939      4300
 940              	.LASF1:
 941 00fa 73686F72 		.ascii	"short unsigned int\000"
 941      7420756E 
 941      7369676E 
 941      65642069 
 941      6E7400
 942              	.LASF13:
 943 010d 67707569 		.ascii	"gpuiCurTaskSpAddr\000"
 943      43757254 
 943      61736B53 
 943      70416464 
 943      7200
 944              	.LASF17:
 945 011f 2E2E2F77 		.ascii	"../wanlix/wlx_core_c.c\000"
 945      616E6C69 
 945      782F776C 
 945      785F636F 
 945      72655F63 
 946              	.LASF14:
 947 0136 67756954 		.ascii	"guiTask1CurSp\000"
 947      61736B31 
 947      43757253 
 947      7000
 948              	.LASF4:
ARM GAS  C:\DOCUME~1\ADMINI~1\LOCALS~1\Temp\cctyr4zd.s 			page 22


 949 0144 73686F72 		.ascii	"short int\000"
 949      7420696E 
 949      7400
 950              	.LASF11:
 951 014e 67756943 		.ascii	"guiCurTask\000"
 951      75725461 
 951      736B00
 952              		.ident	"GCC: (Sourcery G++ Lite 2011.03-41) 4.5.2"
 953              		.section	.note.GNU-stack,"",%progbits
ARM GAS  C:\DOCUME~1\ADMINI~1\LOCALS~1\Temp\cctyr4zd.s 			page 23


DEFINED SYMBOLS
                            *ABS*:00000000 wlx_core_c.c
C:\DOCUME~1\ADMINI~1\LOCALS~1\Temp\cctyr4zd.s:21     .text:00000000 $a
C:\DOCUME~1\ADMINI~1\LOCALS~1\Temp\cctyr4zd.s:24     .text:00000000 WLX_TaskInit
C:\DOCUME~1\ADMINI~1\LOCALS~1\Temp\cctyr4zd.s:163    .text:000000d8 $d
                            *COM*:00000004 guiTask1CurSp
                            *COM*:00000004 guiTask2CurSp
                       .ARM.exidx:00000000 $d
C:\DOCUME~1\ADMINI~1\LOCALS~1\Temp\cctyr4zd.s:169    .text:000000e0 $a
C:\DOCUME~1\ADMINI~1\LOCALS~1\Temp\cctyr4zd.s:172    .text:000000e0 WLX_TaskSwitch
C:\DOCUME~1\ADMINI~1\LOCALS~1\Temp\cctyr4zd.s:251    .text:00000158 $d
                            *COM*:00000004 guiCurTask
                            *COM*:00000004 gpuiCurTaskSpAddr
                            *COM*:00000004 guiNextTaskSp
                       .ARM.extab:00000000 $d
C:\DOCUME~1\ADMINI~1\LOCALS~1\Temp\cctyr4zd.s:260    .text:0000016c $a
C:\DOCUME~1\ADMINI~1\LOCALS~1\Temp\cctyr4zd.s:263    .text:0000016c WLX_TaskStart
C:\DOCUME~1\ADMINI~1\LOCALS~1\Temp\cctyr4zd.s:315    .text:000001b0 $d
                     .debug_frame:00000010 $d

UNDEFINED SYMBOLS
__aeabi_unwind_cpp_pr0
WLX_ContextSwitch
__aeabi_unwind_cpp_pr1
