ARM GAS  C:\DOCUME~1\ADMINI~1\LOCALS~1\Temp\cckHUiem.s 			page 1


   1              		.cpu arm7tdmi
   2              		.fpu softvfp
   3              		.eabi_attribute 20, 1
   4              		.eabi_attribute 21, 1
   5              		.eabi_attribute 23, 3
   6              		.eabi_attribute 24, 1
   7              		.eabi_attribute 25, 1
   8              		.eabi_attribute 26, 2
   9              		.eabi_attribute 30, 2
  10              		.eabi_attribute 18, 4
  11              		.file	"wlx_userboot.c"
  18 0000 6F000000 		.text
  18      02005200 
  18      00000201 
  18      FB0E0D00 
  18      01010101 
  19              	.Ltext0:
  20              		.cfi_sections	.debug_frame
  21              		.align	2
  22              		.global	WLX_RootTask
  23              		.type	WLX_RootTask, %function
  24              	WLX_RootTask:
  25              		.fnstart
  26              	.LFB0:
  27              		.file 1 "../srccode/wlx_userboot.c"
   1:../srccode/wlx_userboot.c **** 
   2:../srccode/wlx_userboot.c **** #include "wlx_userboot.h"
   3:../srccode/wlx_userboot.c **** 
   4:../srccode/wlx_userboot.c **** 
   5:../srccode/wlx_userboot.c **** /***********************************************************************************
   6:../srccode/wlx_userboot.c **** 函数功能: 根任务, 用户代码从这个函数开始执行.
   7:../srccode/wlx_userboot.c **** 入口参数: none.
   8:../srccode/wlx_userboot.c **** 返 回 值: none.
   9:../srccode/wlx_userboot.c **** ***********************************************************************************/
  10:../srccode/wlx_userboot.c **** void WLX_RootTask(void)
  11:../srccode/wlx_userboot.c **** {
  28              		.loc 1 11 0
  29              		.cfi_startproc
  30              		@ Function supports interworking.
  31              		@ args = 0, pretend = 0, frame = 0
  32              		@ frame_needed = 1, uses_anonymous_args = 0
  33              		.movsp ip
  34 0000 0DC0A0E1 		mov	ip, sp
  35              	.LCFI0:
  36              		.cfi_def_cfa_register 12
  37 0004 18D82DE9 		stmfd	sp!, {r3, r4, fp, ip, lr, pc}
  38              		.pad #4
  39              		.save {r3, r4, fp, ip, lr}
  40              		.setfp fp, ip, #-4
  41 0008 04B04CE2 		sub	fp, ip, #4
  42              		.cfi_offset 14, -8
ARM GAS  C:\DOCUME~1\ADMINI~1\LOCALS~1\Temp\cckHUiem.s 			page 2


  43              		.cfi_offset 13, -12
  44              		.cfi_offset 11, -16
  45              		.cfi_offset 4, -20
  46              		.cfi_offset 3, -24
  47              	.LCFI1:
  48              		.cfi_def_cfa 11, 4
  12:../srccode/wlx_userboot.c ****     /* 初始化软件 */
  13:../srccode/wlx_userboot.c ****     DEV_SoftwareInit();
  49              		.loc 1 13 0
  50 000c FEFFFFEB 		bl	DEV_SoftwareInit
  14:../srccode/wlx_userboot.c **** 
  15:../srccode/wlx_userboot.c ****     /* 初始化硬件 */
  16:../srccode/wlx_userboot.c ****     DEV_HardwareInit();
  51              		.loc 1 16 0
  52 0010 FEFFFFEB 		bl	DEV_HardwareInit
  17:../srccode/wlx_userboot.c **** 
  18:../srccode/wlx_userboot.c ****     /* 创建任务 */
  19:../srccode/wlx_userboot.c ****     gpstrCrossStateTcb = WLX_TaskCreate((VFUNC)TEST_CrossStateTask,
  53              		.loc 1 19 0
  54 0014 3C109FE5 		ldr	r1, .L2
  55 0018 192EA0E3 		mov	r2, #400
  56 001c 38009FE5 		ldr	r0, .L2+4
  57 0020 FEFFFFEB 		bl	WLX_TaskCreate
  58 0024 34409FE5 		ldr	r4, .L2+8
  20:../srccode/wlx_userboot.c ****                                         gaucCrossStateStack, TASKSTACK);
  21:../srccode/wlx_userboot.c ****     gpstrLedDisplayTcb = WLX_TaskCreate((VFUNC)TEST_LedDisplayTask,
  59              		.loc 1 21 0
  60 0028 34109FE5 		ldr	r1, .L2+12
  19:../srccode/wlx_userboot.c ****     gpstrCrossStateTcb = WLX_TaskCreate((VFUNC)TEST_CrossStateTask,
  61              		.loc 1 19 0
  62 002c 000084E5 		str	r0, [r4, #0]
  63              		.loc 1 21 0
  64 0030 192EA0E3 		mov	r2, #400
  65 0034 2C009FE5 		ldr	r0, .L2+16
  66 0038 FEFFFFEB 		bl	WLX_TaskCreate
  67 003c 28309FE5 		ldr	r3, .L2+20
  68 0040 000083E5 		str	r0, [r3, #0]
  22:../srccode/wlx_userboot.c ****                                         gaucLedDisplayStack, TASKSTACK);
  23:../srccode/wlx_userboot.c **** 
  24:../srccode/wlx_userboot.c ****     WLX_TaskSwitch(gpstrCrossStateTcb);      /* 任务切换 */
  69              		.loc 1 24 0
  70 0044 000094E5 		ldr	r0, [r4, #0]
  71 0048 FEFFFFEB 		bl	WLX_TaskSwitch
  25:../srccode/wlx_userboot.c **** }
  72              		.loc 1 25 0
  73 004c 14D04BE2 		sub	sp, fp, #20
  74 0050 18689DE8 		ldmfd	sp, {r3, r4, fp, sp, lr}
  75 0054 1EFF2FE1 		bx	lr
  76              	.L3:
  77              		.align	2
  78              	.L2:
  79 0058 00000000 		.word	gaucCrossStateStack
  80 005c 00000000 		.word	TEST_CrossStateTask
  81 0060 00000000 		.word	gpstrCrossStateTcb
  82 0064 00000000 		.word	gaucLedDisplayStack
  83 0068 00000000 		.word	TEST_LedDisplayTask
  84 006c 00000000 		.word	gpstrLedDisplayTcb
ARM GAS  C:\DOCUME~1\ADMINI~1\LOCALS~1\Temp\cckHUiem.s 			page 3


  85              		.cfi_endproc
  86              	.LFE0:
  87              		.fnend
  88              		.size	WLX_RootTask, .-WLX_RootTask
  89              	.Letext0:
 514              		.section	.note.GNU-stack,"",%progbits
ARM GAS  C:\DOCUME~1\ADMINI~1\LOCALS~1\Temp\cckHUiem.s 			page 12

