ARM GAS  C:\DOCUME~1\ADMINI~1\LOCALS~1\Temp\cczBgWvl.s 			page 1


   1              		.cpu arm7tdmi
   2              		.fpu softvfp
   3              		.eabi_attribute 20, 1
   4              		.eabi_attribute 21, 1
   5              		.eabi_attribute 23, 3
   6              		.eabi_attribute 24, 1
   7              		.eabi_attribute 25, 1
   8              		.eabi_attribute 26, 2
   9              		.eabi_attribute 30, 2
  10              		.eabi_attribute 18, 4
  11              		.file	"test.c"
  18 0000 92000000 		.text
  18      02004A00 
  18      00000201 
  18      FB0E0D00 
  18      01010101 
  19              	.Ltext0:
  20              		.cfi_sections	.debug_frame
  21              		.align	2
  22              		.global	TEST_TestTask1
  23              		.type	TEST_TestTask1, %function
  24              	TEST_TestTask1:
  25              		.fnstart
  26              	.LFB0:
  27              		.file 1 "../srccode/test.c"
   1:../srccode/test.c **** 
   2:../srccode/test.c **** #include "test.h"
   3:../srccode/test.c **** 
   4:../srccode/test.c **** U8 gaucTask1Stack[TASKSTACK];       /* 任务1的堆栈 */
   5:../srccode/test.c **** U8 gaucTask2Stack[TASKSTACK];       /* 任务2的堆栈 */
   6:../srccode/test.c **** U8 gaucTask3Stack[TASKSTACK];       /* 任务3的堆栈 */
   7:../srccode/test.c **** 
   8:../srccode/test.c **** W_TCB* gpstrTask1Tcb;               /* 任务1的TCB指针 */
   9:../srccode/test.c **** W_TCB* gpstrTask2Tcb;               /* 任务2的TCB指针 */
  10:../srccode/test.c **** W_TCB* gpstrTask3Tcb;               /* 任务3的TCB指针 */
  11:../srccode/test.c **** 
  12:../srccode/test.c **** 
  13:../srccode/test.c **** 
  14:../srccode/test.c **** /***********************************************************************************
  15:../srccode/test.c **** 函数功能: 测试任务切换函数1, 向串口打印字符串.
  16:../srccode/test.c **** 入口参数: none.
  17:../srccode/test.c **** 返 回 值: none.
  18:../srccode/test.c **** ***********************************************************************************/
  19:../srccode/test.c **** void TEST_TestTask1(void)
  20:../srccode/test.c **** {
  28              		.loc 1 20 0
  29              		.cfi_startproc
  30              		@ Function supports interworking.
  31              		@ args = 0, pretend = 0, frame = 0
  32              		@ frame_needed = 1, uses_anonymous_args = 0
  33              		.movsp ip
ARM GAS  C:\DOCUME~1\ADMINI~1\LOCALS~1\Temp\cczBgWvl.s 			page 2


  34 0000 0DC0A0E1 		mov	ip, sp
  35              	.LCFI0:
  36              		.cfi_def_cfa_register 12
  37 0004 18D82DE9 		stmfd	sp!, {r3, r4, fp, ip, lr, pc}
  38              		.pad #4
  39              		.save {r3, r4, fp, ip, lr}
  40 0008 1C409FE5 		ldr	r4, .L4
  41              		.cfi_offset 14, -8
  42              		.cfi_offset 13, -12
  43              		.cfi_offset 11, -16
  44              		.cfi_offset 4, -20
  45              		.cfi_offset 3, -24
  46              		.setfp fp, ip, #-4
  47 000c 04B04CE2 		sub	fp, ip, #4
  48              	.LCFI1:
  49              		.cfi_def_cfa 11, 4
  50              	.L2:
  21:../srccode/test.c ****     while(1)
  22:../srccode/test.c ****     {
  23:../srccode/test.c ****         DEV_PutString((U8*)"\r\nTask1 is running!");
  51              		.loc 1 23 0 discriminator 1
  52 0010 18009FE5 		ldr	r0, .L4+4
  53 0014 FEFFFFEB 		bl	DEV_PutString
  24:../srccode/test.c **** 
  25:../srccode/test.c ****         DEV_DelayMs(1000);              /* 延迟1s */
  54              		.loc 1 25 0 discriminator 1
  55 0018 FA0FA0E3 		mov	r0, #1000
  56 001c FEFFFFEB 		bl	DEV_DelayMs
  26:../srccode/test.c **** 
  27:../srccode/test.c ****         WLX_TaskSwitch(gpstrTask3Tcb);  /* 任务切换 */
  57              		.loc 1 27 0 discriminator 1
  58 0020 000094E5 		ldr	r0, [r4, #0]
  59 0024 FEFFFFEB 		bl	WLX_TaskSwitch
  60 0028 F8FFFFEA 		b	.L2
  61              	.L5:
  62              		.align	2
  63              	.L4:
  64 002c 00000000 		.word	gpstrTask3Tcb
  65 0030 00000000 		.word	.LC0
  66              		.cfi_endproc
  67              	.LFE0:
  68              		.fnend
  69              		.size	TEST_TestTask1, .-TEST_TestTask1
  70              		.align	2
  71              		.global	TEST_TestTask2
  72              		.type	TEST_TestTask2, %function
  73              	TEST_TestTask2:
  74              		.fnstart
  75              	.LFB1:
  28:../srccode/test.c ****     }
  29:../srccode/test.c **** }
  30:../srccode/test.c **** 
  31:../srccode/test.c **** /***********************************************************************************
  32:../srccode/test.c **** 函数功能: 测试任务切换函数2, 向串口打印字符串.
  33:../srccode/test.c **** 入口参数: none.
  34:../srccode/test.c **** 返 回 值: none.
  35:../srccode/test.c **** ***********************************************************************************/
ARM GAS  C:\DOCUME~1\ADMINI~1\LOCALS~1\Temp\cczBgWvl.s 			page 3


  36:../srccode/test.c **** void TEST_TestTask2(void)
  37:../srccode/test.c **** {
  76              		.loc 1 37 0
  77              		.cfi_startproc
  78              		@ Function supports interworking.
  79              		@ args = 0, pretend = 0, frame = 0
  80              		@ frame_needed = 1, uses_anonymous_args = 0
  81              		.movsp ip
  82 0034 0DC0A0E1 		mov	ip, sp
  83              	.LCFI2:
  84              		.cfi_def_cfa_register 12
  85 0038 18D82DE9 		stmfd	sp!, {r3, r4, fp, ip, lr, pc}
  86              		.pad #4
  87              		.save {r3, r4, fp, ip, lr}
  88 003c 1C409FE5 		ldr	r4, .L8
  89              		.cfi_offset 14, -8
  90              		.cfi_offset 13, -12
  91              		.cfi_offset 11, -16
  92              		.cfi_offset 4, -20
  93              		.cfi_offset 3, -24
  94              		.setfp fp, ip, #-4
  95 0040 04B04CE2 		sub	fp, ip, #4
  96              	.LCFI3:
  97              		.cfi_def_cfa 11, 4
  98              	.L7:
  38:../srccode/test.c ****     while(1)
  39:../srccode/test.c ****     {
  40:../srccode/test.c ****         DEV_PutString((U8*)"\r\nTask2 is running!");
  99              		.loc 1 40 0 discriminator 1
 100 0044 18009FE5 		ldr	r0, .L8+4
 101 0048 FEFFFFEB 		bl	DEV_PutString
  41:../srccode/test.c **** 
  42:../srccode/test.c ****         DEV_DelayMs(2000);              /* 延迟2s */
 102              		.loc 1 42 0 discriminator 1
 103 004c 7D0EA0E3 		mov	r0, #2000
 104 0050 FEFFFFEB 		bl	DEV_DelayMs
  43:../srccode/test.c **** 
  44:../srccode/test.c ****         WLX_TaskSwitch(gpstrTask1Tcb);  /* 任务切换 */
 105              		.loc 1 44 0 discriminator 1
 106 0054 000094E5 		ldr	r0, [r4, #0]
 107 0058 FEFFFFEB 		bl	WLX_TaskSwitch
 108 005c F8FFFFEA 		b	.L7
 109              	.L9:
 110              		.align	2
 111              	.L8:
 112 0060 00000000 		.word	gpstrTask1Tcb
 113 0064 14000000 		.word	.LC1
 114              		.cfi_endproc
 115              	.LFE1:
 116              		.fnend
 117              		.size	TEST_TestTask2, .-TEST_TestTask2
 118              		.align	2
 119              		.global	TEST_TestTask3
 120              		.type	TEST_TestTask3, %function
 121              	TEST_TestTask3:
 122              		.fnstart
 123              	.LFB2:
ARM GAS  C:\DOCUME~1\ADMINI~1\LOCALS~1\Temp\cczBgWvl.s 			page 4


  45:../srccode/test.c ****     }
  46:../srccode/test.c **** }
  47:../srccode/test.c **** 
  48:../srccode/test.c **** /***********************************************************************************
  49:../srccode/test.c **** 函数功能: 测试任务切换函数3, 向串口打印字符串.
  50:../srccode/test.c **** 入口参数: none.
  51:../srccode/test.c **** 返 回 值: none.
  52:../srccode/test.c **** ***********************************************************************************/
  53:../srccode/test.c **** void TEST_TestTask3(void)
  54:../srccode/test.c **** {
 124              		.loc 1 54 0
 125              		.cfi_startproc
 126              		@ Function supports interworking.
 127              		@ args = 0, pretend = 0, frame = 0
 128              		@ frame_needed = 1, uses_anonymous_args = 0
 129              		.movsp ip
 130 0068 0DC0A0E1 		mov	ip, sp
 131              	.LCFI4:
 132              		.cfi_def_cfa_register 12
 133 006c 18D82DE9 		stmfd	sp!, {r3, r4, fp, ip, lr, pc}
 134              		.pad #4
 135              		.save {r3, r4, fp, ip, lr}
 136 0070 1C409FE5 		ldr	r4, .L12
 137              		.cfi_offset 14, -8
 138              		.cfi_offset 13, -12
 139              		.cfi_offset 11, -16
 140              		.cfi_offset 4, -20
 141              		.cfi_offset 3, -24
 142              		.setfp fp, ip, #-4
 143 0074 04B04CE2 		sub	fp, ip, #4
 144              	.LCFI5:
 145              		.cfi_def_cfa 11, 4
 146              	.L11:
  55:../srccode/test.c ****     while(1)
  56:../srccode/test.c ****     {
  57:../srccode/test.c ****         DEV_PutString((U8*)"\r\nTask3 is running!");
 147              		.loc 1 57 0 discriminator 1
 148 0078 18009FE5 		ldr	r0, .L12+4
 149 007c FEFFFFEB 		bl	DEV_PutString
  58:../srccode/test.c **** 
  59:../srccode/test.c ****         DEV_DelayMs(3000);              /* 延迟3s */
 150              		.loc 1 59 0 discriminator 1
 151 0080 14009FE5 		ldr	r0, .L12+8
 152 0084 FEFFFFEB 		bl	DEV_DelayMs
  60:../srccode/test.c **** 
  61:../srccode/test.c ****         WLX_TaskSwitch(gpstrTask2Tcb);  /* 任务切换 */
 153              		.loc 1 61 0 discriminator 1
 154 0088 000094E5 		ldr	r0, [r4, #0]
 155 008c FEFFFFEB 		bl	WLX_TaskSwitch
 156 0090 F8FFFFEA 		b	.L11
 157              	.L13:
 158              		.align	2
 159              	.L12:
 160 0094 00000000 		.word	gpstrTask2Tcb
 161 0098 28000000 		.word	.LC2
 162 009c B80B0000 		.word	3000
 163              		.cfi_endproc
ARM GAS  C:\DOCUME~1\ADMINI~1\LOCALS~1\Temp\cczBgWvl.s 			page 5


 164              	.LFE2:
 165              		.fnend
 166              		.size	TEST_TestTask3, .-TEST_TestTask3
 167              		.comm	gaucTask1Stack,400,4
 168              		.comm	gaucTask2Stack,400,4
 169              		.comm	gaucTask3Stack,400,4
 170              		.comm	gpstrTask1Tcb,4,4
 171              		.comm	gpstrTask2Tcb,4,4
 172              		.comm	gpstrTask3Tcb,4,4
 173              		.section	.rodata.str1.4,"aMS",%progbits,1
 174              		.align	2
 175              	.LC0:
 176 0000 0D0A5461 		.ascii	"\015\012Task1 is running!\000"
 176      736B3120 
 176      69732072 
 176      756E6E69 
 176      6E672100 
 177              	.LC1:
 178 0014 0D0A5461 		.ascii	"\015\012Task2 is running!\000"
 178      736B3220 
 178      69732072 
 178      756E6E69 
 178      6E672100 
 179              	.LC2:
 180 0028 0D0A5461 		.ascii	"\015\012Task3 is running!\000"
 180      736B3320 
 180      69732072 
 180      756E6E69 
 180      6E672100 
 181              		.text
 182              	.Letext0:
 700              		.section	.note.GNU-stack,"",%progbits
ARM GAS  C:\DOCUME~1\ADMINI~1\LOCALS~1\Temp\cczBgWvl.s 			page 17

