ARM GAS  C:\DOCUME~1\ADMINI~1\LOCALS~1\Temp\ccdTBE7q.s 			page 1


   1              		.cpu arm7tdmi
   2              		.fpu softvfp
   3              		.eabi_attribute 20, 1
   4              		.eabi_attribute 21, 1
   5              		.eabi_attribute 23, 3
   6              		.eabi_attribute 24, 1
   7              		.eabi_attribute 25, 1
   8              		.eabi_attribute 26, 2
   9              		.eabi_attribute 30, 2
  10              		.eabi_attribute 18, 4
  11              		.file	"interrupt.c"
  18 0000 8A000000 		.text
  18      02004F00 
  18      00000201 
  18      FB0E0D00 
  18      01010101 
  19              	.Ltext0:
  20              		.cfi_sections	.debug_frame
  21              		.align	2
  22              		.global	ISR_TickIsr
  23              		.type	ISR_TickIsr, %function
  24              	ISR_TickIsr:
  25              		.fnstart
  26              	.LFB1:
  27              		.file 1 "../srccode/interrupt.c"
   1:../srccode/interrupt.c **** 
   2:../srccode/interrupt.c **** #include "interrupt.h"
   3:../srccode/interrupt.c **** 
   4:../srccode/interrupt.c **** 
   5:../srccode/interrupt.c **** /***********************************************************************************
   6:../srccode/interrupt.c **** 函数功能: Irq中断服务函数.
   7:../srccode/interrupt.c **** 入口参数: none.
   8:../srccode/interrupt.c **** 返 回 值: none.
   9:../srccode/interrupt.c **** ***********************************************************************************/
  10:../srccode/interrupt.c **** void ISR_IrqIsr(void)
  11:../srccode/interrupt.c **** {
  12:../srccode/interrupt.c ****     U32 uiIrqStatus;
  13:../srccode/interrupt.c **** 
  14:../srccode/interrupt.c ****     /* 读取产生中断的IRQ中断源 */
  15:../srccode/interrupt.c ****     uiIrqStatus = IRQSTA;
  16:../srccode/interrupt.c **** 
  17:../srccode/interrupt.c ****     /* Timer中断 */
  18:../srccode/interrupt.c ****     if(TIME1INTMASK == (TIME1INTMASK & uiIrqStatus))
  19:../srccode/interrupt.c ****     {
  20:../srccode/interrupt.c ****         /* Tick中断函数 */
  21:../srccode/interrupt.c ****         ISR_TickIsr();
  22:../srccode/interrupt.c **** 
  23:../srccode/interrupt.c ****         /* 清除tick定时器中断标志 */
  24:../srccode/interrupt.c ****         T1CLRI = 0;
  25:../srccode/interrupt.c ****     }
  26:../srccode/interrupt.c ****     /* 外部Irq0中断 */
ARM GAS  C:\DOCUME~1\ADMINI~1\LOCALS~1\Temp\ccdTBE7q.s 			page 2


  27:../srccode/interrupt.c ****     else //if(EXTIRQ0INTMASK == (EXTIRQ0INTMASK & uiIrqStatus))
  28:../srccode/interrupt.c ****     {
  29:../srccode/interrupt.c ****         /* 行人中断函数 */
  30:../srccode/interrupt.c ****         ISR_PassengerIsr();
  31:../srccode/interrupt.c ****     }
  32:../srccode/interrupt.c **** }
  33:../srccode/interrupt.c **** 
  34:../srccode/interrupt.c **** /***********************************************************************************
  35:../srccode/interrupt.c **** 函数功能: Tick中断函数.
  36:../srccode/interrupt.c **** 入口参数: none.
  37:../srccode/interrupt.c **** 返 回 值: none.
  38:../srccode/interrupt.c **** ***********************************************************************************/
  39:../srccode/interrupt.c **** void ISR_TickIsr(void)
  40:../srccode/interrupt.c **** {
  28              		.loc 1 40 0
  29              		.cfi_startproc
  30              		@ Function supports interworking.
  31              		@ args = 0, pretend = 0, frame = 0
  32              		@ frame_needed = 0, uses_anonymous_args = 0
  33              		@ link register save eliminated.
  41:../srccode/interrupt.c ****     guiSystemTick++;
  34              		.loc 1 41 0
  35 0000 0C309FE5 		ldr	r3, .L2
  36 0004 000093E5 		ldr	r0, [r3, #0]
  37 0008 012080E2 		add	r2, r0, #1
  38 000c 002083E5 		str	r2, [r3, #0]
  42:../srccode/interrupt.c **** }
  39              		.loc 1 42 0
  40 0010 1EFF2FE1 		bx	lr
  41              	.L3:
  42              		.align	2
  43              	.L2:
  44 0014 00000000 		.word	guiSystemTick
  45              		.cfi_endproc
  46              	.LFE1:
  47              		.fnend
  48              		.size	ISR_TickIsr, .-ISR_TickIsr
  49              		.align	2
  50              		.global	ISR_PassengerIsr
  51              		.type	ISR_PassengerIsr, %function
  52              	ISR_PassengerIsr:
  53              		.fnstart
  54              	.LFB2:
  43:../srccode/interrupt.c **** 
  44:../srccode/interrupt.c **** /***********************************************************************************
  45:../srccode/interrupt.c **** 函数功能: 行人中断函数.
  46:../srccode/interrupt.c **** 入口参数: none.
  47:../srccode/interrupt.c **** 返 回 值: none.
  48:../srccode/interrupt.c **** ***********************************************************************************/
  49:../srccode/interrupt.c **** void ISR_PassengerIsr(void)
  50:../srccode/interrupt.c **** {
  55              		.loc 1 50 0
  56              		.cfi_startproc
  57              		@ Function supports interworking.
  58              		@ args = 0, pretend = 0, frame = 0
  59              		@ frame_needed = 0, uses_anonymous_args = 0
  60              		@ link register save eliminated.
ARM GAS  C:\DOCUME~1\ADMINI~1\LOCALS~1\Temp\ccdTBE7q.s 			page 3


  51:../srccode/interrupt.c ****     /* 将十字路口改变为行人过马路状态 */
  52:../srccode/interrupt.c ****     if(CROSSSTATE1 == guiCurSta)
  61              		.loc 1 52 0
  62 0018 3C309FE5 		ldr	r3, .L9
  63 001c 002093E5 		ldr	r2, [r3, #0]
  64 0020 000052E3 		cmp	r2, #0
  65 0024 0700000A 		beq	.L8
  53:../srccode/interrupt.c ****     {
  54:../srccode/interrupt.c ****         /* 状态1下触发行人中断, 置为状态2 */
  55:../srccode/interrupt.c ****         guiCurSta = CROSSSTATE2;
  56:../srccode/interrupt.c **** 
  57:../srccode/interrupt.c ****         /* 置为状态改变 */
  58:../srccode/interrupt.c ****         guiStaChange = 1;
  59:../srccode/interrupt.c ****     }
  60:../srccode/interrupt.c ****     else if((CROSSSTATE3 == guiCurSta) || (CROSSSTATE4 == guiCurSta))
  66              		.loc 1 60 0
  67 0028 020042E2 		sub	r0, r2, #2
  68 002c 010050E3 		cmp	r0, #1
  61:../srccode/interrupt.c ****     {
  62:../srccode/interrupt.c ****         /* 状态3和状态4下触发行人中断, 置为状态3 */
  63:../srccode/interrupt.c ****         guiCurSta = CROSSSTATE3;
  69              		.loc 1 63 0
  70 0030 0200A093 		movls	r0, #2
  71 0034 00008395 		strls	r0, [r3, #0]
  64:../srccode/interrupt.c **** 
  65:../srccode/interrupt.c ****         /* 置为状态改变 */
  66:../srccode/interrupt.c ****         guiStaChange = 1;
  72              		.loc 1 66 0
  73 0038 20309F95 		ldrls	r3, .L9+4
  74 003c 0100A093 		movls	r0, #1
  75 0040 00008395 		strls	r0, [r3, #0]
  76 0044 1EFF2FE1 		bx	lr
  77              	.L8:
  55:../srccode/interrupt.c ****         guiCurSta = CROSSSTATE2;
  78              		.loc 1 55 0
  79 0048 0120A0E3 		mov	r2, #1
  80 004c 002083E5 		str	r2, [r3, #0]
  58:../srccode/interrupt.c ****         guiStaChange = 1;
  81              		.loc 1 58 0
  82 0050 08309FE5 		ldr	r3, .L9+4
  83 0054 002083E5 		str	r2, [r3, #0]
  84 0058 1EFF2FE1 		bx	lr
  85              	.L10:
  86              		.align	2
  87              	.L9:
  88 005c 00000000 		.word	guiCurSta
  89 0060 00000000 		.word	guiStaChange
  90              		.cfi_endproc
  91              	.LFE2:
  92              		.fnend
  93              		.size	ISR_PassengerIsr, .-ISR_PassengerIsr
  94              		.align	2
  95              		.global	ISR_IrqIsr
  96              		.type	ISR_IrqIsr, %function
  97              	ISR_IrqIsr:
  98              		.fnstart
  99              	.LFB0:
ARM GAS  C:\DOCUME~1\ADMINI~1\LOCALS~1\Temp\ccdTBE7q.s 			page 4


  11:../srccode/interrupt.c **** {
 100              		.loc 1 11 0
 101              		.cfi_startproc
 102              		@ Function supports interworking.
 103              		@ args = 0, pretend = 0, frame = 0
 104              		@ frame_needed = 0, uses_anonymous_args = 0
 105              		@ link register save eliminated.
  15:../srccode/interrupt.c ****     uiIrqStatus = IRQSTA;
 106              		.loc 1 15 0
 107 0064 0F3AE0E3 		mvn	r3, #61440
 108 0068 FF2F13E5 		ldr	r2, [r3, #-4095]
 109              	.LVL0:
  18:../srccode/interrupt.c ****     if(TIME1INTMASK == (TIME1INTMASK & uiIrqStatus))
 110              		.loc 1 18 0
 111 006c 080012E3 		tst	r2, #8
 112 0070 0600000A 		beq	.L12
 113              	.LBB4:
 114              	.LBB5:
  41:../srccode/interrupt.c ****     guiSystemTick++;
 115              		.loc 1 41 0
 116 0074 18C09FE5 		ldr	ip, .L14
 117 0078 00209CE5 		ldr	r2, [ip, #0]
 118              	.LVL1:
 119              	.LBE5:
 120              	.LBE4:
  24:../srccode/interrupt.c ****         T1CLRI = 0;
 121              		.loc 1 24 0
 122 007c 0000A0E3 		mov	r0, #0
 123              	.LBB7:
 124              	.LBB6:
  41:../srccode/interrupt.c ****     guiSystemTick++;
 125              		.loc 1 41 0
 126 0080 011082E2 		add	r1, r2, #1
 127 0084 00108CE5 		str	r1, [ip, #0]
 128              	.LBE6:
 129              	.LBE7:
  24:../srccode/interrupt.c ****         T1CLRI = 0;
 130              		.loc 1 24 0
 131 0088 D30C03E5 		str	r0, [r3, #-3283]
  32:../srccode/interrupt.c **** }
 132              		.loc 1 32 0
 133 008c 1EFF2FE1 		bx	lr
 134              	.LVL2:
 135              	.L12:
  30:../srccode/interrupt.c ****         ISR_PassengerIsr();
 136              		.loc 1 30 0
 137 0090 FEFFFFEA 		b	ISR_PassengerIsr
 138              	.LVL3:
 139              	.L15:
 140              		.align	2
 141              	.L14:
 142 0094 00000000 		.word	guiSystemTick
 143              		.cfi_endproc
 144              	.LFE0:
 145              		.fnend
 146              		.size	ISR_IrqIsr, .-ISR_IrqIsr
 147              		.align	2
ARM GAS  C:\DOCUME~1\ADMINI~1\LOCALS~1\Temp\ccdTBE7q.s 			page 5


 148              		.global	ISR_PassengerIntLock
 149              		.type	ISR_PassengerIntLock, %function
 150              	ISR_PassengerIntLock:
 151              		.fnstart
 152              	.LFB3:
  67:../srccode/interrupt.c ****     }
  68:../srccode/interrupt.c **** }
  69:../srccode/interrupt.c **** 
  70:../srccode/interrupt.c **** /***********************************************************************************
  71:../srccode/interrupt.c **** 函数功能: 锁行人中断函数.
  72:../srccode/interrupt.c **** 入口参数: none.
  73:../srccode/interrupt.c **** 返 回 值: none.
  74:../srccode/interrupt.c **** ***********************************************************************************/
  75:../srccode/interrupt.c **** void ISR_PassengerIntLock(void)
  76:../srccode/interrupt.c **** {
 153              		.loc 1 76 0
 154              		.cfi_startproc
 155              		@ Function supports interworking.
 156              		@ args = 0, pretend = 0, frame = 0
 157              		@ frame_needed = 0, uses_anonymous_args = 0
 158              		@ link register save eliminated.
  77:../srccode/interrupt.c ****     /* 禁止中断 */
  78:../srccode/interrupt.c ****     IRQEN &= ~EXTIRQ0INTMASK;
 159              		.loc 1 78 0
 160 0098 0F3AE0E3 		mvn	r3, #61440
 161 009c F70F13E5 		ldr	r0, [r3, #-4087]
 162 00a0 0229C0E3 		bic	r2, r0, #32768
 163 00a4 F72F03E5 		str	r2, [r3, #-4087]
  79:../srccode/interrupt.c **** }
 164              		.loc 1 79 0
 165 00a8 1EFF2FE1 		bx	lr
 166              		.cfi_endproc
 167              	.LFE3:
 168              		.fnend
 169              		.size	ISR_PassengerIntLock, .-ISR_PassengerIntLock
 170              		.align	2
 171              		.global	ISR_PassengerIntUnlock
 172              		.type	ISR_PassengerIntUnlock, %function
 173              	ISR_PassengerIntUnlock:
 174              		.fnstart
 175              	.LFB4:
  80:../srccode/interrupt.c **** 
  81:../srccode/interrupt.c **** /***********************************************************************************
  82:../srccode/interrupt.c **** 函数功能: 解锁行人中断函数.
  83:../srccode/interrupt.c **** 入口参数: none.
  84:../srccode/interrupt.c **** 返 回 值: none.
  85:../srccode/interrupt.c **** ***********************************************************************************/
  86:../srccode/interrupt.c **** void ISR_PassengerIntUnlock(void)
  87:../srccode/interrupt.c **** {
 176              		.loc 1 87 0
 177              		.cfi_startproc
 178              		@ Function supports interworking.
 179              		@ args = 0, pretend = 0, frame = 0
 180              		@ frame_needed = 0, uses_anonymous_args = 0
 181              		@ link register save eliminated.
  88:../srccode/interrupt.c ****     /* 使能中断 */
  89:../srccode/interrupt.c ****     IRQEN |= EXTIRQ0INTMASK;
ARM GAS  C:\DOCUME~1\ADMINI~1\LOCALS~1\Temp\ccdTBE7q.s 			page 6


 182              		.loc 1 89 0
 183 00ac 0F3AE0E3 		mvn	r3, #61440
 184 00b0 F70F13E5 		ldr	r0, [r3, #-4087]
 185 00b4 022980E3 		orr	r2, r0, #32768
 186 00b8 F72F03E5 		str	r2, [r3, #-4087]
  90:../srccode/interrupt.c **** }
 187              		.loc 1 90 0
 188 00bc 1EFF2FE1 		bx	lr
 189              		.cfi_endproc
 190              	.LFE4:
 191              		.fnend
 192              		.size	ISR_PassengerIntUnlock, .-ISR_PassengerIntUnlock
 193              	.Letext0:
 689              		.section	.note.GNU-stack,"",%progbits
ARM GAS  C:\DOCUME~1\ADMINI~1\LOCALS~1\Temp\ccdTBE7q.s 			page 17

