ARM GAS  C:\DOCUME~1\ADMINI~1\LOCALS~1\Temp\ccYtgux9.s 			page 1


   1              		.cpu arm7tdmi
   2              		.fpu softvfp
   3              		.eabi_attribute 20, 1
   4              		.eabi_attribute 21, 1
   5              		.eabi_attribute 23, 3
   6              		.eabi_attribute 24, 1
   7              		.eabi_attribute 25, 1
   8              		.eabi_attribute 26, 2
   9              		.eabi_attribute 30, 2
  10              		.eabi_attribute 18, 4
  11              		.file	"test.c"
  18 0000 19010000 		.text
  18      02005400 
  18      00000201 
  18      FB0E0D00 
  18      01010101 
  19              	.Ltext0:
  20              		.cfi_sections	.debug_frame
  21              		.align	2
  22              		.global	TEST_CrossVarInit
  23              		.type	TEST_CrossVarInit, %function
  24              	TEST_CrossVarInit:
  25              		.fnstart
  26              	.LFB0:
  27              		.file 1 "../srccode/test.c"
   1:../srccode/test.c **** 
   2:../srccode/test.c **** #include "test.h"
   3:../srccode/test.c **** 
   4:../srccode/test.c **** U8 gaucCrossStateStack[TASKSTACK];  /* 十字路口状态任务的堆栈 */
   5:../srccode/test.c **** U8 gaucLedDisplayStack[TASKSTACK];  /* 十字路口灯显示任务的堆栈 */
   6:../srccode/test.c **** 
   7:../srccode/test.c **** W_TCB* gpstrCrossStateTcb;          /* 十字路口状态任务的TCB指针 */
   8:../srccode/test.c **** W_TCB* gpstrLedDisplayTcb;          /* 十字路口灯显示任务的TCB指针 */
   9:../srccode/test.c **** 
  10:../srccode/test.c **** 
  11:../srccode/test.c **** /* 十字路口各种状态 */
  12:../srccode/test.c **** CROSSSTATESTR gastrCrossSta[CROSSSTATENUM] = CROSSINITVALUE;
  13:../srccode/test.c **** 
  14:../srccode/test.c **** /* 十字路口当前状态 */
  15:../srccode/test.c **** CROSSSTATESTR gstrCurCrossSta;
  16:../srccode/test.c **** 
  17:../srccode/test.c **** 
  18:../srccode/test.c **** U32 guiCurSta;          /* 十字路口当前所处的状态 */
  19:../srccode/test.c **** U32 guiStaChange;       /*  0: 十字路口状态未改变, 其它: 状态改变 */
  20:../srccode/test.c **** 
  21:../srccode/test.c **** 
  22:../srccode/test.c **** /***********************************************************************************
  23:../srccode/test.c **** 函数功能: 十字路口变量初始化函数.
  24:../srccode/test.c **** 入口参数: none.
  25:../srccode/test.c **** 返 回 值: none.
  26:../srccode/test.c **** ***********************************************************************************/
ARM GAS  C:\DOCUME~1\ADMINI~1\LOCALS~1\Temp\ccYtgux9.s 			page 2


  27:../srccode/test.c **** void TEST_CrossVarInit(void)
  28:../srccode/test.c **** {
  28              		.loc 1 28 0
  29              		.cfi_startproc
  30              		@ Function supports interworking.
  31              		@ args = 0, pretend = 0, frame = 0
  32              		@ frame_needed = 0, uses_anonymous_args = 0
  33              		@ link register save eliminated.
  29:../srccode/test.c ****     guiSystemTick = 0;
  34              		.loc 1 29 0
  35 0000 1CC09FE5 		ldr	ip, .L2
  30:../srccode/test.c ****     guiCurSta = CROSSSTATE1;
  36              		.loc 1 30 0
  37 0004 1C009FE5 		ldr	r0, .L2+4
  31:../srccode/test.c ****     guiStaChange = 1;   /* 初始化为状态未改变 */
  38              		.loc 1 31 0
  39 0008 1C309FE5 		ldr	r3, .L2+8
  29:../srccode/test.c ****     guiSystemTick = 0;
  40              		.loc 1 29 0
  41 000c 0010A0E3 		mov	r1, #0
  42              		.loc 1 31 0
  43 0010 0120A0E3 		mov	r2, #1
  29:../srccode/test.c ****     guiSystemTick = 0;
  44              		.loc 1 29 0
  45 0014 00108CE5 		str	r1, [ip, #0]
  30:../srccode/test.c ****     guiCurSta = CROSSSTATE1;
  46              		.loc 1 30 0
  47 0018 001080E5 		str	r1, [r0, #0]
  48              		.loc 1 31 0
  49 001c 002083E5 		str	r2, [r3, #0]
  32:../srccode/test.c **** }
  50              		.loc 1 32 0
  51 0020 1EFF2FE1 		bx	lr
  52              	.L3:
  53              		.align	2
  54              	.L2:
  55 0024 00000000 		.word	guiSystemTick
  56 0028 00000000 		.word	guiCurSta
  57 002c 00000000 		.word	guiStaChange
  58              		.cfi_endproc
  59              	.LFE0:
  60              		.fnend
  61              		.size	TEST_CrossVarInit, .-TEST_CrossVarInit
  62              		.align	2
  63              		.global	TEST_CrossStateTask
  64              		.type	TEST_CrossStateTask, %function
  65              	TEST_CrossStateTask:
  66              		.fnstart
  67              	.LFB1:
  33:../srccode/test.c **** 
  34:../srccode/test.c **** /***********************************************************************************
  35:../srccode/test.c **** 函数功能: 改变十字路口灯状态任务.
  36:../srccode/test.c **** 入口参数: none.
  37:../srccode/test.c **** 返 回 值: none.
  38:../srccode/test.c **** ***********************************************************************************/
  39:../srccode/test.c **** void TEST_CrossStateTask(void)
  40:../srccode/test.c **** {
ARM GAS  C:\DOCUME~1\ADMINI~1\LOCALS~1\Temp\ccYtgux9.s 			page 3


  68              		.loc 1 40 0
  69              		.cfi_startproc
  70              		@ Function supports interworking.
  71              		@ args = 0, pretend = 0, frame = 8
  72              		@ frame_needed = 1, uses_anonymous_args = 0
  73              	.LVL0:
  74              		.movsp ip
  75 0030 0DC0A0E1 		mov	ip, sp
  76              	.LCFI0:
  77              		.cfi_def_cfa_register 12
  78 0034 F0DF2DE9 		stmfd	sp!, {r4, r5, r6, r7, r8, r9, sl, fp, ip, lr, pc}
  79              		.pad #4
  80              		.save {r4, r5, r6, r7, r8, r9, sl, fp, ip, lr}
  81 0038 D0419FE5 		ldr	r4, .L38
  82              		.cfi_offset 14, -8
  83              		.cfi_offset 13, -12
  84              		.cfi_offset 11, -16
  85              		.cfi_offset 10, -20
  86              		.cfi_offset 9, -24
  87              		.cfi_offset 8, -28
  88              		.cfi_offset 7, -32
  89              		.cfi_offset 6, -36
  90              		.cfi_offset 5, -40
  91              		.cfi_offset 4, -44
  92              		.setfp fp, ip, #-4
  93 003c 04B04CE2 		sub	fp, ip, #4
  94              	.LCFI1:
  95              		.cfi_def_cfa 11, 4
  41:../srccode/test.c ****     U32 uiStaEndTick;
  42:../srccode/test.c ****     U32 uiFlashEndTick;
  43:../srccode/test.c ****     U32 i;
  44:../srccode/test.c **** 
  45:../srccode/test.c ****     /* 为屏蔽告警, 为变量赋初值 */
  46:../srccode/test.c ****     uiStaEndTick = 0;
  47:../srccode/test.c ****     uiFlashEndTick = 0;
  96              		.loc 1 47 0
  97 0040 0010A0E3 		mov	r1, #0
  40:../srccode/test.c **** {
  98              		.loc 1 40 0
  99              		.pad #12
 100 0044 0CD04DE2 		sub	sp, sp, #12
 101 0048 C4519FE5 		ldr	r5, .L38+4
 102 004c C4619FE5 		ldr	r6, .L38+8
 103              		.loc 1 47 0
 104 0050 30100BE5 		str	r1, [fp, #-48]
 105 0054 C0719FE5 		ldr	r7, .L38+12
 106 0058 C0819FE5 		ldr	r8, .L38+16
  46:../srccode/test.c ****     uiStaEndTick = 0;
 107              		.loc 1 46 0
 108 005c 34100BE5 		str	r1, [fp, #-52]
  48:../srccode/test.c **** 
  49:../srccode/test.c ****     while(1)
  50:../srccode/test.c ****     {
  51:../srccode/test.c ****         /* 锁中断, 防止行人中断影响状态判断 */
  52:../srccode/test.c ****         ISR_PassengerIntLock();
  53:../srccode/test.c **** 
  54:../srccode/test.c ****         /* 状态改变 */
ARM GAS  C:\DOCUME~1\ADMINI~1\LOCALS~1\Temp\ccYtgux9.s 			page 4


  55:../srccode/test.c ****         if(0 != guiStaChange)
  56:../srccode/test.c ****         {
  57:../srccode/test.c ****             guiStaChange = 0;
 109              		.loc 1 57 0
 110 0060 01A0A0E1 		mov	sl, r1
  58:../srccode/test.c **** 
  59:../srccode/test.c ****             /* 获取新状态的参数 */
  60:../srccode/test.c ****             gstrCurCrossSta = gastrCrossSta[guiCurSta];
  61:../srccode/test.c **** 
  62:../srccode/test.c ****             /* 计算该状态结束时的Tick. Tick溢出后会从0重新开始 */
  63:../srccode/test.c ****             uiStaEndTick = guiSystemTick + gstrCurCrossSta.uiRunTime;
  64:../srccode/test.c **** 
  65:../srccode/test.c ****             /* 计算闪烁状态灯亮度切换的Tick. Tick溢出后会从0重新开始 */
  66:../srccode/test.c ****             uiFlashEndTick = guiSystemTick + FLASH1TIME;
  67:../srccode/test.c ****         }
  68:../srccode/test.c **** 
  69:../srccode/test.c ****         /* 当前转该时间到, 需要切换到下一个状态 */
  70:../srccode/test.c ****         if(uiStaEndTick == guiSystemTick)
  71:../srccode/test.c ****         {
  72:../srccode/test.c ****             /* 置为状态改变 */
  73:../srccode/test.c ****             guiStaChange = 1;
  74:../srccode/test.c **** 
  75:../srccode/test.c ****             /* 寻找下一个状态 */
  76:../srccode/test.c ****             if(guiCurSta < CROSSSTATENUM - 1)
  77:../srccode/test.c ****             {
  78:../srccode/test.c ****                 guiCurSta++;
  79:../srccode/test.c ****             }
  80:../srccode/test.c ****             else
  81:../srccode/test.c ****             {
  82:../srccode/test.c ****                 guiCurSta = 0;
  83:../srccode/test.c ****             }
  84:../srccode/test.c ****         }
  85:../srccode/test.c ****         else
  86:../srccode/test.c ****         {
  87:../srccode/test.c ****             /* 闪烁状态灯亮度切换时间到, 需要切换灯亮度 */
  88:../srccode/test.c ****             if(uiFlashEndTick == guiSystemTick)
  89:../srccode/test.c ****             {
  90:../srccode/test.c ****                 /* 循环判断各个灯的闪烁状态 */
  91:../srccode/test.c ****                 for(i = 0; i < LEDNUM; i++)
  92:../srccode/test.c ****                 {
  93:../srccode/test.c ****                     /* 该灯不是闪烁状态则进行下个灯的判断 */
  94:../srccode/test.c ****                     if(LEDSTATE_FLASH != gstrCurCrossSta.astrLed[i].uiLedState)
 111              		.loc 1 94 0
 112 0064 0490A0E1 		mov	r9, r4
 113 0068 050000EA 		b	.L29
 114              	.LVL1:
 115              	.L7:
  88:../srccode/test.c ****             if(uiFlashEndTick == guiSystemTick)
 116              		.loc 1 88 0
 117 006c 30101BE5 		ldr	r1, [fp, #-48]
 118              	.LVL2:
 119 0070 030051E1 		cmp	r1, r3
 120 0074 2800000A 		beq	.L32
 121              	.L9:
  95:../srccode/test.c ****                     {
  96:../srccode/test.c ****                         continue;
  97:../srccode/test.c ****                     }
ARM GAS  C:\DOCUME~1\ADMINI~1\LOCALS~1\Temp\ccYtgux9.s 			page 5


  98:../srccode/test.c ****                     else /* 闪烁状态 */
  99:../srccode/test.c ****                     {
 100:../srccode/test.c ****                         /* 改变灯的亮度, 亮灭互转 */
 101:../srccode/test.c ****                         if(LED_DARK == gstrCurCrossSta.astrLed[i].uiBrightness)
 102:../srccode/test.c ****                         {
 103:../srccode/test.c ****                             gstrCurCrossSta.astrLed[i].uiBrightness = LED_LIGHT;
 104:../srccode/test.c ****                         }
 105:../srccode/test.c ****                         else
 106:../srccode/test.c ****                         {
 107:../srccode/test.c ****                             gstrCurCrossSta.astrLed[i].uiBrightness = LED_DARK;
 108:../srccode/test.c ****                         }
 109:../srccode/test.c **** 
 110:../srccode/test.c ****                         /* 更新下个闪烁时间 */
 111:../srccode/test.c ****                         uiFlashEndTick = guiSystemTick + FLASH1TIME;
 112:../srccode/test.c ****                     }
 113:../srccode/test.c ****                 }
 114:../srccode/test.c ****             }
 115:../srccode/test.c ****         }
 116:../srccode/test.c **** 
 117:../srccode/test.c ****         /* 解锁中断 */
 118:../srccode/test.c ****         ISR_PassengerIntUnlock();
 122              		.loc 1 118 0
 123 0078 FEFFFFEB 		bl	ISR_PassengerIntUnlock
 119:../srccode/test.c **** 
 120:../srccode/test.c ****         /* 切换到控制灯亮度的任务 */
 121:../srccode/test.c ****         WLX_TaskSwitch(gpstrLedDisplayTcb);
 124              		.loc 1 121 0
 125 007c 000098E5 		ldr	r0, [r8, #0]
 126 0080 FEFFFFEB 		bl	WLX_TaskSwitch
 127              	.LVL3:
 128              	.L29:
  52:../srccode/test.c ****         ISR_PassengerIntLock();
 129              		.loc 1 52 0
 130 0084 FEFFFFEB 		bl	ISR_PassengerIntLock
  55:../srccode/test.c ****         if(0 != guiStaChange)
 131              		.loc 1 55 0
 132 0088 003095E5 		ldr	r3, [r5, #0]
 133 008c 000053E3 		cmp	r3, #0
 134 0090 00309705 		ldreq	r3, [r7, #0]
 135 0094 1300000A 		beq	.L6
  60:../srccode/test.c ****             gstrCurCrossSta = gastrCrossSta[guiCurSta];
 136              		.loc 1 60 0
 137 0098 000096E5 		ldr	r0, [r6, #0]
 138 009c 80119FE5 		ldr	r1, .L38+20
 139 00a0 002180E0 		add	r2, r0, r0, asl #2
 140 00a4 823080E0 		add	r3, r0, r2, asl #1
 141 00a8 03C181E0 		add	ip, r1, r3, asl #2
 142 00ac 0F00BCE8 		ldmia	ip!, {r0, r1, r2, r3}
 143 00b0 04E0A0E1 		mov	lr, r4
 144 00b4 0F00AEE8 		stmia	lr!, {r0, r1, r2, r3}
 145 00b8 0F00BCE8 		ldmia	ip!, {r0, r1, r2, r3}
 146 00bc 0F00AEE8 		stmia	lr!, {r0, r1, r2, r3}
 147 00c0 07009CE8 		ldmia	ip, {r0, r1, r2}
  63:../srccode/test.c ****             uiStaEndTick = guiSystemTick + gstrCurCrossSta.uiRunTime;
 148              		.loc 1 63 0
 149 00c4 003097E5 		ldr	r3, [r7, #0]
 150 00c8 00C094E5 		ldr	ip, [r4, #0]
ARM GAS  C:\DOCUME~1\ADMINI~1\LOCALS~1\Temp\ccYtgux9.s 			page 6


  60:../srccode/test.c ****             gstrCurCrossSta = gastrCrossSta[guiCurSta];
 151              		.loc 1 60 0
 152 00cc 07008EE8 		stmia	lr, {r0, r1, r2}
  57:../srccode/test.c ****             guiStaChange = 0;
 153              		.loc 1 57 0
 154 00d0 3CE19FE5 		ldr	lr, .L38+4
  63:../srccode/test.c ****             uiStaEndTick = guiSystemTick + gstrCurCrossSta.uiRunTime;
 155              		.loc 1 63 0
 156 00d4 0C0083E0 		add	r0, r3, ip
  66:../srccode/test.c ****             uiFlashEndTick = guiSystemTick + FLASH1TIME;
 157              		.loc 1 66 0
 158 00d8 052083E2 		add	r2, r3, #5
  57:../srccode/test.c ****             guiStaChange = 0;
 159              		.loc 1 57 0
 160 00dc 00A08EE5 		str	sl, [lr, #0]
  63:../srccode/test.c ****             uiStaEndTick = guiSystemTick + gstrCurCrossSta.uiRunTime;
 161              		.loc 1 63 0
 162 00e0 34000BE5 		str	r0, [fp, #-52]
 163              	.LVL4:
  66:../srccode/test.c ****             uiFlashEndTick = guiSystemTick + FLASH1TIME;
 164              		.loc 1 66 0
 165 00e4 30200BE5 		str	r2, [fp, #-48]
 166              	.LVL5:
 167              	.L6:
  70:../srccode/test.c ****         if(uiStaEndTick == guiSystemTick)
 168              		.loc 1 70 0
 169 00e8 34101BE5 		ldr	r1, [fp, #-52]
 170 00ec 030051E1 		cmp	r1, r3
 171 00f0 DDFFFF1A 		bne	.L7
  76:../srccode/test.c ****             if(guiCurSta < CROSSSTATENUM - 1)
 172              		.loc 1 76 0
 173 00f4 00C096E5 		ldr	ip, [r6, #0]
  73:../srccode/test.c ****             guiStaChange = 1;
 174              		.loc 1 73 0
 175 00f8 01E0A0E3 		mov	lr, #1
  76:../srccode/test.c ****             if(guiCurSta < CROSSSTATENUM - 1)
 176              		.loc 1 76 0
 177 00fc 02005CE3 		cmp	ip, #2
  73:../srccode/test.c ****             guiStaChange = 1;
 178              		.loc 1 73 0
 179 0100 00E085E5 		str	lr, [r5, #0]
  78:../srccode/test.c ****                 guiCurSta++;
 180              		.loc 1 78 0
 181 0104 0C119F95 		ldrls	r1, .L38+8
  82:../srccode/test.c ****                 guiCurSta = 0;
 182              		.loc 1 82 0
 183 0108 08E19F85 		ldrhi	lr, .L38+8
  78:../srccode/test.c ****                 guiCurSta++;
 184              		.loc 1 78 0
 185 010c 0EC08C90 		addls	ip, ip, lr
 186 0110 00C08195 		strls	ip, [r1, #0]
  82:../srccode/test.c ****                 guiCurSta = 0;
 187              		.loc 1 82 0
 188 0114 00A08E85 		strhi	sl, [lr, #0]
 189 0118 D6FFFFEA 		b	.L9
 190              	.L32:
  94:../srccode/test.c ****                     if(LEDSTATE_FLASH != gstrCurCrossSta.astrLed[i].uiLedState)
ARM GAS  C:\DOCUME~1\ADMINI~1\LOCALS~1\Temp\ccYtgux9.s 			page 7


 191              		.loc 1 94 0
 192 011c 043094E5 		ldr	r3, [r4, #4]
 193 0120 020053E3 		cmp	r3, #2
 194 0124 30301B15 		ldrne	r3, [fp, #-48]
 195 0128 1D00000A 		beq	.L33
 196              	.LVL6:
 197 012c 0C1094E5 		ldr	r1, [r4, #12]
 198 0130 020051E3 		cmp	r1, #2
 199 0134 2300000A 		beq	.L34
 200              	.L14:
 201              	.LVL7:
 202 0138 142094E5 		ldr	r2, [r4, #20]
 203 013c 020052E3 		cmp	r2, #2
 204 0140 2A00000A 		beq	.L35
 205              	.L18:
 206              	.LVL8:
 207 0144 1CE094E5 		ldr	lr, [r4, #28]
 208 0148 02005EE3 		cmp	lr, #2
 209 014c 0C00000A 		beq	.L36
 210              	.L22:
 211              	.LVL9:
 212 0150 241094E5 		ldr	r1, [r4, #36]
 213 0154 020051E3 		cmp	r1, #2
 214              	.LVL10:
 215 0158 30300B15 		strne	r3, [fp, #-48]
 216 015c C5FFFF1A 		bne	.L9
 217              	.LVL11:
 218              	.L37:
 101:../srccode/test.c ****                         if(LED_DARK == gstrCurCrossSta.astrLed[i].uiBrightness)
 219              		.loc 1 101 0
 220 0160 28C099E5 		ldr	ip, [r9, #40]
 111:../srccode/test.c ****                         uiFlashEndTick = guiSystemTick + FLASH1TIME;
 221              		.loc 1 111 0
 222 0164 30001BE5 		ldr	r0, [fp, #-48]
 103:../srccode/test.c ****                             gstrCurCrossSta.astrLed[i].uiBrightness = LED_LIGHT;
 223              		.loc 1 103 0
 224 0168 00005CE3 		cmp	ip, #0
 225 016c 0AE0A011 		movne	lr, sl
 226 0170 01E0A003 		moveq	lr, #1
 111:../srccode/test.c ****                         uiFlashEndTick = guiSystemTick + FLASH1TIME;
 227              		.loc 1 111 0
 228 0174 053080E2 		add	r3, r0, #5
 229              	.LVL12:
 103:../srccode/test.c ****                             gstrCurCrossSta.astrLed[i].uiBrightness = LED_LIGHT;
 230              		.loc 1 103 0
 231 0178 28E089E5 		str	lr, [r9, #40]
  94:../srccode/test.c ****                     if(LEDSTATE_FLASH != gstrCurCrossSta.astrLed[i].uiLedState)
 232              		.loc 1 94 0
 233 017c 30300BE5 		str	r3, [fp, #-48]
 234 0180 BCFFFFEA 		b	.L9
 235              	.LVL13:
 236              	.L36:
 101:../srccode/test.c ****                         if(LED_DARK == gstrCurCrossSta.astrLed[i].uiBrightness)
 237              		.loc 1 101 0
 238 0184 203099E5 		ldr	r3, [r9, #32]
 239              	.LVL14:
 111:../srccode/test.c ****                         uiFlashEndTick = guiSystemTick + FLASH1TIME;
ARM GAS  C:\DOCUME~1\ADMINI~1\LOCALS~1\Temp\ccYtgux9.s 			page 8


 240              		.loc 1 111 0
 241 0188 30C01BE5 		ldr	ip, [fp, #-48]
 107:../srccode/test.c ****                             gstrCurCrossSta.astrLed[i].uiBrightness = LED_DARK;
 242              		.loc 1 107 0
 243 018c 000053E3 		cmp	r3, #0
 244 0190 0120A003 		moveq	r2, #1
 245 0194 0A20A011 		movne	r2, sl
 246 0198 202089E5 		str	r2, [r9, #32]
 111:../srccode/test.c ****                         uiFlashEndTick = guiSystemTick + FLASH1TIME;
 247              		.loc 1 111 0
 248 019c 05308CE2 		add	r3, ip, #5
 249              	.LVL15:
 250 01a0 EAFFFFEA 		b	.L22
 251              	.LVL16:
 252              	.L33:
 101:../srccode/test.c ****                         if(LED_DARK == gstrCurCrossSta.astrLed[i].uiBrightness)
 253              		.loc 1 101 0
 254 01a4 082099E5 		ldr	r2, [r9, #8]
 107:../srccode/test.c ****                             gstrCurCrossSta.astrLed[i].uiBrightness = LED_DARK;
 255              		.loc 1 107 0
 256 01a8 000052E3 		cmp	r2, #0
 257 01ac 0130A003 		moveq	r3, #1
 258 01b0 0A30A011 		movne	r3, sl
 259 01b4 083089E5 		str	r3, [r9, #8]
 111:../srccode/test.c ****                         uiFlashEndTick = guiSystemTick + FLASH1TIME;
 260              		.loc 1 111 0
 261 01b8 053081E2 		add	r3, r1, #5
 262              	.LVL17:
  94:../srccode/test.c ****                     if(LEDSTATE_FLASH != gstrCurCrossSta.astrLed[i].uiLedState)
 263              		.loc 1 94 0
 264 01bc 0C1094E5 		ldr	r1, [r4, #12]
 265 01c0 020051E3 		cmp	r1, #2
 266 01c4 DBFFFF1A 		bne	.L14
 267              	.L34:
 101:../srccode/test.c ****                         if(LED_DARK == gstrCurCrossSta.astrLed[i].uiBrightness)
 268              		.loc 1 101 0
 269 01c8 10C099E5 		ldr	ip, [r9, #16]
  94:../srccode/test.c ****                     if(LEDSTATE_FLASH != gstrCurCrossSta.astrLed[i].uiLedState)
 270              		.loc 1 94 0
 271 01cc 142094E5 		ldr	r2, [r4, #20]
 107:../srccode/test.c ****                             gstrCurCrossSta.astrLed[i].uiBrightness = LED_DARK;
 272              		.loc 1 107 0
 273 01d0 00005CE3 		cmp	ip, #0
 111:../srccode/test.c ****                         uiFlashEndTick = guiSystemTick + FLASH1TIME;
 274              		.loc 1 111 0
 275 01d4 30001BE5 		ldr	r0, [fp, #-48]
 107:../srccode/test.c ****                             gstrCurCrossSta.astrLed[i].uiBrightness = LED_DARK;
 276              		.loc 1 107 0
 277 01d8 01E0A003 		moveq	lr, #1
 278 01dc 0AE0A011 		movne	lr, sl
  94:../srccode/test.c ****                     if(LEDSTATE_FLASH != gstrCurCrossSta.astrLed[i].uiLedState)
 279              		.loc 1 94 0
 280 01e0 020052E3 		cmp	r2, #2
 107:../srccode/test.c ****                             gstrCurCrossSta.astrLed[i].uiBrightness = LED_DARK;
 281              		.loc 1 107 0
 282 01e4 10E089E5 		str	lr, [r9, #16]
 111:../srccode/test.c ****                         uiFlashEndTick = guiSystemTick + FLASH1TIME;
ARM GAS  C:\DOCUME~1\ADMINI~1\LOCALS~1\Temp\ccYtgux9.s 			page 9


 283              		.loc 1 111 0
 284 01e8 053080E2 		add	r3, r0, #5
 285              	.LVL18:
  94:../srccode/test.c ****                     if(LEDSTATE_FLASH != gstrCurCrossSta.astrLed[i].uiLedState)
 286              		.loc 1 94 0
 287 01ec D4FFFF1A 		bne	.L18
 288              	.L35:
 101:../srccode/test.c ****                         if(LED_DARK == gstrCurCrossSta.astrLed[i].uiBrightness)
 289              		.loc 1 101 0
 290 01f0 180099E5 		ldr	r0, [r9, #24]
 111:../srccode/test.c ****                         uiFlashEndTick = guiSystemTick + FLASH1TIME;
 291              		.loc 1 111 0
 292 01f4 30301BE5 		ldr	r3, [fp, #-48]
 293              	.LVL19:
 107:../srccode/test.c ****                             gstrCurCrossSta.astrLed[i].uiBrightness = LED_DARK;
 294              		.loc 1 107 0
 295 01f8 000050E3 		cmp	r0, #0
 296 01fc 0110A003 		moveq	r1, #1
 297 0200 0A10A011 		movne	r1, sl
 298 0204 181089E5 		str	r1, [r9, #24]
 111:../srccode/test.c ****                         uiFlashEndTick = guiSystemTick + FLASH1TIME;
 299              		.loc 1 111 0
 300 0208 053083E2 		add	r3, r3, #5
 301              	.LVL20:
 302 020c CCFFFFEA 		b	.L18
 303              	.L39:
 304              		.align	2
 305              	.L38:
 306 0210 00000000 		.word	gstrCurCrossSta
 307 0214 00000000 		.word	guiStaChange
 308 0218 00000000 		.word	guiCurSta
 309 021c 00000000 		.word	guiSystemTick
 310 0220 00000000 		.word	gpstrLedDisplayTcb
 311 0224 00000000 		.word	.LANCHOR0
 312              		.cfi_endproc
 313              	.LFE1:
 314              		.fnend
 315              		.size	TEST_CrossStateTask, .-TEST_CrossStateTask
 316              		.align	2
 317              		.global	TEST_LedSet
 318              		.type	TEST_LedSet, %function
 319              	TEST_LedSet:
 320              		.fnstart
 321              	.LFB3:
 122:../srccode/test.c **** 
 123:../srccode/test.c ****     }
 124:../srccode/test.c **** }
 125:../srccode/test.c **** 
 126:../srccode/test.c **** /***********************************************************************************
 127:../srccode/test.c **** 函数功能: 改变十字路口灯显示任务.
 128:../srccode/test.c **** 入口参数: none.
 129:../srccode/test.c **** 返 回 值: none.
 130:../srccode/test.c **** ***********************************************************************************/
 131:../srccode/test.c **** void TEST_LedDisplayTask(void)
 132:../srccode/test.c **** {
 133:../srccode/test.c ****     U32 i;
 134:../srccode/test.c **** 
ARM GAS  C:\DOCUME~1\ADMINI~1\LOCALS~1\Temp\ccYtgux9.s 			page 10


 135:../srccode/test.c ****     while(1)
 136:../srccode/test.c ****     {
 137:../srccode/test.c ****         /* 根据各个灯的状态控制灯的亮度 */
 138:../srccode/test.c ****         for(i = 0; i < LEDNUM; i++)
 139:../srccode/test.c ****         {
 140:../srccode/test.c ****             /* 设置灯的亮度 */
 141:../srccode/test.c ****             TEST_LedSet(i, gstrCurCrossSta.astrLed[i].uiBrightness);
 142:../srccode/test.c ****         }
 143:../srccode/test.c **** 
 144:../srccode/test.c ****         /* 切换到控制灯状态的任务 */
 145:../srccode/test.c ****         WLX_TaskSwitch(gpstrCrossStateTcb);
 146:../srccode/test.c ****     }
 147:../srccode/test.c **** }
 148:../srccode/test.c **** 
 149:../srccode/test.c **** /***********************************************************************************
 150:../srccode/test.c **** 函数功能: 设置GPIO方向.
 151:../srccode/test.c **** 入口参数: uiLedNo: Led灯编号.
 152:../srccode/test.c ****           uiLedSta: Led灯状态.
 153:../srccode/test.c **** 返 回 值: none.
 154:../srccode/test.c **** ***********************************************************************************/
 155:../srccode/test.c **** void TEST_LedSet(U32 uiLedNo, U32 uiLedSta)
 156:../srccode/test.c **** {
 322              		.loc 1 156 0
 323              		.cfi_startproc
 324              		@ Function supports interworking.
 325              		@ args = 0, pretend = 0, frame = 0
 326              		@ frame_needed = 1, uses_anonymous_args = 0
 327              	.LVL21:
 328              		.movsp ip
 329 0228 0DC0A0E1 		mov	ip, sp
 330              	.LCFI2:
 331              		.cfi_def_cfa_register 12
 157:../srccode/test.c ****     /* 将灯熄灭 */
 158:../srccode/test.c ****     if(LED_DARK == uiLedSta)
 332              		.loc 1 158 0
 333 022c 000051E3 		cmp	r1, #0
 156:../srccode/test.c **** {
 334              		.loc 1 156 0
 335 0230 00D82DE9 		stmfd	sp!, {fp, ip, lr, pc}
 336              		.pad #4
 337              		.save {fp, ip, lr}
 338              		.setfp fp, ip, #-4
 339 0234 04B04CE2 		sub	fp, ip, #4
 340              		.cfi_offset 14, -8
 341              		.cfi_offset 13, -12
 342              		.cfi_offset 11, -16
 343              	.LCFI3:
 344              		.cfi_def_cfa 11, 4
 345              		.loc 1 158 0
 346 0238 0D00001A 		bne	.L41
 159:../srccode/test.c ****     {
 160:../srccode/test.c ****         /* 根据灯编号设置不同的GPIO管脚 */
 161:../srccode/test.c ****         switch(uiLedNo)
 347              		.loc 1 161 0
 348 023c 040050E3 		cmp	r0, #4
 349 0240 00F19F97 		ldrls	pc, [pc, r0, asl #2]
 350 0244 070000EA 		b	.L40
ARM GAS  C:\DOCUME~1\ADMINI~1\LOCALS~1\Temp\ccYtgux9.s 			page 11


 351              	.L48:
 352 0248 94020000 		.word	.L43
 353 024c A4020000 		.word	.L44
 354 0250 B4020000 		.word	.L45
 355 0254 C4020000 		.word	.L46
 356 0258 D4020000 		.word	.L47
 357              	.L53:
 162:../srccode/test.c ****         {
 163:../srccode/test.c ****             case MASTER_RED:
 164:../srccode/test.c **** 
 165:../srccode/test.c ****                 DEV_ClrGpio(GPIOPORT3, GPIO_MR);
 166:../srccode/test.c **** 
 167:../srccode/test.c ****                 break;
 168:../srccode/test.c **** 
 169:../srccode/test.c ****             case MASTER_YELLOW:
 170:../srccode/test.c **** 
 171:../srccode/test.c ****                 DEV_ClrGpio(GPIOPORT3, GPIO_MY);
 172:../srccode/test.c **** 
 173:../srccode/test.c ****                 break;
 174:../srccode/test.c **** 
 175:../srccode/test.c ****             case MASTER_GREEN:
 176:../srccode/test.c **** 
 177:../srccode/test.c ****                 DEV_ClrGpio(GPIOPORT3, GPIO_MG);
 178:../srccode/test.c **** 
 179:../srccode/test.c ****                 break;
 180:../srccode/test.c **** 
 181:../srccode/test.c ****             case SLAVE_RED:
 182:../srccode/test.c **** 
 183:../srccode/test.c ****                 DEV_ClrGpio(GPIOPORT3, GPIO_SR);
 184:../srccode/test.c **** 
 185:../srccode/test.c ****                 break;
 186:../srccode/test.c **** 
 187:../srccode/test.c ****             case SLAVE_GREEN:
 188:../srccode/test.c **** 
 189:../srccode/test.c ****                 DEV_ClrGpio(GPIOPORT3, GPIO_SG);
 190:../srccode/test.c **** 
 191:../srccode/test.c ****                 break;
 192:../srccode/test.c ****         }
 193:../srccode/test.c ****     }
 194:../srccode/test.c ****     /* 将灯点亮 */
 195:../srccode/test.c ****     else //if(LED_LIGHT == uiLedSta)
 196:../srccode/test.c ****     {
 197:../srccode/test.c ****         /* 根据灯编号设置不同的GPIO管脚 */
 198:../srccode/test.c ****         switch(uiLedNo)
 199:../srccode/test.c ****         {
 200:../srccode/test.c ****             case MASTER_RED:
 201:../srccode/test.c **** 
 202:../srccode/test.c ****                 DEV_SetGpio(GPIOPORT3, GPIO_MR);
 203:../srccode/test.c **** 
 204:../srccode/test.c ****                 break;
 205:../srccode/test.c **** 
 206:../srccode/test.c ****             case MASTER_YELLOW:
 207:../srccode/test.c **** 
 208:../srccode/test.c ****                 DEV_SetGpio(GPIOPORT3, GPIO_MY);
 209:../srccode/test.c **** 
 210:../srccode/test.c ****                 break;
 211:../srccode/test.c **** 
ARM GAS  C:\DOCUME~1\ADMINI~1\LOCALS~1\Temp\ccYtgux9.s 			page 12


 212:../srccode/test.c ****             case MASTER_GREEN:
 213:../srccode/test.c **** 
 214:../srccode/test.c ****                 DEV_SetGpio(GPIOPORT3, GPIO_MG);
 215:../srccode/test.c **** 
 216:../srccode/test.c ****                 break;
 217:../srccode/test.c **** 
 218:../srccode/test.c ****             case SLAVE_RED:
 219:../srccode/test.c **** 
 220:../srccode/test.c ****                 DEV_SetGpio(GPIOPORT3, GPIO_SR);
 221:../srccode/test.c **** 
 222:../srccode/test.c ****                 break;
 223:../srccode/test.c **** 
 224:../srccode/test.c ****             case SLAVE_GREEN:
 225:../srccode/test.c **** 
 226:../srccode/test.c ****                 DEV_SetGpio(GPIOPORT3, GPIO_SG);
 358              		.loc 1 226 0
 359 025c 0300A0E3 		mov	r0, #3
 360              	.LVL22:
 361 0260 1010A0E3 		mov	r1, #16
 362              	.LVL23:
 363 0264 FEFFFFEB 		bl	DEV_SetGpio
 364              	.L40:
 227:../srccode/test.c **** 
 228:../srccode/test.c ****                 break;
 229:../srccode/test.c ****         }
 230:../srccode/test.c ****     }
 231:../srccode/test.c **** }
 365              		.loc 1 231 0
 366 0268 0CD04BE2 		sub	sp, fp, #12
 367 026c 00689DE8 		ldmfd	sp, {fp, sp, lr}
 368 0270 1EFF2FE1 		bx	lr
 369              	.LVL24:
 370              	.L41:
 198:../srccode/test.c ****         switch(uiLedNo)
 371              		.loc 1 198 0
 372 0274 040050E3 		cmp	r0, #4
 373 0278 00F19F97 		ldrls	pc, [pc, r0, asl #2]
 374 027c F9FFFFEA 		b	.L40
 375              	.L54:
 376 0280 E4020000 		.word	.L49
 377 0284 F4020000 		.word	.L50
 378 0288 04030000 		.word	.L51
 379 028c 14030000 		.word	.L52
 380 0290 5C020000 		.word	.L53
 381              	.L43:
 165:../srccode/test.c ****                 DEV_ClrGpio(GPIOPORT3, GPIO_MR);
 382              		.loc 1 165 0
 383 0294 0300A0E3 		mov	r0, #3
 384              	.LVL25:
 385 0298 0110A0E3 		mov	r1, #1
 386              	.LVL26:
 387 029c FEFFFFEB 		bl	DEV_ClrGpio
 167:../srccode/test.c ****                 break;
 388              		.loc 1 167 0
 389 02a0 F0FFFFEA 		b	.L40
 390              	.LVL27:
 391              	.L44:
ARM GAS  C:\DOCUME~1\ADMINI~1\LOCALS~1\Temp\ccYtgux9.s 			page 13


 171:../srccode/test.c ****                 DEV_ClrGpio(GPIOPORT3, GPIO_MY);
 392              		.loc 1 171 0
 393 02a4 0300A0E3 		mov	r0, #3
 394              	.LVL28:
 395 02a8 0210A0E3 		mov	r1, #2
 396              	.LVL29:
 397 02ac FEFFFFEB 		bl	DEV_ClrGpio
 173:../srccode/test.c ****                 break;
 398              		.loc 1 173 0
 399 02b0 ECFFFFEA 		b	.L40
 400              	.LVL30:
 401              	.L45:
 177:../srccode/test.c ****                 DEV_ClrGpio(GPIOPORT3, GPIO_MG);
 402              		.loc 1 177 0
 403 02b4 0300A0E3 		mov	r0, #3
 404              	.LVL31:
 405 02b8 0410A0E3 		mov	r1, #4
 406              	.LVL32:
 407 02bc FEFFFFEB 		bl	DEV_ClrGpio
 179:../srccode/test.c ****                 break;
 408              		.loc 1 179 0
 409 02c0 E8FFFFEA 		b	.L40
 410              	.LVL33:
 411              	.L46:
 183:../srccode/test.c ****                 DEV_ClrGpio(GPIOPORT3, GPIO_SR);
 412              		.loc 1 183 0
 413 02c4 0300A0E3 		mov	r0, #3
 414              	.LVL34:
 415 02c8 0810A0E3 		mov	r1, #8
 416              	.LVL35:
 417 02cc FEFFFFEB 		bl	DEV_ClrGpio
 185:../srccode/test.c ****                 break;
 418              		.loc 1 185 0
 419 02d0 E4FFFFEA 		b	.L40
 420              	.LVL36:
 421              	.L47:
 189:../srccode/test.c ****                 DEV_ClrGpio(GPIOPORT3, GPIO_SG);
 422              		.loc 1 189 0
 423 02d4 0300A0E3 		mov	r0, #3
 424              	.LVL37:
 425 02d8 1010A0E3 		mov	r1, #16
 426              	.LVL38:
 427 02dc FEFFFFEB 		bl	DEV_ClrGpio
 191:../srccode/test.c ****                 break;
 428              		.loc 1 191 0
 429 02e0 E0FFFFEA 		b	.L40
 430              	.LVL39:
 431              	.L49:
 202:../srccode/test.c ****                 DEV_SetGpio(GPIOPORT3, GPIO_MR);
 432              		.loc 1 202 0
 433 02e4 0300A0E3 		mov	r0, #3
 434              	.LVL40:
 435 02e8 0110A0E3 		mov	r1, #1
 436              	.LVL41:
 437 02ec FEFFFFEB 		bl	DEV_SetGpio
 204:../srccode/test.c ****                 break;
 438              		.loc 1 204 0
ARM GAS  C:\DOCUME~1\ADMINI~1\LOCALS~1\Temp\ccYtgux9.s 			page 14


 439 02f0 DCFFFFEA 		b	.L40
 440              	.LVL42:
 441              	.L50:
 208:../srccode/test.c ****                 DEV_SetGpio(GPIOPORT3, GPIO_MY);
 442              		.loc 1 208 0
 443 02f4 0300A0E3 		mov	r0, #3
 444              	.LVL43:
 445 02f8 0210A0E3 		mov	r1, #2
 446              	.LVL44:
 447 02fc FEFFFFEB 		bl	DEV_SetGpio
 210:../srccode/test.c ****                 break;
 448              		.loc 1 210 0
 449 0300 D8FFFFEA 		b	.L40
 450              	.LVL45:
 451              	.L51:
 214:../srccode/test.c ****                 DEV_SetGpio(GPIOPORT3, GPIO_MG);
 452              		.loc 1 214 0
 453 0304 0300A0E3 		mov	r0, #3
 454              	.LVL46:
 455 0308 0410A0E3 		mov	r1, #4
 456              	.LVL47:
 457 030c FEFFFFEB 		bl	DEV_SetGpio
 216:../srccode/test.c ****                 break;
 458              		.loc 1 216 0
 459 0310 D4FFFFEA 		b	.L40
 460              	.LVL48:
 461              	.L52:
 220:../srccode/test.c ****                 DEV_SetGpio(GPIOPORT3, GPIO_SR);
 462              		.loc 1 220 0
 463 0314 0300A0E3 		mov	r0, #3
 464              	.LVL49:
 465 0318 0810A0E3 		mov	r1, #8
 466              	.LVL50:
 467 031c FEFFFFEB 		bl	DEV_SetGpio
 222:../srccode/test.c ****                 break;
 468              		.loc 1 222 0
 469 0320 D0FFFFEA 		b	.L40
 470              		.cfi_endproc
 471              	.LFE3:
 472              		.fnend
 473              		.size	TEST_LedSet, .-TEST_LedSet
 474              		.align	2
 475              		.global	TEST_LedDisplayTask
 476              		.type	TEST_LedDisplayTask, %function
 477              	TEST_LedDisplayTask:
 478              		.fnstart
 479              	.LFB2:
 132:../srccode/test.c **** {
 480              		.loc 1 132 0
 481              		.cfi_startproc
 482              		@ Function supports interworking.
 483              		@ args = 0, pretend = 0, frame = 0
 484              		@ frame_needed = 1, uses_anonymous_args = 0
 485              		.movsp ip
 486 0324 0DC0A0E1 		mov	ip, sp
 487              	.LCFI4:
 488              		.cfi_def_cfa_register 12
ARM GAS  C:\DOCUME~1\ADMINI~1\LOCALS~1\Temp\ccYtgux9.s 			page 15


 489 0328 78D82DE9 		stmfd	sp!, {r3, r4, r5, r6, fp, ip, lr, pc}
 490              		.pad #4
 491              		.save {r3, r4, r5, r6, fp, ip, lr}
 492              		.setfp fp, ip, #-4
 493 032c 04B04CE2 		sub	fp, ip, #4
 494              		.cfi_offset 14, -8
 495              		.cfi_offset 13, -12
 496              		.cfi_offset 11, -16
 497              		.cfi_offset 6, -20
 498              		.cfi_offset 5, -24
 499              		.cfi_offset 4, -28
 500              		.cfi_offset 3, -32
 501              	.LCFI5:
 502              		.cfi_def_cfa 11, 4
 138:../srccode/test.c ****         for(i = 0; i < LEDNUM; i++)
 503              		.loc 1 138 0
 504 0330 0040A0E3 		mov	r4, #0
 505 0334 30509FE5 		ldr	r5, .L60
 506 0338 30609FE5 		ldr	r6, .L60+4
 507 033c 040000EA 		b	.L59
 508              	.L57:
 141:../srccode/test.c ****             TEST_LedSet(i, gstrCurCrossSta.astrLed[i].uiBrightness);
 509              		.loc 1 141 0 discriminator 2
 510 0340 843185E0 		add	r3, r5, r4, asl #3
 511 0344 0400A0E1 		mov	r0, r4
 512 0348 081093E5 		ldr	r1, [r3, #8]
 513 034c FEFFFFEB 		bl	TEST_LedSet
 138:../srccode/test.c ****         for(i = 0; i < LEDNUM; i++)
 514              		.loc 1 138 0 discriminator 2
 515 0350 014084E2 		add	r4, r4, #1
 516              	.LVL51:
 517              	.L59:
 138:../srccode/test.c ****         for(i = 0; i < LEDNUM; i++)
 518              		.loc 1 138 0 is_stmt 0 discriminator 1
 519 0354 040054E3 		cmp	r4, #4
 520 0358 F8FFFF9A 		bls	.L57
 145:../srccode/test.c ****         WLX_TaskSwitch(gpstrCrossStateTcb);
 521              		.loc 1 145 0 is_stmt 1
 522 035c 000096E5 		ldr	r0, [r6, #0]
 523 0360 FEFFFFEB 		bl	WLX_TaskSwitch
 138:../srccode/test.c ****         for(i = 0; i < LEDNUM; i++)
 524              		.loc 1 138 0
 525 0364 0040A0E3 		mov	r4, #0
 526              	.LVL52:
 527 0368 F4FFFFEA 		b	.L57
 528              	.L61:
 529              		.align	2
 530              	.L60:
 531 036c 00000000 		.word	gstrCurCrossSta
 532 0370 00000000 		.word	gpstrCrossStateTcb
 533              		.cfi_endproc
 534              	.LFE2:
 535              		.fnend
 536              		.size	TEST_LedDisplayTask, .-TEST_LedDisplayTask
 537              		.global	gastrCrossSta
 538              		.comm	gaucCrossStateStack,400,4
 539              		.comm	gaucLedDisplayStack,400,4
ARM GAS  C:\DOCUME~1\ADMINI~1\LOCALS~1\Temp\ccYtgux9.s 			page 16


 540              		.comm	gpstrCrossStateTcb,4,4
 541              		.comm	gpstrLedDisplayTcb,4,4
 542              		.comm	guiCurSta,4,4
 543              		.comm	guiStaChange,4,4
 544              		.comm	gstrCurCrossSta,44,4
 545              		.data
 546              		.align	2
 547              	.LANCHOR0 = . + 0
 548              		.type	gastrCrossSta, %object
 549              		.size	gastrCrossSta, 176
 550              	gastrCrossSta:
 551 0000 2C010000 		.word	300
 552 0004 00000000 		.word	0
 553 0008 00000000 		.word	0
 554 000c 00000000 		.word	0
 555 0010 00000000 		.word	0
 556 0014 01000000 		.word	1
 557 0018 01000000 		.word	1
 558 001c 01000000 		.word	1
 559 0020 01000000 		.word	1
 560 0024 00000000 		.word	0
 561 0028 00000000 		.word	0
 562 002c 32000000 		.word	50
 563 0030 00000000 		.word	0
 564 0034 00000000 		.word	0
 565 0038 01000000 		.word	1
 566 003c 01000000 		.word	1
 567 0040 00000000 		.word	0
 568 0044 00000000 		.word	0
 569 0048 01000000 		.word	1
 570 004c 01000000 		.word	1
 571 0050 00000000 		.word	0
 572 0054 00000000 		.word	0
 573 0058 64000000 		.word	100
 574 005c 01000000 		.word	1
 575 0060 01000000 		.word	1
 576 0064 00000000 		.word	0
 577 0068 00000000 		.word	0
 578 006c 00000000 		.word	0
 579 0070 00000000 		.word	0
 580 0074 00000000 		.word	0
 581 0078 00000000 		.word	0
 582 007c 01000000 		.word	1
 583 0080 01000000 		.word	1
 584 0084 32000000 		.word	50
 585 0088 01000000 		.word	1
 586 008c 01000000 		.word	1
 587 0090 00000000 		.word	0
 588 0094 00000000 		.word	0
 589 0098 00000000 		.word	0
 590 009c 00000000 		.word	0
 591 00a0 00000000 		.word	0
 592 00a4 00000000 		.word	0
 593 00a8 02000000 		.word	2
 594 00ac 00000000 		.word	0
 595              		.text
 596              	.Letext0:
ARM GAS  C:\DOCUME~1\ADMINI~1\LOCALS~1\Temp\ccYtgux9.s 			page 17


 1703              		.section	.note.GNU-stack,"",%progbits
ARM GAS  C:\DOCUME~1\ADMINI~1\LOCALS~1\Temp\ccYtgux9.s 			page 40

