ARM GAS  C:\DOCUME~1\ADMINI~1\LOCALS~1\Temp\ccYtgux9.s 			page 1


   1              		.cpu arm7tdmi
   2              		.fpu softvfp
   3              		.eabi_attribute 20, 1
   4              		.eabi_attribute 21, 1
   5              		.eabi_attribute 23, 3
   6              		.eabi_attribute 24, 1
   7              		.eabi_attribute 25, 1
   8              		.eabi_attribute 26, 2
   9              		.eabi_attribute 30, 2
  10              		.eabi_attribute 18, 4
  11              		.file	"test.c"
  12              		.section	.debug_abbrev,"",%progbits
  13              	.Ldebug_abbrev0:
  14              		.section	.debug_info,"",%progbits
  15              	.Ldebug_info0:
  16              		.section	.debug_line,"",%progbits
  17              	.Ldebug_line0:
  18 0000 19010000 		.text
  18      02005400 
  18      00000201 
  18      FB0E0D00 
  18      01010101 
  19              	.Ltext0:
  20              		.cfi_sections	.debug_frame
  21              		.align	2
  22              		.global	TEST_CrossVarInit
  23              		.type	TEST_CrossVarInit, %function
  24              	TEST_CrossVarInit:
  25              		.fnstart
  26              	.LFB0:
  27              		.file 1 "../srccode/test.c"
   1:../srccode/test.c **** 
   2:../srccode/test.c **** #include "test.h"
   3:../srccode/test.c **** 
   4:../srccode/test.c **** U8 gaucCrossStateStack[TASKSTACK];  /* 十字路口状态任务的堆栈 */
   5:../srccode/test.c **** U8 gaucLedDisplayStack[TASKSTACK];  /* 十字路口灯显示任务的堆栈 */
   6:../srccode/test.c **** 
   7:../srccode/test.c **** W_TCB* gpstrCrossStateTcb;          /* 十字路口状态任务的TCB指针 */
   8:../srccode/test.c **** W_TCB* gpstrLedDisplayTcb;          /* 十字路口灯显示任务的TCB指针 */
   9:../srccode/test.c **** 
  10:../srccode/test.c **** 
  11:../srccode/test.c **** /* 十字路口各种状态 */
  12:../srccode/test.c **** CROSSSTATESTR gastrCrossSta[CROSSSTATENUM] = CROSSINITVALUE;
  13:../srccode/test.c **** 
  14:../srccode/test.c **** /* 十字路口当前状态 */
  15:../srccode/test.c **** CROSSSTATESTR gstrCurCrossSta;
  16:../srccode/test.c **** 
  17:../srccode/test.c **** 
  18:../srccode/test.c **** U32 guiCurSta;          /* 十字路口当前所处的状态 */
  19:../srccode/test.c **** U32 guiStaChange;       /*  0: 十字路口状态未改变, 其它: 状态改变 */
  20:../srccode/test.c **** 
  21:../srccode/test.c **** 
  22:../srccode/test.c **** /***********************************************************************************
  23:../srccode/test.c **** 函数功能: 十字路口变量初始化函数.
  24:../srccode/test.c **** 入口参数: none.
  25:../srccode/test.c **** 返 回 值: none.
  26:../srccode/test.c **** ***********************************************************************************/
ARM GAS  C:\DOCUME~1\ADMINI~1\LOCALS~1\Temp\ccYtgux9.s 			page 2


  27:../srccode/test.c **** void TEST_CrossVarInit(void)
  28:../srccode/test.c **** {
  28              		.loc 1 28 0
  29              		.cfi_startproc
  30              		@ Function supports interworking.
  31              		@ args = 0, pretend = 0, frame = 0
  32              		@ frame_needed = 0, uses_anonymous_args = 0
  33              		@ link register save eliminated.
  29:../srccode/test.c ****     guiSystemTick = 0;
  34              		.loc 1 29 0
  35 0000 1CC09FE5 		ldr	ip, .L2
  30:../srccode/test.c ****     guiCurSta = CROSSSTATE1;
  36              		.loc 1 30 0
  37 0004 1C009FE5 		ldr	r0, .L2+4
  31:../srccode/test.c ****     guiStaChange = 1;   /* 初始化为状态未改变 */
  38              		.loc 1 31 0
  39 0008 1C309FE5 		ldr	r3, .L2+8
  29:../srccode/test.c ****     guiSystemTick = 0;
  40              		.loc 1 29 0
  41 000c 0010A0E3 		mov	r1, #0
  42              		.loc 1 31 0
  43 0010 0120A0E3 		mov	r2, #1
  29:../srccode/test.c ****     guiSystemTick = 0;
  44              		.loc 1 29 0
  45 0014 00108CE5 		str	r1, [ip, #0]
  30:../srccode/test.c ****     guiCurSta = CROSSSTATE1;
  46              		.loc 1 30 0
  47 0018 001080E5 		str	r1, [r0, #0]
  48              		.loc 1 31 0
  49 001c 002083E5 		str	r2, [r3, #0]
  32:../srccode/test.c **** }
  50              		.loc 1 32 0
  51 0020 1EFF2FE1 		bx	lr
  52              	.L3:
  53              		.align	2
  54              	.L2:
  55 0024 00000000 		.word	guiSystemTick
  56 0028 00000000 		.word	guiCurSta
  57 002c 00000000 		.word	guiStaChange
  58              		.cfi_endproc
  59              	.LFE0:
  60              		.fnend
  61              		.size	TEST_CrossVarInit, .-TEST_CrossVarInit
  62              		.align	2
  63              		.global	TEST_CrossStateTask
  64              		.type	TEST_CrossStateTask, %function
  65              	TEST_CrossStateTask:
  66              		.fnstart
  67              	.LFB1:
  33:../srccode/test.c **** 
  34:../srccode/test.c **** /***********************************************************************************
  35:../srccode/test.c **** 函数功能: 改变十字路口灯状态任务.
  36:../srccode/test.c **** 入口参数: none.
  37:../srccode/test.c **** 返 回 值: none.
  38:../srccode/test.c **** ***********************************************************************************/
  39:../srccode/test.c **** void TEST_CrossStateTask(void)
  40:../srccode/test.c **** {
ARM GAS  C:\DOCUME~1\ADMINI~1\LOCALS~1\Temp\ccYtgux9.s 			page 3


  68              		.loc 1 40 0
  69              		.cfi_startproc
  70              		@ Function supports interworking.
  71              		@ args = 0, pretend = 0, frame = 8
  72              		@ frame_needed = 1, uses_anonymous_args = 0
  73              	.LVL0:
  74              		.movsp ip
  75 0030 0DC0A0E1 		mov	ip, sp
  76              	.LCFI0:
  77              		.cfi_def_cfa_register 12
  78 0034 F0DF2DE9 		stmfd	sp!, {r4, r5, r6, r7, r8, r9, sl, fp, ip, lr, pc}
  79              		.pad #4
  80              		.save {r4, r5, r6, r7, r8, r9, sl, fp, ip, lr}
  81 0038 D0419FE5 		ldr	r4, .L38
  82              		.cfi_offset 14, -8
  83              		.cfi_offset 13, -12
  84              		.cfi_offset 11, -16
  85              		.cfi_offset 10, -20
  86              		.cfi_offset 9, -24
  87              		.cfi_offset 8, -28
  88              		.cfi_offset 7, -32
  89              		.cfi_offset 6, -36
  90              		.cfi_offset 5, -40
  91              		.cfi_offset 4, -44
  92              		.setfp fp, ip, #-4
  93 003c 04B04CE2 		sub	fp, ip, #4
  94              	.LCFI1:
  95              		.cfi_def_cfa 11, 4
  41:../srccode/test.c ****     U32 uiStaEndTick;
  42:../srccode/test.c ****     U32 uiFlashEndTick;
  43:../srccode/test.c ****     U32 i;
  44:../srccode/test.c **** 
  45:../srccode/test.c ****     /* 为屏蔽告警, 为变量赋初值 */
  46:../srccode/test.c ****     uiStaEndTick = 0;
  47:../srccode/test.c ****     uiFlashEndTick = 0;
  96              		.loc 1 47 0
  97 0040 0010A0E3 		mov	r1, #0
  40:../srccode/test.c **** {
  98              		.loc 1 40 0
  99              		.pad #12
 100 0044 0CD04DE2 		sub	sp, sp, #12
 101 0048 C4519FE5 		ldr	r5, .L38+4
 102 004c C4619FE5 		ldr	r6, .L38+8
 103              		.loc 1 47 0
 104 0050 30100BE5 		str	r1, [fp, #-48]
 105 0054 C0719FE5 		ldr	r7, .L38+12
 106 0058 C0819FE5 		ldr	r8, .L38+16
  46:../srccode/test.c ****     uiStaEndTick = 0;
 107              		.loc 1 46 0
 108 005c 34100BE5 		str	r1, [fp, #-52]
  48:../srccode/test.c **** 
  49:../srccode/test.c ****     while(1)
  50:../srccode/test.c ****     {
  51:../srccode/test.c ****         /* 锁中断, 防止行人中断影响状态判断 */
  52:../srccode/test.c ****         ISR_PassengerIntLock();
  53:../srccode/test.c **** 
  54:../srccode/test.c ****         /* 状态改变 */
ARM GAS  C:\DOCUME~1\ADMINI~1\LOCALS~1\Temp\ccYtgux9.s 			page 4


  55:../srccode/test.c ****         if(0 != guiStaChange)
  56:../srccode/test.c ****         {
  57:../srccode/test.c ****             guiStaChange = 0;
 109              		.loc 1 57 0
 110 0060 01A0A0E1 		mov	sl, r1
  58:../srccode/test.c **** 
  59:../srccode/test.c ****             /* 获取新状态的参数 */
  60:../srccode/test.c ****             gstrCurCrossSta = gastrCrossSta[guiCurSta];
  61:../srccode/test.c **** 
  62:../srccode/test.c ****             /* 计算该状态结束时的Tick. Tick溢出后会从0重新开始 */
  63:../srccode/test.c ****             uiStaEndTick = guiSystemTick + gstrCurCrossSta.uiRunTime;
  64:../srccode/test.c **** 
  65:../srccode/test.c ****             /* 计算闪烁状态灯亮度切换的Tick. Tick溢出后会从0重新开始 */
  66:../srccode/test.c ****             uiFlashEndTick = guiSystemTick + FLASH1TIME;
  67:../srccode/test.c ****         }
  68:../srccode/test.c **** 
  69:../srccode/test.c ****         /* 当前转该时间到, 需要切换到下一个状态 */
  70:../srccode/test.c ****         if(uiStaEndTick == guiSystemTick)
  71:../srccode/test.c ****         {
  72:../srccode/test.c ****             /* 置为状态改变 */
  73:../srccode/test.c ****             guiStaChange = 1;
  74:../srccode/test.c **** 
  75:../srccode/test.c ****             /* 寻找下一个状态 */
  76:../srccode/test.c ****             if(guiCurSta < CROSSSTATENUM - 1)
  77:../srccode/test.c ****             {
  78:../srccode/test.c ****                 guiCurSta++;
  79:../srccode/test.c ****             }
  80:../srccode/test.c ****             else
  81:../srccode/test.c ****             {
  82:../srccode/test.c ****                 guiCurSta = 0;
  83:../srccode/test.c ****             }
  84:../srccode/test.c ****         }
  85:../srccode/test.c ****         else
  86:../srccode/test.c ****         {
  87:../srccode/test.c ****             /* 闪烁状态灯亮度切换时间到, 需要切换灯亮度 */
  88:../srccode/test.c ****             if(uiFlashEndTick == guiSystemTick)
  89:../srccode/test.c ****             {
  90:../srccode/test.c ****                 /* 循环判断各个灯的闪烁状态 */
  91:../srccode/test.c ****                 for(i = 0; i < LEDNUM; i++)
  92:../srccode/test.c ****                 {
  93:../srccode/test.c ****                     /* 该灯不是闪烁状态则进行下个灯的判断 */
  94:../srccode/test.c ****                     if(LEDSTATE_FLASH != gstrCurCrossSta.astrLed[i].uiLedState)
 111              		.loc 1 94 0
 112 0064 0490A0E1 		mov	r9, r4
 113 0068 050000EA 		b	.L29
 114              	.LVL1:
 115              	.L7:
  88:../srccode/test.c ****             if(uiFlashEndTick == guiSystemTick)
 116              		.loc 1 88 0
 117 006c 30101BE5 		ldr	r1, [fp, #-48]
 118              	.LVL2:
 119 0070 030051E1 		cmp	r1, r3
 120 0074 2800000A 		beq	.L32
 121              	.L9:
  95:../srccode/test.c ****                     {
  96:../srccode/test.c ****                         continue;
  97:../srccode/test.c ****                     }
ARM GAS  C:\DOCUME~1\ADMINI~1\LOCALS~1\Temp\ccYtgux9.s 			page 5


  98:../srccode/test.c ****                     else /* 闪烁状态 */
  99:../srccode/test.c ****                     {
 100:../srccode/test.c ****                         /* 改变灯的亮度, 亮灭互转 */
 101:../srccode/test.c ****                         if(LED_DARK == gstrCurCrossSta.astrLed[i].uiBrightness)
 102:../srccode/test.c ****                         {
 103:../srccode/test.c ****                             gstrCurCrossSta.astrLed[i].uiBrightness = LED_LIGHT;
 104:../srccode/test.c ****                         }
 105:../srccode/test.c ****                         else
 106:../srccode/test.c ****                         {
 107:../srccode/test.c ****                             gstrCurCrossSta.astrLed[i].uiBrightness = LED_DARK;
 108:../srccode/test.c ****                         }
 109:../srccode/test.c **** 
 110:../srccode/test.c ****                         /* 更新下个闪烁时间 */
 111:../srccode/test.c ****                         uiFlashEndTick = guiSystemTick + FLASH1TIME;
 112:../srccode/test.c ****                     }
 113:../srccode/test.c ****                 }
 114:../srccode/test.c ****             }
 115:../srccode/test.c ****         }
 116:../srccode/test.c **** 
 117:../srccode/test.c ****         /* 解锁中断 */
 118:../srccode/test.c ****         ISR_PassengerIntUnlock();
 122              		.loc 1 118 0
 123 0078 FEFFFFEB 		bl	ISR_PassengerIntUnlock
 119:../srccode/test.c **** 
 120:../srccode/test.c ****         /* 切换到控制灯亮度的任务 */
 121:../srccode/test.c ****         WLX_TaskSwitch(gpstrLedDisplayTcb);
 124              		.loc 1 121 0
 125 007c 000098E5 		ldr	r0, [r8, #0]
 126 0080 FEFFFFEB 		bl	WLX_TaskSwitch
 127              	.LVL3:
 128              	.L29:
  52:../srccode/test.c ****         ISR_PassengerIntLock();
 129              		.loc 1 52 0
 130 0084 FEFFFFEB 		bl	ISR_PassengerIntLock
  55:../srccode/test.c ****         if(0 != guiStaChange)
 131              		.loc 1 55 0
 132 0088 003095E5 		ldr	r3, [r5, #0]
 133 008c 000053E3 		cmp	r3, #0
 134 0090 00309705 		ldreq	r3, [r7, #0]
 135 0094 1300000A 		beq	.L6
  60:../srccode/test.c ****             gstrCurCrossSta = gastrCrossSta[guiCurSta];
 136              		.loc 1 60 0
 137 0098 000096E5 		ldr	r0, [r6, #0]
 138 009c 80119FE5 		ldr	r1, .L38+20
 139 00a0 002180E0 		add	r2, r0, r0, asl #2
 140 00a4 823080E0 		add	r3, r0, r2, asl #1
 141 00a8 03C181E0 		add	ip, r1, r3, asl #2
 142 00ac 0F00BCE8 		ldmia	ip!, {r0, r1, r2, r3}
 143 00b0 04E0A0E1 		mov	lr, r4
 144 00b4 0F00AEE8 		stmia	lr!, {r0, r1, r2, r3}
 145 00b8 0F00BCE8 		ldmia	ip!, {r0, r1, r2, r3}
 146 00bc 0F00AEE8 		stmia	lr!, {r0, r1, r2, r3}
 147 00c0 07009CE8 		ldmia	ip, {r0, r1, r2}
  63:../srccode/test.c ****             uiStaEndTick = guiSystemTick + gstrCurCrossSta.uiRunTime;
 148              		.loc 1 63 0
 149 00c4 003097E5 		ldr	r3, [r7, #0]
 150 00c8 00C094E5 		ldr	ip, [r4, #0]
ARM GAS  C:\DOCUME~1\ADMINI~1\LOCALS~1\Temp\ccYtgux9.s 			page 6


  60:../srccode/test.c ****             gstrCurCrossSta = gastrCrossSta[guiCurSta];
 151              		.loc 1 60 0
 152 00cc 07008EE8 		stmia	lr, {r0, r1, r2}
  57:../srccode/test.c ****             guiStaChange = 0;
 153              		.loc 1 57 0
 154 00d0 3CE19FE5 		ldr	lr, .L38+4
  63:../srccode/test.c ****             uiStaEndTick = guiSystemTick + gstrCurCrossSta.uiRunTime;
 155              		.loc 1 63 0
 156 00d4 0C0083E0 		add	r0, r3, ip
  66:../srccode/test.c ****             uiFlashEndTick = guiSystemTick + FLASH1TIME;
 157              		.loc 1 66 0
 158 00d8 052083E2 		add	r2, r3, #5
  57:../srccode/test.c ****             guiStaChange = 0;
 159              		.loc 1 57 0
 160 00dc 00A08EE5 		str	sl, [lr, #0]
  63:../srccode/test.c ****             uiStaEndTick = guiSystemTick + gstrCurCrossSta.uiRunTime;
 161              		.loc 1 63 0
 162 00e0 34000BE5 		str	r0, [fp, #-52]
 163              	.LVL4:
  66:../srccode/test.c ****             uiFlashEndTick = guiSystemTick + FLASH1TIME;
 164              		.loc 1 66 0
 165 00e4 30200BE5 		str	r2, [fp, #-48]
 166              	.LVL5:
 167              	.L6:
  70:../srccode/test.c ****         if(uiStaEndTick == guiSystemTick)
 168              		.loc 1 70 0
 169 00e8 34101BE5 		ldr	r1, [fp, #-52]
 170 00ec 030051E1 		cmp	r1, r3
 171 00f0 DDFFFF1A 		bne	.L7
  76:../srccode/test.c ****             if(guiCurSta < CROSSSTATENUM - 1)
 172              		.loc 1 76 0
 173 00f4 00C096E5 		ldr	ip, [r6, #0]
  73:../srccode/test.c ****             guiStaChange = 1;
 174              		.loc 1 73 0
 175 00f8 01E0A0E3 		mov	lr, #1
  76:../srccode/test.c ****             if(guiCurSta < CROSSSTATENUM - 1)
 176              		.loc 1 76 0
 177 00fc 02005CE3 		cmp	ip, #2
  73:../srccode/test.c ****             guiStaChange = 1;
 178              		.loc 1 73 0
 179 0100 00E085E5 		str	lr, [r5, #0]
  78:../srccode/test.c ****                 guiCurSta++;
 180              		.loc 1 78 0
 181 0104 0C119F95 		ldrls	r1, .L38+8
  82:../srccode/test.c ****                 guiCurSta = 0;
 182              		.loc 1 82 0
 183 0108 08E19F85 		ldrhi	lr, .L38+8
  78:../srccode/test.c ****                 guiCurSta++;
 184              		.loc 1 78 0
 185 010c 0EC08C90 		addls	ip, ip, lr
 186 0110 00C08195 		strls	ip, [r1, #0]
  82:../srccode/test.c ****                 guiCurSta = 0;
 187              		.loc 1 82 0
 188 0114 00A08E85 		strhi	sl, [lr, #0]
 189 0118 D6FFFFEA 		b	.L9
 190              	.L32:
  94:../srccode/test.c ****                     if(LEDSTATE_FLASH != gstrCurCrossSta.astrLed[i].uiLedState)
ARM GAS  C:\DOCUME~1\ADMINI~1\LOCALS~1\Temp\ccYtgux9.s 			page 7


 191              		.loc 1 94 0
 192 011c 043094E5 		ldr	r3, [r4, #4]
 193 0120 020053E3 		cmp	r3, #2
 194 0124 30301B15 		ldrne	r3, [fp, #-48]
 195 0128 1D00000A 		beq	.L33
 196              	.LVL6:
 197 012c 0C1094E5 		ldr	r1, [r4, #12]
 198 0130 020051E3 		cmp	r1, #2
 199 0134 2300000A 		beq	.L34
 200              	.L14:
 201              	.LVL7:
 202 0138 142094E5 		ldr	r2, [r4, #20]
 203 013c 020052E3 		cmp	r2, #2
 204 0140 2A00000A 		beq	.L35
 205              	.L18:
 206              	.LVL8:
 207 0144 1CE094E5 		ldr	lr, [r4, #28]
 208 0148 02005EE3 		cmp	lr, #2
 209 014c 0C00000A 		beq	.L36
 210              	.L22:
 211              	.LVL9:
 212 0150 241094E5 		ldr	r1, [r4, #36]
 213 0154 020051E3 		cmp	r1, #2
 214              	.LVL10:
 215 0158 30300B15 		strne	r3, [fp, #-48]
 216 015c C5FFFF1A 		bne	.L9
 217              	.LVL11:
 218              	.L37:
 101:../srccode/test.c ****                         if(LED_DARK == gstrCurCrossSta.astrLed[i].uiBrightness)
 219              		.loc 1 101 0
 220 0160 28C099E5 		ldr	ip, [r9, #40]
 111:../srccode/test.c ****                         uiFlashEndTick = guiSystemTick + FLASH1TIME;
 221              		.loc 1 111 0
 222 0164 30001BE5 		ldr	r0, [fp, #-48]
 103:../srccode/test.c ****                             gstrCurCrossSta.astrLed[i].uiBrightness = LED_LIGHT;
 223              		.loc 1 103 0
 224 0168 00005CE3 		cmp	ip, #0
 225 016c 0AE0A011 		movne	lr, sl
 226 0170 01E0A003 		moveq	lr, #1
 111:../srccode/test.c ****                         uiFlashEndTick = guiSystemTick + FLASH1TIME;
 227              		.loc 1 111 0
 228 0174 053080E2 		add	r3, r0, #5
 229              	.LVL12:
 103:../srccode/test.c ****                             gstrCurCrossSta.astrLed[i].uiBrightness = LED_LIGHT;
 230              		.loc 1 103 0
 231 0178 28E089E5 		str	lr, [r9, #40]
  94:../srccode/test.c ****                     if(LEDSTATE_FLASH != gstrCurCrossSta.astrLed[i].uiLedState)
 232              		.loc 1 94 0
 233 017c 30300BE5 		str	r3, [fp, #-48]
 234 0180 BCFFFFEA 		b	.L9
 235              	.LVL13:
 236              	.L36:
 101:../srccode/test.c ****                         if(LED_DARK == gstrCurCrossSta.astrLed[i].uiBrightness)
 237              		.loc 1 101 0
 238 0184 203099E5 		ldr	r3, [r9, #32]
 239              	.LVL14:
 111:../srccode/test.c ****                         uiFlashEndTick = guiSystemTick + FLASH1TIME;
ARM GAS  C:\DOCUME~1\ADMINI~1\LOCALS~1\Temp\ccYtgux9.s 			page 8


 240              		.loc 1 111 0
 241 0188 30C01BE5 		ldr	ip, [fp, #-48]
 107:../srccode/test.c ****                             gstrCurCrossSta.astrLed[i].uiBrightness = LED_DARK;
 242              		.loc 1 107 0
 243 018c 000053E3 		cmp	r3, #0
 244 0190 0120A003 		moveq	r2, #1
 245 0194 0A20A011 		movne	r2, sl
 246 0198 202089E5 		str	r2, [r9, #32]
 111:../srccode/test.c ****                         uiFlashEndTick = guiSystemTick + FLASH1TIME;
 247              		.loc 1 111 0
 248 019c 05308CE2 		add	r3, ip, #5
 249              	.LVL15:
 250 01a0 EAFFFFEA 		b	.L22
 251              	.LVL16:
 252              	.L33:
 101:../srccode/test.c ****                         if(LED_DARK == gstrCurCrossSta.astrLed[i].uiBrightness)
 253              		.loc 1 101 0
 254 01a4 082099E5 		ldr	r2, [r9, #8]
 107:../srccode/test.c ****                             gstrCurCrossSta.astrLed[i].uiBrightness = LED_DARK;
 255              		.loc 1 107 0
 256 01a8 000052E3 		cmp	r2, #0
 257 01ac 0130A003 		moveq	r3, #1
 258 01b0 0A30A011 		movne	r3, sl
 259 01b4 083089E5 		str	r3, [r9, #8]
 111:../srccode/test.c ****                         uiFlashEndTick = guiSystemTick + FLASH1TIME;
 260              		.loc 1 111 0
 261 01b8 053081E2 		add	r3, r1, #5
 262              	.LVL17:
  94:../srccode/test.c ****                     if(LEDSTATE_FLASH != gstrCurCrossSta.astrLed[i].uiLedState)
 263              		.loc 1 94 0
 264 01bc 0C1094E5 		ldr	r1, [r4, #12]
 265 01c0 020051E3 		cmp	r1, #2
 266 01c4 DBFFFF1A 		bne	.L14
 267              	.L34:
 101:../srccode/test.c ****                         if(LED_DARK == gstrCurCrossSta.astrLed[i].uiBrightness)
 268              		.loc 1 101 0
 269 01c8 10C099E5 		ldr	ip, [r9, #16]
  94:../srccode/test.c ****                     if(LEDSTATE_FLASH != gstrCurCrossSta.astrLed[i].uiLedState)
 270              		.loc 1 94 0
 271 01cc 142094E5 		ldr	r2, [r4, #20]
 107:../srccode/test.c ****                             gstrCurCrossSta.astrLed[i].uiBrightness = LED_DARK;
 272              		.loc 1 107 0
 273 01d0 00005CE3 		cmp	ip, #0
 111:../srccode/test.c ****                         uiFlashEndTick = guiSystemTick + FLASH1TIME;
 274              		.loc 1 111 0
 275 01d4 30001BE5 		ldr	r0, [fp, #-48]
 107:../srccode/test.c ****                             gstrCurCrossSta.astrLed[i].uiBrightness = LED_DARK;
 276              		.loc 1 107 0
 277 01d8 01E0A003 		moveq	lr, #1
 278 01dc 0AE0A011 		movne	lr, sl
  94:../srccode/test.c ****                     if(LEDSTATE_FLASH != gstrCurCrossSta.astrLed[i].uiLedState)
 279              		.loc 1 94 0
 280 01e0 020052E3 		cmp	r2, #2
 107:../srccode/test.c ****                             gstrCurCrossSta.astrLed[i].uiBrightness = LED_DARK;
 281              		.loc 1 107 0
 282 01e4 10E089E5 		str	lr, [r9, #16]
 111:../srccode/test.c ****                         uiFlashEndTick = guiSystemTick + FLASH1TIME;
ARM GAS  C:\DOCUME~1\ADMINI~1\LOCALS~1\Temp\ccYtgux9.s 			page 9


 283              		.loc 1 111 0
 284 01e8 053080E2 		add	r3, r0, #5
 285              	.LVL18:
  94:../srccode/test.c ****                     if(LEDSTATE_FLASH != gstrCurCrossSta.astrLed[i].uiLedState)
 286              		.loc 1 94 0
 287 01ec D4FFFF1A 		bne	.L18
 288              	.L35:
 101:../srccode/test.c ****                         if(LED_DARK == gstrCurCrossSta.astrLed[i].uiBrightness)
 289              		.loc 1 101 0
 290 01f0 180099E5 		ldr	r0, [r9, #24]
 111:../srccode/test.c ****                         uiFlashEndTick = guiSystemTick + FLASH1TIME;
 291              		.loc 1 111 0
 292 01f4 30301BE5 		ldr	r3, [fp, #-48]
 293              	.LVL19:
 107:../srccode/test.c ****                             gstrCurCrossSta.astrLed[i].uiBrightness = LED_DARK;
 294              		.loc 1 107 0
 295 01f8 000050E3 		cmp	r0, #0
 296 01fc 0110A003 		moveq	r1, #1
 297 0200 0A10A011 		movne	r1, sl
 298 0204 181089E5 		str	r1, [r9, #24]
 111:../srccode/test.c ****                         uiFlashEndTick = guiSystemTick + FLASH1TIME;
 299              		.loc 1 111 0
 300 0208 053083E2 		add	r3, r3, #5
 301              	.LVL20:
 302 020c CCFFFFEA 		b	.L18
 303              	.L39:
 304              		.align	2
 305              	.L38:
 306 0210 00000000 		.word	gstrCurCrossSta
 307 0214 00000000 		.word	guiStaChange
 308 0218 00000000 		.word	guiCurSta
 309 021c 00000000 		.word	guiSystemTick
 310 0220 00000000 		.word	gpstrLedDisplayTcb
 311 0224 00000000 		.word	.LANCHOR0
 312              		.cfi_endproc
 313              	.LFE1:
 314              		.fnend
 315              		.size	TEST_CrossStateTask, .-TEST_CrossStateTask
 316              		.align	2
 317              		.global	TEST_LedSet
 318              		.type	TEST_LedSet, %function
 319              	TEST_LedSet:
 320              		.fnstart
 321              	.LFB3:
 122:../srccode/test.c **** 
 123:../srccode/test.c ****     }
 124:../srccode/test.c **** }
 125:../srccode/test.c **** 
 126:../srccode/test.c **** /***********************************************************************************
 127:../srccode/test.c **** 函数功能: 改变十字路口灯显示任务.
 128:../srccode/test.c **** 入口参数: none.
 129:../srccode/test.c **** 返 回 值: none.
 130:../srccode/test.c **** ***********************************************************************************/
 131:../srccode/test.c **** void TEST_LedDisplayTask(void)
 132:../srccode/test.c **** {
 133:../srccode/test.c ****     U32 i;
 134:../srccode/test.c **** 
ARM GAS  C:\DOCUME~1\ADMINI~1\LOCALS~1\Temp\ccYtgux9.s 			page 10


 135:../srccode/test.c ****     while(1)
 136:../srccode/test.c ****     {
 137:../srccode/test.c ****         /* 根据各个灯的状态控制灯的亮度 */
 138:../srccode/test.c ****         for(i = 0; i < LEDNUM; i++)
 139:../srccode/test.c ****         {
 140:../srccode/test.c ****             /* 设置灯的亮度 */
 141:../srccode/test.c ****             TEST_LedSet(i, gstrCurCrossSta.astrLed[i].uiBrightness);
 142:../srccode/test.c ****         }
 143:../srccode/test.c **** 
 144:../srccode/test.c ****         /* 切换到控制灯状态的任务 */
 145:../srccode/test.c ****         WLX_TaskSwitch(gpstrCrossStateTcb);
 146:../srccode/test.c ****     }
 147:../srccode/test.c **** }
 148:../srccode/test.c **** 
 149:../srccode/test.c **** /***********************************************************************************
 150:../srccode/test.c **** 函数功能: 设置GPIO方向.
 151:../srccode/test.c **** 入口参数: uiLedNo: Led灯编号.
 152:../srccode/test.c ****           uiLedSta: Led灯状态.
 153:../srccode/test.c **** 返 回 值: none.
 154:../srccode/test.c **** ***********************************************************************************/
 155:../srccode/test.c **** void TEST_LedSet(U32 uiLedNo, U32 uiLedSta)
 156:../srccode/test.c **** {
 322              		.loc 1 156 0
 323              		.cfi_startproc
 324              		@ Function supports interworking.
 325              		@ args = 0, pretend = 0, frame = 0
 326              		@ frame_needed = 1, uses_anonymous_args = 0
 327              	.LVL21:
 328              		.movsp ip
 329 0228 0DC0A0E1 		mov	ip, sp
 330              	.LCFI2:
 331              		.cfi_def_cfa_register 12
 157:../srccode/test.c ****     /* 将灯熄灭 */
 158:../srccode/test.c ****     if(LED_DARK == uiLedSta)
 332              		.loc 1 158 0
 333 022c 000051E3 		cmp	r1, #0
 156:../srccode/test.c **** {
 334              		.loc 1 156 0
 335 0230 00D82DE9 		stmfd	sp!, {fp, ip, lr, pc}
 336              		.pad #4
 337              		.save {fp, ip, lr}
 338              		.setfp fp, ip, #-4
 339 0234 04B04CE2 		sub	fp, ip, #4
 340              		.cfi_offset 14, -8
 341              		.cfi_offset 13, -12
 342              		.cfi_offset 11, -16
 343              	.LCFI3:
 344              		.cfi_def_cfa 11, 4
 345              		.loc 1 158 0
 346 0238 0D00001A 		bne	.L41
 159:../srccode/test.c ****     {
 160:../srccode/test.c ****         /* 根据灯编号设置不同的GPIO管脚 */
 161:../srccode/test.c ****         switch(uiLedNo)
 347              		.loc 1 161 0
 348 023c 040050E3 		cmp	r0, #4
 349 0240 00F19F97 		ldrls	pc, [pc, r0, asl #2]
 350 0244 070000EA 		b	.L40
ARM GAS  C:\DOCUME~1\ADMINI~1\LOCALS~1\Temp\ccYtgux9.s 			page 11


 351              	.L48:
 352 0248 94020000 		.word	.L43
 353 024c A4020000 		.word	.L44
 354 0250 B4020000 		.word	.L45
 355 0254 C4020000 		.word	.L46
 356 0258 D4020000 		.word	.L47
 357              	.L53:
 162:../srccode/test.c ****         {
 163:../srccode/test.c ****             case MASTER_RED:
 164:../srccode/test.c **** 
 165:../srccode/test.c ****                 DEV_ClrGpio(GPIOPORT3, GPIO_MR);
 166:../srccode/test.c **** 
 167:../srccode/test.c ****                 break;
 168:../srccode/test.c **** 
 169:../srccode/test.c ****             case MASTER_YELLOW:
 170:../srccode/test.c **** 
 171:../srccode/test.c ****                 DEV_ClrGpio(GPIOPORT3, GPIO_MY);
 172:../srccode/test.c **** 
 173:../srccode/test.c ****                 break;
 174:../srccode/test.c **** 
 175:../srccode/test.c ****             case MASTER_GREEN:
 176:../srccode/test.c **** 
 177:../srccode/test.c ****                 DEV_ClrGpio(GPIOPORT3, GPIO_MG);
 178:../srccode/test.c **** 
 179:../srccode/test.c ****                 break;
 180:../srccode/test.c **** 
 181:../srccode/test.c ****             case SLAVE_RED:
 182:../srccode/test.c **** 
 183:../srccode/test.c ****                 DEV_ClrGpio(GPIOPORT3, GPIO_SR);
 184:../srccode/test.c **** 
 185:../srccode/test.c ****                 break;
 186:../srccode/test.c **** 
 187:../srccode/test.c ****             case SLAVE_GREEN:
 188:../srccode/test.c **** 
 189:../srccode/test.c ****                 DEV_ClrGpio(GPIOPORT3, GPIO_SG);
 190:../srccode/test.c **** 
 191:../srccode/test.c ****                 break;
 192:../srccode/test.c ****         }
 193:../srccode/test.c ****     }
 194:../srccode/test.c ****     /* 将灯点亮 */
 195:../srccode/test.c ****     else //if(LED_LIGHT == uiLedSta)
 196:../srccode/test.c ****     {
 197:../srccode/test.c ****         /* 根据灯编号设置不同的GPIO管脚 */
 198:../srccode/test.c ****         switch(uiLedNo)
 199:../srccode/test.c ****         {
 200:../srccode/test.c ****             case MASTER_RED:
 201:../srccode/test.c **** 
 202:../srccode/test.c ****                 DEV_SetGpio(GPIOPORT3, GPIO_MR);
 203:../srccode/test.c **** 
 204:../srccode/test.c ****                 break;
 205:../srccode/test.c **** 
 206:../srccode/test.c ****             case MASTER_YELLOW:
 207:../srccode/test.c **** 
 208:../srccode/test.c ****                 DEV_SetGpio(GPIOPORT3, GPIO_MY);
 209:../srccode/test.c **** 
 210:../srccode/test.c ****                 break;
 211:../srccode/test.c **** 
ARM GAS  C:\DOCUME~1\ADMINI~1\LOCALS~1\Temp\ccYtgux9.s 			page 12


 212:../srccode/test.c ****             case MASTER_GREEN:
 213:../srccode/test.c **** 
 214:../srccode/test.c ****                 DEV_SetGpio(GPIOPORT3, GPIO_MG);
 215:../srccode/test.c **** 
 216:../srccode/test.c ****                 break;
 217:../srccode/test.c **** 
 218:../srccode/test.c ****             case SLAVE_RED:
 219:../srccode/test.c **** 
 220:../srccode/test.c ****                 DEV_SetGpio(GPIOPORT3, GPIO_SR);
 221:../srccode/test.c **** 
 222:../srccode/test.c ****                 break;
 223:../srccode/test.c **** 
 224:../srccode/test.c ****             case SLAVE_GREEN:
 225:../srccode/test.c **** 
 226:../srccode/test.c ****                 DEV_SetGpio(GPIOPORT3, GPIO_SG);
 358              		.loc 1 226 0
 359 025c 0300A0E3 		mov	r0, #3
 360              	.LVL22:
 361 0260 1010A0E3 		mov	r1, #16
 362              	.LVL23:
 363 0264 FEFFFFEB 		bl	DEV_SetGpio
 364              	.L40:
 227:../srccode/test.c **** 
 228:../srccode/test.c ****                 break;
 229:../srccode/test.c ****         }
 230:../srccode/test.c ****     }
 231:../srccode/test.c **** }
 365              		.loc 1 231 0
 366 0268 0CD04BE2 		sub	sp, fp, #12
 367 026c 00689DE8 		ldmfd	sp, {fp, sp, lr}
 368 0270 1EFF2FE1 		bx	lr
 369              	.LVL24:
 370              	.L41:
 198:../srccode/test.c ****         switch(uiLedNo)
 371              		.loc 1 198 0
 372 0274 040050E3 		cmp	r0, #4
 373 0278 00F19F97 		ldrls	pc, [pc, r0, asl #2]
 374 027c F9FFFFEA 		b	.L40
 375              	.L54:
 376 0280 E4020000 		.word	.L49
 377 0284 F4020000 		.word	.L50
 378 0288 04030000 		.word	.L51
 379 028c 14030000 		.word	.L52
 380 0290 5C020000 		.word	.L53
 381              	.L43:
 165:../srccode/test.c ****                 DEV_ClrGpio(GPIOPORT3, GPIO_MR);
 382              		.loc 1 165 0
 383 0294 0300A0E3 		mov	r0, #3
 384              	.LVL25:
 385 0298 0110A0E3 		mov	r1, #1
 386              	.LVL26:
 387 029c FEFFFFEB 		bl	DEV_ClrGpio
 167:../srccode/test.c ****                 break;
 388              		.loc 1 167 0
 389 02a0 F0FFFFEA 		b	.L40
 390              	.LVL27:
 391              	.L44:
ARM GAS  C:\DOCUME~1\ADMINI~1\LOCALS~1\Temp\ccYtgux9.s 			page 13


 171:../srccode/test.c ****                 DEV_ClrGpio(GPIOPORT3, GPIO_MY);
 392              		.loc 1 171 0
 393 02a4 0300A0E3 		mov	r0, #3
 394              	.LVL28:
 395 02a8 0210A0E3 		mov	r1, #2
 396              	.LVL29:
 397 02ac FEFFFFEB 		bl	DEV_ClrGpio
 173:../srccode/test.c ****                 break;
 398              		.loc 1 173 0
 399 02b0 ECFFFFEA 		b	.L40
 400              	.LVL30:
 401              	.L45:
 177:../srccode/test.c ****                 DEV_ClrGpio(GPIOPORT3, GPIO_MG);
 402              		.loc 1 177 0
 403 02b4 0300A0E3 		mov	r0, #3
 404              	.LVL31:
 405 02b8 0410A0E3 		mov	r1, #4
 406              	.LVL32:
 407 02bc FEFFFFEB 		bl	DEV_ClrGpio
 179:../srccode/test.c ****                 break;
 408              		.loc 1 179 0
 409 02c0 E8FFFFEA 		b	.L40
 410              	.LVL33:
 411              	.L46:
 183:../srccode/test.c ****                 DEV_ClrGpio(GPIOPORT3, GPIO_SR);
 412              		.loc 1 183 0
 413 02c4 0300A0E3 		mov	r0, #3
 414              	.LVL34:
 415 02c8 0810A0E3 		mov	r1, #8
 416              	.LVL35:
 417 02cc FEFFFFEB 		bl	DEV_ClrGpio
 185:../srccode/test.c ****                 break;
 418              		.loc 1 185 0
 419 02d0 E4FFFFEA 		b	.L40
 420              	.LVL36:
 421              	.L47:
 189:../srccode/test.c ****                 DEV_ClrGpio(GPIOPORT3, GPIO_SG);
 422              		.loc 1 189 0
 423 02d4 0300A0E3 		mov	r0, #3
 424              	.LVL37:
 425 02d8 1010A0E3 		mov	r1, #16
 426              	.LVL38:
 427 02dc FEFFFFEB 		bl	DEV_ClrGpio
 191:../srccode/test.c ****                 break;
 428              		.loc 1 191 0
 429 02e0 E0FFFFEA 		b	.L40
 430              	.LVL39:
 431              	.L49:
 202:../srccode/test.c ****                 DEV_SetGpio(GPIOPORT3, GPIO_MR);
 432              		.loc 1 202 0
 433 02e4 0300A0E3 		mov	r0, #3
 434              	.LVL40:
 435 02e8 0110A0E3 		mov	r1, #1
 436              	.LVL41:
 437 02ec FEFFFFEB 		bl	DEV_SetGpio
 204:../srccode/test.c ****                 break;
 438              		.loc 1 204 0
ARM GAS  C:\DOCUME~1\ADMINI~1\LOCALS~1\Temp\ccYtgux9.s 			page 14


 439 02f0 DCFFFFEA 		b	.L40
 440              	.LVL42:
 441              	.L50:
 208:../srccode/test.c ****                 DEV_SetGpio(GPIOPORT3, GPIO_MY);
 442              		.loc 1 208 0
 443 02f4 0300A0E3 		mov	r0, #3
 444              	.LVL43:
 445 02f8 0210A0E3 		mov	r1, #2
 446              	.LVL44:
 447 02fc FEFFFFEB 		bl	DEV_SetGpio
 210:../srccode/test.c ****                 break;
 448              		.loc 1 210 0
 449 0300 D8FFFFEA 		b	.L40
 450              	.LVL45:
 451              	.L51:
 214:../srccode/test.c ****                 DEV_SetGpio(GPIOPORT3, GPIO_MG);
 452              		.loc 1 214 0
 453 0304 0300A0E3 		mov	r0, #3
 454              	.LVL46:
 455 0308 0410A0E3 		mov	r1, #4
 456              	.LVL47:
 457 030c FEFFFFEB 		bl	DEV_SetGpio
 216:../srccode/test.c ****                 break;
 458              		.loc 1 216 0
 459 0310 D4FFFFEA 		b	.L40
 460              	.LVL48:
 461              	.L52:
 220:../srccode/test.c ****                 DEV_SetGpio(GPIOPORT3, GPIO_SR);
 462              		.loc 1 220 0
 463 0314 0300A0E3 		mov	r0, #3
 464              	.LVL49:
 465 0318 0810A0E3 		mov	r1, #8
 466              	.LVL50:
 467 031c FEFFFFEB 		bl	DEV_SetGpio
 222:../srccode/test.c ****                 break;
 468              		.loc 1 222 0
 469 0320 D0FFFFEA 		b	.L40
 470              		.cfi_endproc
 471              	.LFE3:
 472              		.fnend
 473              		.size	TEST_LedSet, .-TEST_LedSet
 474              		.align	2
 475              		.global	TEST_LedDisplayTask
 476              		.type	TEST_LedDisplayTask, %function
 477              	TEST_LedDisplayTask:
 478              		.fnstart
 479              	.LFB2:
 132:../srccode/test.c **** {
 480              		.loc 1 132 0
 481              		.cfi_startproc
 482              		@ Function supports interworking.
 483              		@ args = 0, pretend = 0, frame = 0
 484              		@ frame_needed = 1, uses_anonymous_args = 0
 485              		.movsp ip
 486 0324 0DC0A0E1 		mov	ip, sp
 487              	.LCFI4:
 488              		.cfi_def_cfa_register 12
ARM GAS  C:\DOCUME~1\ADMINI~1\LOCALS~1\Temp\ccYtgux9.s 			page 15


 489 0328 78D82DE9 		stmfd	sp!, {r3, r4, r5, r6, fp, ip, lr, pc}
 490              		.pad #4
 491              		.save {r3, r4, r5, r6, fp, ip, lr}
 492              		.setfp fp, ip, #-4
 493 032c 04B04CE2 		sub	fp, ip, #4
 494              		.cfi_offset 14, -8
 495              		.cfi_offset 13, -12
 496              		.cfi_offset 11, -16
 497              		.cfi_offset 6, -20
 498              		.cfi_offset 5, -24
 499              		.cfi_offset 4, -28
 500              		.cfi_offset 3, -32
 501              	.LCFI5:
 502              		.cfi_def_cfa 11, 4
 138:../srccode/test.c ****         for(i = 0; i < LEDNUM; i++)
 503              		.loc 1 138 0
 504 0330 0040A0E3 		mov	r4, #0
 505 0334 30509FE5 		ldr	r5, .L60
 506 0338 30609FE5 		ldr	r6, .L60+4
 507 033c 040000EA 		b	.L59
 508              	.L57:
 141:../srccode/test.c ****             TEST_LedSet(i, gstrCurCrossSta.astrLed[i].uiBrightness);
 509              		.loc 1 141 0 discriminator 2
 510 0340 843185E0 		add	r3, r5, r4, asl #3
 511 0344 0400A0E1 		mov	r0, r4
 512 0348 081093E5 		ldr	r1, [r3, #8]
 513 034c FEFFFFEB 		bl	TEST_LedSet
 138:../srccode/test.c ****         for(i = 0; i < LEDNUM; i++)
 514              		.loc 1 138 0 discriminator 2
 515 0350 014084E2 		add	r4, r4, #1
 516              	.LVL51:
 517              	.L59:
 138:../srccode/test.c ****         for(i = 0; i < LEDNUM; i++)
 518              		.loc 1 138 0 is_stmt 0 discriminator 1
 519 0354 040054E3 		cmp	r4, #4
 520 0358 F8FFFF9A 		bls	.L57
 145:../srccode/test.c ****         WLX_TaskSwitch(gpstrCrossStateTcb);
 521              		.loc 1 145 0 is_stmt 1
 522 035c 000096E5 		ldr	r0, [r6, #0]
 523 0360 FEFFFFEB 		bl	WLX_TaskSwitch
 138:../srccode/test.c ****         for(i = 0; i < LEDNUM; i++)
 524              		.loc 1 138 0
 525 0364 0040A0E3 		mov	r4, #0
 526              	.LVL52:
 527 0368 F4FFFFEA 		b	.L57
 528              	.L61:
 529              		.align	2
 530              	.L60:
 531 036c 00000000 		.word	gstrCurCrossSta
 532 0370 00000000 		.word	gpstrCrossStateTcb
 533              		.cfi_endproc
 534              	.LFE2:
 535              		.fnend
 536              		.size	TEST_LedDisplayTask, .-TEST_LedDisplayTask
 537              		.global	gastrCrossSta
 538              		.comm	gaucCrossStateStack,400,4
 539              		.comm	gaucLedDisplayStack,400,4
ARM GAS  C:\DOCUME~1\ADMINI~1\LOCALS~1\Temp\ccYtgux9.s 			page 16


 540              		.comm	gpstrCrossStateTcb,4,4
 541              		.comm	gpstrLedDisplayTcb,4,4
 542              		.comm	guiCurSta,4,4
 543              		.comm	guiStaChange,4,4
 544              		.comm	gstrCurCrossSta,44,4
 545              		.data
 546              		.align	2
 547              	.LANCHOR0 = . + 0
 548              		.type	gastrCrossSta, %object
 549              		.size	gastrCrossSta, 176
 550              	gastrCrossSta:
 551 0000 2C010000 		.word	300
 552 0004 00000000 		.word	0
 553 0008 00000000 		.word	0
 554 000c 00000000 		.word	0
 555 0010 00000000 		.word	0
 556 0014 01000000 		.word	1
 557 0018 01000000 		.word	1
 558 001c 01000000 		.word	1
 559 0020 01000000 		.word	1
 560 0024 00000000 		.word	0
 561 0028 00000000 		.word	0
 562 002c 32000000 		.word	50
 563 0030 00000000 		.word	0
 564 0034 00000000 		.word	0
 565 0038 01000000 		.word	1
 566 003c 01000000 		.word	1
 567 0040 00000000 		.word	0
 568 0044 00000000 		.word	0
 569 0048 01000000 		.word	1
 570 004c 01000000 		.word	1
 571 0050 00000000 		.word	0
 572 0054 00000000 		.word	0
 573 0058 64000000 		.word	100
 574 005c 01000000 		.word	1
 575 0060 01000000 		.word	1
 576 0064 00000000 		.word	0
 577 0068 00000000 		.word	0
 578 006c 00000000 		.word	0
 579 0070 00000000 		.word	0
 580 0074 00000000 		.word	0
 581 0078 00000000 		.word	0
 582 007c 01000000 		.word	1
 583 0080 01000000 		.word	1
 584 0084 32000000 		.word	50
 585 0088 01000000 		.word	1
 586 008c 01000000 		.word	1
 587 0090 00000000 		.word	0
 588 0094 00000000 		.word	0
 589 0098 00000000 		.word	0
 590 009c 00000000 		.word	0
 591 00a0 00000000 		.word	0
 592 00a4 00000000 		.word	0
 593 00a8 02000000 		.word	2
 594 00ac 00000000 		.word	0
 595              		.text
 596              	.Letext0:
ARM GAS  C:\DOCUME~1\ADMINI~1\LOCALS~1\Temp\ccYtgux9.s 			page 17


 597              		.section	.debug_loc,"",%progbits
 598              	.Ldebug_loc0:
 599              	.LLST0:
 600 0000 30000000 		.4byte	.LFB1-.Ltext0
 601 0004 34000000 		.4byte	.LCFI0-.Ltext0
 602 0008 0200     		.2byte	0x2
 603 000a 7D       		.byte	0x7d
 604 000b 00       		.sleb128 0
 605 000c 34000000 		.4byte	.LCFI0-.Ltext0
 606 0010 40000000 		.4byte	.LCFI1-.Ltext0
 607 0014 0200     		.2byte	0x2
 608 0016 7C       		.byte	0x7c
 609 0017 00       		.sleb128 0
 610 0018 40000000 		.4byte	.LCFI1-.Ltext0
 611 001c 28020000 		.4byte	.LFE1-.Ltext0
 612 0020 0200     		.2byte	0x2
 613 0022 7B       		.byte	0x7b
 614 0023 04       		.sleb128 4
 615 0024 00000000 		.4byte	0x0
 616 0028 00000000 		.4byte	0x0
 617              	.LLST1:
 618 002c 30000000 		.4byte	.LVL0-.Ltext0
 619 0030 6C000000 		.4byte	.LVL1-.Ltext0
 620 0034 0200     		.2byte	0x2
 621 0036 30       		.byte	0x30
 622 0037 9F       		.byte	0x9f
 623 0038 6C000000 		.4byte	.LVL1-.Ltext0
 624 003c 70000000 		.4byte	.LVL2-.Ltext0
 625 0040 0100     		.2byte	0x1
 626 0042 51       		.byte	0x51
 627 0043 70000000 		.4byte	.LVL2-.Ltext0
 628 0047 84000000 		.4byte	.LVL3-.Ltext0
 629 004b 0200     		.2byte	0x2
 630 004d 91       		.byte	0x91
 631 004e 48       		.sleb128 -56
 632 004f 84000000 		.4byte	.LVL3-.Ltext0
 633 0053 E4000000 		.4byte	.LVL4-.Ltext0
 634 0057 0200     		.2byte	0x2
 635 0059 91       		.byte	0x91
 636 005a 48       		.sleb128 -56
 637 005b E4000000 		.4byte	.LVL4-.Ltext0
 638 005f E8000000 		.4byte	.LVL5-.Ltext0
 639 0063 0100     		.2byte	0x1
 640 0065 50       		.byte	0x50
 641 0066 E8000000 		.4byte	.LVL5-.Ltext0
 642 006a 28020000 		.4byte	.LFE1-.Ltext0
 643 006e 0200     		.2byte	0x2
 644 0070 91       		.byte	0x91
 645 0071 48       		.sleb128 -56
 646 0072 00000000 		.4byte	0x0
 647 0076 00000000 		.4byte	0x0
 648              	.LLST2:
 649 007a 30000000 		.4byte	.LVL0-.Ltext0
 650 007e 6C000000 		.4byte	.LVL1-.Ltext0
 651 0082 0200     		.2byte	0x2
 652 0084 30       		.byte	0x30
 653 0085 9F       		.byte	0x9f
ARM GAS  C:\DOCUME~1\ADMINI~1\LOCALS~1\Temp\ccYtgux9.s 			page 18


 654 0086 6C000000 		.4byte	.LVL1-.Ltext0
 655 008a 84000000 		.4byte	.LVL3-.Ltext0
 656 008e 0200     		.2byte	0x2
 657 0090 91       		.byte	0x91
 658 0091 4C       		.sleb128 -52
 659 0092 84000000 		.4byte	.LVL3-.Ltext0
 660 0096 E8000000 		.4byte	.LVL5-.Ltext0
 661 009a 0200     		.2byte	0x2
 662 009c 91       		.byte	0x91
 663 009d 4C       		.sleb128 -52
 664 009e E8000000 		.4byte	.LVL5-.Ltext0
 665 00a2 2C010000 		.4byte	.LVL6-.Ltext0
 666 00a6 0200     		.2byte	0x2
 667 00a8 91       		.byte	0x91
 668 00a9 4C       		.sleb128 -52
 669 00aa 2C010000 		.4byte	.LVL6-.Ltext0
 670 00ae 78010000 		.4byte	.LVL12-.Ltext0
 671 00b2 0100     		.2byte	0x1
 672 00b4 53       		.byte	0x53
 673 00b5 78010000 		.4byte	.LVL12-.Ltext0
 674 00b9 88010000 		.4byte	.LVL14-.Ltext0
 675 00bd 0100     		.2byte	0x1
 676 00bf 53       		.byte	0x53
 677 00c0 A0010000 		.4byte	.LVL15-.Ltext0
 678 00c4 A4010000 		.4byte	.LVL16-.Ltext0
 679 00c8 0100     		.2byte	0x1
 680 00ca 53       		.byte	0x53
 681 00cb A4010000 		.4byte	.LVL16-.Ltext0
 682 00cf BC010000 		.4byte	.LVL17-.Ltext0
 683 00d3 0200     		.2byte	0x2
 684 00d5 91       		.byte	0x91
 685 00d6 4C       		.sleb128 -52
 686 00d7 BC010000 		.4byte	.LVL17-.Ltext0
 687 00db EC010000 		.4byte	.LVL18-.Ltext0
 688 00df 0100     		.2byte	0x1
 689 00e1 53       		.byte	0x53
 690 00e2 EC010000 		.4byte	.LVL18-.Ltext0
 691 00e6 F8010000 		.4byte	.LVL19-.Ltext0
 692 00ea 0100     		.2byte	0x1
 693 00ec 53       		.byte	0x53
 694 00ed 0C020000 		.4byte	.LVL20-.Ltext0
 695 00f1 28020000 		.4byte	.LFE1-.Ltext0
 696 00f5 0100     		.2byte	0x1
 697 00f7 53       		.byte	0x53
 698 00f8 00000000 		.4byte	0x0
 699 00fc 00000000 		.4byte	0x0
 700              	.LLST3:
 701 0100 2C010000 		.4byte	.LVL6-.Ltext0
 702 0104 38010000 		.4byte	.LVL7-.Ltext0
 703 0108 0200     		.2byte	0x2
 704 010a 31       		.byte	0x31
 705 010b 9F       		.byte	0x9f
 706 010c 38010000 		.4byte	.LVL7-.Ltext0
 707 0110 44010000 		.4byte	.LVL8-.Ltext0
 708 0114 0200     		.2byte	0x2
 709 0116 32       		.byte	0x32
 710 0117 9F       		.byte	0x9f
ARM GAS  C:\DOCUME~1\ADMINI~1\LOCALS~1\Temp\ccYtgux9.s 			page 19


 711 0118 44010000 		.4byte	.LVL8-.Ltext0
 712 011c 50010000 		.4byte	.LVL9-.Ltext0
 713 0120 0200     		.2byte	0x2
 714 0122 33       		.byte	0x33
 715 0123 9F       		.byte	0x9f
 716 0124 50010000 		.4byte	.LVL9-.Ltext0
 717 0128 58010000 		.4byte	.LVL10-.Ltext0
 718 012c 0200     		.2byte	0x2
 719 012e 34       		.byte	0x34
 720 012f 9F       		.byte	0x9f
 721 0130 58010000 		.4byte	.LVL10-.Ltext0
 722 0134 60010000 		.4byte	.LVL11-.Ltext0
 723 0138 0200     		.2byte	0x2
 724 013a 35       		.byte	0x35
 725 013b 9F       		.byte	0x9f
 726 013c 60010000 		.4byte	.LVL11-.Ltext0
 727 0140 78010000 		.4byte	.LVL12-.Ltext0
 728 0144 0200     		.2byte	0x2
 729 0146 34       		.byte	0x34
 730 0147 9F       		.byte	0x9f
 731 0148 78010000 		.4byte	.LVL12-.Ltext0
 732 014c 84010000 		.4byte	.LVL13-.Ltext0
 733 0150 0200     		.2byte	0x2
 734 0152 35       		.byte	0x35
 735 0153 9F       		.byte	0x9f
 736 0154 84010000 		.4byte	.LVL13-.Ltext0
 737 0158 A4010000 		.4byte	.LVL16-.Ltext0
 738 015c 0200     		.2byte	0x2
 739 015e 33       		.byte	0x33
 740 015f 9F       		.byte	0x9f
 741 0160 BC010000 		.4byte	.LVL17-.Ltext0
 742 0164 EC010000 		.4byte	.LVL18-.Ltext0
 743 0168 0200     		.2byte	0x2
 744 016a 31       		.byte	0x31
 745 016b 9F       		.byte	0x9f
 746 016c EC010000 		.4byte	.LVL18-.Ltext0
 747 0170 28020000 		.4byte	.LFE1-.Ltext0
 748 0174 0200     		.2byte	0x2
 749 0176 32       		.byte	0x32
 750 0177 9F       		.byte	0x9f
 751 0178 00000000 		.4byte	0x0
 752 017c 00000000 		.4byte	0x0
 753              	.LLST4:
 754 0180 28020000 		.4byte	.LFB3-.Ltext0
 755 0184 2C020000 		.4byte	.LCFI2-.Ltext0
 756 0188 0200     		.2byte	0x2
 757 018a 7D       		.byte	0x7d
 758 018b 00       		.sleb128 0
 759 018c 2C020000 		.4byte	.LCFI2-.Ltext0
 760 0190 38020000 		.4byte	.LCFI3-.Ltext0
 761 0194 0200     		.2byte	0x2
 762 0196 7C       		.byte	0x7c
 763 0197 00       		.sleb128 0
 764 0198 38020000 		.4byte	.LCFI3-.Ltext0
 765 019c 24030000 		.4byte	.LFE3-.Ltext0
 766 01a0 0200     		.2byte	0x2
 767 01a2 7B       		.byte	0x7b
ARM GAS  C:\DOCUME~1\ADMINI~1\LOCALS~1\Temp\ccYtgux9.s 			page 20


 768 01a3 04       		.sleb128 4
 769 01a4 00000000 		.4byte	0x0
 770 01a8 00000000 		.4byte	0x0
 771              	.LLST5:
 772 01ac 28020000 		.4byte	.LVL21-.Ltext0
 773 01b0 60020000 		.4byte	.LVL22-.Ltext0
 774 01b4 0100     		.2byte	0x1
 775 01b6 50       		.byte	0x50
 776 01b7 74020000 		.4byte	.LVL24-.Ltext0
 777 01bb 98020000 		.4byte	.LVL25-.Ltext0
 778 01bf 0100     		.2byte	0x1
 779 01c1 50       		.byte	0x50
 780 01c2 A4020000 		.4byte	.LVL27-.Ltext0
 781 01c6 A8020000 		.4byte	.LVL28-.Ltext0
 782 01ca 0100     		.2byte	0x1
 783 01cc 50       		.byte	0x50
 784 01cd B4020000 		.4byte	.LVL30-.Ltext0
 785 01d1 B8020000 		.4byte	.LVL31-.Ltext0
 786 01d5 0100     		.2byte	0x1
 787 01d7 50       		.byte	0x50
 788 01d8 C4020000 		.4byte	.LVL33-.Ltext0
 789 01dc C8020000 		.4byte	.LVL34-.Ltext0
 790 01e0 0100     		.2byte	0x1
 791 01e2 50       		.byte	0x50
 792 01e3 D4020000 		.4byte	.LVL36-.Ltext0
 793 01e7 D8020000 		.4byte	.LVL37-.Ltext0
 794 01eb 0100     		.2byte	0x1
 795 01ed 50       		.byte	0x50
 796 01ee E4020000 		.4byte	.LVL39-.Ltext0
 797 01f2 E8020000 		.4byte	.LVL40-.Ltext0
 798 01f6 0100     		.2byte	0x1
 799 01f8 50       		.byte	0x50
 800 01f9 F4020000 		.4byte	.LVL42-.Ltext0
 801 01fd F8020000 		.4byte	.LVL43-.Ltext0
 802 0201 0100     		.2byte	0x1
 803 0203 50       		.byte	0x50
 804 0204 04030000 		.4byte	.LVL45-.Ltext0
 805 0208 08030000 		.4byte	.LVL46-.Ltext0
 806 020c 0100     		.2byte	0x1
 807 020e 50       		.byte	0x50
 808 020f 14030000 		.4byte	.LVL48-.Ltext0
 809 0213 18030000 		.4byte	.LVL49-.Ltext0
 810 0217 0100     		.2byte	0x1
 811 0219 50       		.byte	0x50
 812 021a 00000000 		.4byte	0x0
 813 021e 00000000 		.4byte	0x0
 814              	.LLST6:
 815 0222 28020000 		.4byte	.LVL21-.Ltext0
 816 0226 64020000 		.4byte	.LVL23-.Ltext0
 817 022a 0100     		.2byte	0x1
 818 022c 51       		.byte	0x51
 819 022d 74020000 		.4byte	.LVL24-.Ltext0
 820 0231 9C020000 		.4byte	.LVL26-.Ltext0
 821 0235 0100     		.2byte	0x1
 822 0237 51       		.byte	0x51
 823 0238 A4020000 		.4byte	.LVL27-.Ltext0
 824 023c AC020000 		.4byte	.LVL29-.Ltext0
ARM GAS  C:\DOCUME~1\ADMINI~1\LOCALS~1\Temp\ccYtgux9.s 			page 21


 825 0240 0100     		.2byte	0x1
 826 0242 51       		.byte	0x51
 827 0243 B4020000 		.4byte	.LVL30-.Ltext0
 828 0247 BC020000 		.4byte	.LVL32-.Ltext0
 829 024b 0100     		.2byte	0x1
 830 024d 51       		.byte	0x51
 831 024e C4020000 		.4byte	.LVL33-.Ltext0
 832 0252 CC020000 		.4byte	.LVL35-.Ltext0
 833 0256 0100     		.2byte	0x1
 834 0258 51       		.byte	0x51
 835 0259 D4020000 		.4byte	.LVL36-.Ltext0
 836 025d DC020000 		.4byte	.LVL38-.Ltext0
 837 0261 0100     		.2byte	0x1
 838 0263 51       		.byte	0x51
 839 0264 E4020000 		.4byte	.LVL39-.Ltext0
 840 0268 EC020000 		.4byte	.LVL41-.Ltext0
 841 026c 0100     		.2byte	0x1
 842 026e 51       		.byte	0x51
 843 026f F4020000 		.4byte	.LVL42-.Ltext0
 844 0273 FC020000 		.4byte	.LVL44-.Ltext0
 845 0277 0100     		.2byte	0x1
 846 0279 51       		.byte	0x51
 847 027a 04030000 		.4byte	.LVL45-.Ltext0
 848 027e 0C030000 		.4byte	.LVL47-.Ltext0
 849 0282 0100     		.2byte	0x1
 850 0284 51       		.byte	0x51
 851 0285 14030000 		.4byte	.LVL48-.Ltext0
 852 0289 1C030000 		.4byte	.LVL50-.Ltext0
 853 028d 0100     		.2byte	0x1
 854 028f 51       		.byte	0x51
 855 0290 00000000 		.4byte	0x0
 856 0294 00000000 		.4byte	0x0
 857              	.LLST7:
 858 0298 24030000 		.4byte	.LFB2-.Ltext0
 859 029c 28030000 		.4byte	.LCFI4-.Ltext0
 860 02a0 0200     		.2byte	0x2
 861 02a2 7D       		.byte	0x7d
 862 02a3 00       		.sleb128 0
 863 02a4 28030000 		.4byte	.LCFI4-.Ltext0
 864 02a8 30030000 		.4byte	.LCFI5-.Ltext0
 865 02ac 0200     		.2byte	0x2
 866 02ae 7C       		.byte	0x7c
 867 02af 00       		.sleb128 0
 868 02b0 30030000 		.4byte	.LCFI5-.Ltext0
 869 02b4 74030000 		.4byte	.LFE2-.Ltext0
 870 02b8 0200     		.2byte	0x2
 871 02ba 7B       		.byte	0x7b
 872 02bb 04       		.sleb128 4
 873 02bc 00000000 		.4byte	0x0
 874 02c0 00000000 		.4byte	0x0
 875              	.LLST8:
 876 02c4 54030000 		.4byte	.LVL51-.Ltext0
 877 02c8 68030000 		.4byte	.LVL52-.Ltext0
 878 02cc 0100     		.2byte	0x1
 879 02ce 54       		.byte	0x54
 880 02cf 00000000 		.4byte	0x0
 881 02d3 00000000 		.4byte	0x0
ARM GAS  C:\DOCUME~1\ADMINI~1\LOCALS~1\Temp\ccYtgux9.s 			page 22


 882              		.file 2 "../wanlix/wanlix.h"
 883              		.file 3 "../srccode/test.h"
 884              		.file 4 "../srccode/global.h"
 885              		.section	.debug_info
 886 0000 08030000 		.4byte	0x308
 887 0004 0200     		.2byte	0x2
 888 0006 00000000 		.4byte	.Ldebug_abbrev0
 889 000a 04       		.byte	0x4
 890 000b 01       		.uleb128 0x1
 891 000c 27000000 		.4byte	.LASF38
 892 0010 01       		.byte	0x1
 893 0011 1B010000 		.4byte	.LASF39
 894 0015 D0010000 		.4byte	.LASF40
 895 0019 00000000 		.4byte	.Ltext0
 896 001d 74030000 		.4byte	.Letext0
 897 0021 00000000 		.4byte	.Ldebug_line0
 898 0025 02       		.uleb128 0x2
 899 0026 04       		.byte	0x4
 900 0027 07       		.byte	0x7
 901 0028 AE000000 		.4byte	.LASF0
 902 002c 02       		.uleb128 0x2
 903 002d 04       		.byte	0x4
 904 002e 07       		.byte	0x7
 905 002f 44010000 		.4byte	.LASF1
 906 0033 03       		.uleb128 0x3
 907 0034 553800   		.ascii	"U8\000"
 908 0037 02       		.byte	0x2
 909 0038 07       		.byte	0x7
 910 0039 3D000000 		.4byte	0x3d
 911 003d 02       		.uleb128 0x2
 912 003e 01       		.byte	0x1
 913 003f 08       		.byte	0x8
 914 0040 81000000 		.4byte	.LASF2
 915 0044 02       		.uleb128 0x2
 916 0045 02       		.byte	0x2
 917 0046 07       		.byte	0x7
 918 0047 CC000000 		.4byte	.LASF3
 919 004b 03       		.uleb128 0x3
 920 004c 55333200 		.ascii	"U32\000"
 921 0050 02       		.byte	0x2
 922 0051 09       		.byte	0x9
 923 0052 2C000000 		.4byte	0x2c
 924 0056 02       		.uleb128 0x2
 925 0057 01       		.byte	0x1
 926 0058 08       		.byte	0x8
 927 0059 64010000 		.4byte	.LASF4
 928 005d 02       		.uleb128 0x2
 929 005e 02       		.byte	0x2
 930 005f 05       		.byte	0x5
 931 0060 F5000000 		.4byte	.LASF5
 932 0064 04       		.uleb128 0x4
 933 0065 04       		.byte	0x4
 934 0066 05       		.byte	0x5
 935 0067 696E7400 		.ascii	"int\000"
 936 006b 05       		.uleb128 0x5
 937 006c 61000000 		.4byte	.LASF12
 938 0070 04       		.byte	0x4
ARM GAS  C:\DOCUME~1\ADMINI~1\LOCALS~1\Temp\ccYtgux9.s 			page 23


 939 0071 02       		.byte	0x2
 940 0072 22       		.byte	0x22
 941 0073 86000000 		.4byte	0x86
 942 0077 06       		.uleb128 0x6
 943 0078 55000000 		.4byte	.LASF14
 944 007c 02       		.byte	0x2
 945 007d 24       		.byte	0x24
 946 007e 4B000000 		.4byte	0x4b
 947 0082 02       		.byte	0x2
 948 0083 23       		.byte	0x23
 949 0084 00       		.uleb128 0x0
 950 0085 00       		.byte	0x0
 951 0086 07       		.uleb128 0x7
 952 0087 7B000000 		.4byte	.LASF6
 953 008b 02       		.byte	0x2
 954 008c 25       		.byte	0x25
 955 008d 6B000000 		.4byte	0x6b
 956 0091 08       		.uleb128 0x8
 957 0092 88010000 		.4byte	.LASF41
 958 0096 04       		.byte	0x4
 959 0097 04       		.byte	0x4
 960 0098 22       		.byte	0x22
 961 0099 BC000000 		.4byte	0xbc
 962 009d 09       		.uleb128 0x9
 963 009e 03020000 		.4byte	.LASF7
 964 00a2 00       		.sleb128 0
 965 00a3 09       		.uleb128 0x9
 966 00a4 0F020000 		.4byte	.LASF8
 967 00a8 01       		.sleb128 1
 968 00a9 09       		.uleb128 0x9
 969 00aa 1B020000 		.4byte	.LASF9
 970 00ae 02       		.sleb128 2
 971 00af 09       		.uleb128 0x9
 972 00b0 27020000 		.4byte	.LASF10
 973 00b4 03       		.sleb128 3
 974 00b5 09       		.uleb128 0x9
 975 00b6 FF000000 		.4byte	.LASF11
 976 00ba 04       		.sleb128 4
 977 00bb 00       		.byte	0x0
 978 00bc 05       		.uleb128 0x5
 979 00bd 33020000 		.4byte	.LASF13
 980 00c1 08       		.byte	0x8
 981 00c2 03       		.byte	0x3
 982 00c3 2E       		.byte	0x2e
 983 00c4 E5000000 		.4byte	0xe5
 984 00c8 06       		.uleb128 0x6
 985 00c9 14000000 		.4byte	.LASF15
 986 00cd 03       		.byte	0x3
 987 00ce 30       		.byte	0x30
 988 00cf 4B000000 		.4byte	0x4b
 989 00d3 02       		.byte	0x2
 990 00d4 23       		.byte	0x23
 991 00d5 00       		.uleb128 0x0
 992 00d6 06       		.uleb128 0x6
 993 00d7 3C020000 		.4byte	.LASF16
 994 00db 03       		.byte	0x3
 995 00dc 31       		.byte	0x31
ARM GAS  C:\DOCUME~1\ADMINI~1\LOCALS~1\Temp\ccYtgux9.s 			page 24


 996 00dd 4B000000 		.4byte	0x4b
 997 00e1 02       		.byte	0x2
 998 00e2 23       		.byte	0x23
 999 00e3 04       		.uleb128 0x4
 1000 00e4 00       		.byte	0x0
 1001 00e5 07       		.uleb128 0x7
 1002 00e6 8F000000 		.4byte	.LASF17
 1003 00ea 03       		.byte	0x3
 1004 00eb 32       		.byte	0x32
 1005 00ec BC000000 		.4byte	0xbc
 1006 00f0 05       		.uleb128 0x5
 1007 00f1 DF000000 		.4byte	.LASF18
 1008 00f5 2C       		.byte	0x2c
 1009 00f6 03       		.byte	0x3
 1010 00f7 35       		.byte	0x35
 1011 00f8 19010000 		.4byte	0x119
 1012 00fc 06       		.uleb128 0x6
 1013 00fd 93010000 		.4byte	.LASF19
 1014 0101 03       		.byte	0x3
 1015 0102 37       		.byte	0x37
 1016 0103 4B000000 		.4byte	0x4b
 1017 0107 02       		.byte	0x2
 1018 0108 23       		.byte	0x23
 1019 0109 00       		.uleb128 0x0
 1020 010a 06       		.uleb128 0x6
 1021 010b 1F000000 		.4byte	.LASF20
 1022 010f 03       		.byte	0x3
 1023 0110 38       		.byte	0x38
 1024 0111 19010000 		.4byte	0x119
 1025 0115 02       		.byte	0x2
 1026 0116 23       		.byte	0x23
 1027 0117 04       		.uleb128 0x4
 1028 0118 00       		.byte	0x0
 1029 0119 0A       		.uleb128 0xa
 1030 011a E5000000 		.4byte	0xe5
 1031 011e 29010000 		.4byte	0x129
 1032 0122 0B       		.uleb128 0xb
 1033 0123 2C000000 		.4byte	0x2c
 1034 0127 04       		.byte	0x4
 1035 0128 00       		.byte	0x0
 1036 0129 07       		.uleb128 0x7
 1037 012a 9D010000 		.4byte	.LASF21
 1038 012e 03       		.byte	0x3
 1039 012f 39       		.byte	0x39
 1040 0130 F0000000 		.4byte	0xf0
 1041 0134 0C       		.uleb128 0xc
 1042 0135 01       		.byte	0x1
 1043 0136 BE010000 		.4byte	.LASF42
 1044 013a 01       		.byte	0x1
 1045 013b 1B       		.byte	0x1b
 1046 013c 01       		.byte	0x1
 1047 013d 00000000 		.4byte	.LFB0
 1048 0141 30000000 		.4byte	.LFE0
 1049 0145 02       		.byte	0x2
 1050 0146 7D       		.byte	0x7d
 1051 0147 00       		.sleb128 0
 1052 0148 0D       		.uleb128 0xd
ARM GAS  C:\DOCUME~1\ADMINI~1\LOCALS~1\Temp\ccYtgux9.s 			page 25


 1053 0149 01       		.byte	0x1
 1054 014a 00000000 		.4byte	.LASF24
 1055 014e 01       		.byte	0x1
 1056 014f 27       		.byte	0x27
 1057 0150 01       		.byte	0x1
 1058 0151 30000000 		.4byte	.LFB1
 1059 0155 28020000 		.4byte	.LFE1
 1060 0159 00000000 		.4byte	.LLST0
 1061 015d 8D010000 		.4byte	0x18d
 1062 0161 0E       		.uleb128 0xe
 1063 0162 A1000000 		.4byte	.LASF22
 1064 0166 01       		.byte	0x1
 1065 0167 29       		.byte	0x29
 1066 0168 4B000000 		.4byte	0x4b
 1067 016c 2C000000 		.4byte	.LLST1
 1068 0170 0E       		.uleb128 0xe
 1069 0171 69010000 		.4byte	.LASF23
 1070 0175 01       		.byte	0x1
 1071 0176 2A       		.byte	0x2a
 1072 0177 4B000000 		.4byte	0x4b
 1073 017b 7A000000 		.4byte	.LLST2
 1074 017f 0F       		.uleb128 0xf
 1075 0180 6900     		.ascii	"i\000"
 1076 0182 01       		.byte	0x1
 1077 0183 2B       		.byte	0x2b
 1078 0184 4B000000 		.4byte	0x4b
 1079 0188 00010000 		.4byte	.LLST3
 1080 018c 00       		.byte	0x0
 1081 018d 0D       		.uleb128 0xd
 1082 018e 01       		.byte	0x1
 1083 018f C0000000 		.4byte	.LASF25
 1084 0193 01       		.byte	0x1
 1085 0194 9B       		.byte	0x9b
 1086 0195 01       		.byte	0x1
 1087 0196 28020000 		.4byte	.LFB3
 1088 019a 24030000 		.4byte	.LFE3
 1089 019e 80010000 		.4byte	.LLST4
 1090 01a2 C5010000 		.4byte	0x1c5
 1091 01a6 10       		.uleb128 0x10
 1092 01a7 ED000000 		.4byte	.LASF26
 1093 01ab 01       		.byte	0x1
 1094 01ac 9B       		.byte	0x9b
 1095 01ad 4B000000 		.4byte	0x4b
 1096 01b1 AC010000 		.4byte	.LLST5
 1097 01b5 10       		.uleb128 0x10
 1098 01b6 98000000 		.4byte	.LASF27
 1099 01ba 01       		.byte	0x1
 1100 01bb 9B       		.byte	0x9b
 1101 01bc 4B000000 		.4byte	0x4b
 1102 01c0 22020000 		.4byte	.LLST6
 1103 01c4 00       		.byte	0x0
 1104 01c5 0D       		.uleb128 0xd
 1105 01c6 01       		.byte	0x1
 1106 01c7 41000000 		.4byte	.LASF28
 1107 01cb 01       		.byte	0x1
 1108 01cc 83       		.byte	0x83
 1109 01cd 01       		.byte	0x1
ARM GAS  C:\DOCUME~1\ADMINI~1\LOCALS~1\Temp\ccYtgux9.s 			page 26


 1110 01ce 24030000 		.4byte	.LFB2
 1111 01d2 74030000 		.4byte	.LFE2
 1112 01d6 98020000 		.4byte	.LLST7
 1113 01da EC010000 		.4byte	0x1ec
 1114 01de 0F       		.uleb128 0xf
 1115 01df 6900     		.ascii	"i\000"
 1116 01e1 01       		.byte	0x1
 1117 01e2 85       		.byte	0x85
 1118 01e3 4B000000 		.4byte	0x4b
 1119 01e7 C4020000 		.4byte	.LLST8
 1120 01eb 00       		.byte	0x0
 1121 01ec 11       		.uleb128 0x11
 1122 01ed 51010000 		.4byte	.LASF29
 1123 01f1 04       		.byte	0x4
 1124 01f2 30       		.byte	0x30
 1125 01f3 F9010000 		.4byte	0x1f9
 1126 01f7 01       		.byte	0x1
 1127 01f8 01       		.byte	0x1
 1128 01f9 12       		.uleb128 0x12
 1129 01fa 04       		.byte	0x4
 1130 01fb 86000000 		.4byte	0x86
 1131 01ff 11       		.uleb128 0x11
 1132 0200 AB010000 		.4byte	.LASF30
 1133 0204 04       		.byte	0x4
 1134 0205 31       		.byte	0x31
 1135 0206 F9010000 		.4byte	0x1f9
 1136 020a 01       		.byte	0x1
 1137 020b 01       		.byte	0x1
 1138 020c 11       		.uleb128 0x11
 1139 020d 33000000 		.4byte	.LASF31
 1140 0211 04       		.byte	0x4
 1141 0212 33       		.byte	0x33
 1142 0213 4B000000 		.4byte	0x4b
 1143 0217 01       		.byte	0x1
 1144 0218 01       		.byte	0x1
 1145 0219 11       		.uleb128 0x11
 1146 021a 2D010000 		.4byte	.LASF32
 1147 021e 04       		.byte	0x4
 1148 021f 34       		.byte	0x34
 1149 0220 4B000000 		.4byte	0x4b
 1150 0224 01       		.byte	0x1
 1151 0225 01       		.byte	0x1
 1152 0226 11       		.uleb128 0x11
 1153 0227 37010000 		.4byte	.LASF33
 1154 022b 04       		.byte	0x4
 1155 022c 35       		.byte	0x35
 1156 022d 4B000000 		.4byte	0x4b
 1157 0231 01       		.byte	0x1
 1158 0232 01       		.byte	0x1
 1159 0233 0A       		.uleb128 0xa
 1160 0234 29010000 		.4byte	0x129
 1161 0238 43020000 		.4byte	0x243
 1162 023c 0B       		.uleb128 0xb
 1163 023d 2C000000 		.4byte	0x2c
 1164 0241 03       		.byte	0x3
 1165 0242 00       		.byte	0x0
 1166 0243 11       		.uleb128 0x11
ARM GAS  C:\DOCUME~1\ADMINI~1\LOCALS~1\Temp\ccYtgux9.s 			page 27


 1167 0244 0D010000 		.4byte	.LASF34
 1168 0248 01       		.byte	0x1
 1169 0249 0C       		.byte	0xc
 1170 024a 33020000 		.4byte	0x233
 1171 024e 01       		.byte	0x1
 1172 024f 01       		.byte	0x1
 1173 0250 11       		.uleb128 0x11
 1174 0251 78010000 		.4byte	.LASF35
 1175 0255 01       		.byte	0x1
 1176 0256 0F       		.byte	0xf
 1177 0257 29010000 		.4byte	0x129
 1178 025b 01       		.byte	0x1
 1179 025c 01       		.byte	0x1
 1180 025d 0A       		.uleb128 0xa
 1181 025e 33000000 		.4byte	0x33
 1182 0262 6E020000 		.4byte	0x26e
 1183 0266 13       		.uleb128 0x13
 1184 0267 2C000000 		.4byte	0x2c
 1185 026b 8F01     		.2byte	0x18f
 1186 026d 00       		.byte	0x0
 1187 026e 14       		.uleb128 0x14
 1188 026f EF010000 		.4byte	.LASF36
 1189 0273 01       		.byte	0x1
 1190 0274 04       		.byte	0x4
 1191 0275 5D020000 		.4byte	0x25d
 1192 0279 01       		.byte	0x1
 1193 027a 05       		.byte	0x5
 1194 027b 03       		.byte	0x3
 1195 027c 00000000 		.4byte	gaucCrossStateStack
 1196 0280 14       		.uleb128 0x14
 1197 0281 67000000 		.4byte	.LASF37
 1198 0285 01       		.byte	0x1
 1199 0286 05       		.byte	0x5
 1200 0287 5D020000 		.4byte	0x25d
 1201 028b 01       		.byte	0x1
 1202 028c 05       		.byte	0x5
 1203 028d 03       		.byte	0x3
 1204 028e 00000000 		.4byte	gaucLedDisplayStack
 1205 0292 14       		.uleb128 0x14
 1206 0293 51010000 		.4byte	.LASF29
 1207 0297 01       		.byte	0x1
 1208 0298 07       		.byte	0x7
 1209 0299 F9010000 		.4byte	0x1f9
 1210 029d 01       		.byte	0x1
 1211 029e 05       		.byte	0x5
 1212 029f 03       		.byte	0x3
 1213 02a0 00000000 		.4byte	gpstrCrossStateTcb
 1214 02a4 14       		.uleb128 0x14
 1215 02a5 AB010000 		.4byte	.LASF30
 1216 02a9 01       		.byte	0x1
 1217 02aa 08       		.byte	0x8
 1218 02ab F9010000 		.4byte	0x1f9
 1219 02af 01       		.byte	0x1
 1220 02b0 05       		.byte	0x5
 1221 02b1 03       		.byte	0x3
 1222 02b2 00000000 		.4byte	gpstrLedDisplayTcb
 1223 02b6 11       		.uleb128 0x11
ARM GAS  C:\DOCUME~1\ADMINI~1\LOCALS~1\Temp\ccYtgux9.s 			page 28


 1224 02b7 33000000 		.4byte	.LASF31
 1225 02bb 04       		.byte	0x4
 1226 02bc 33       		.byte	0x33
 1227 02bd 4B000000 		.4byte	0x4b
 1228 02c1 01       		.byte	0x1
 1229 02c2 01       		.byte	0x1
 1230 02c3 14       		.uleb128 0x14
 1231 02c4 2D010000 		.4byte	.LASF32
 1232 02c8 01       		.byte	0x1
 1233 02c9 12       		.byte	0x12
 1234 02ca 4B000000 		.4byte	0x4b
 1235 02ce 01       		.byte	0x1
 1236 02cf 05       		.byte	0x5
 1237 02d0 03       		.byte	0x3
 1238 02d1 00000000 		.4byte	guiCurSta
 1239 02d5 14       		.uleb128 0x14
 1240 02d6 37010000 		.4byte	.LASF33
 1241 02da 01       		.byte	0x1
 1242 02db 13       		.byte	0x13
 1243 02dc 4B000000 		.4byte	0x4b
 1244 02e0 01       		.byte	0x1
 1245 02e1 05       		.byte	0x5
 1246 02e2 03       		.byte	0x3
 1247 02e3 00000000 		.4byte	guiStaChange
 1248 02e7 14       		.uleb128 0x14
 1249 02e8 0D010000 		.4byte	.LASF34
 1250 02ec 01       		.byte	0x1
 1251 02ed 0C       		.byte	0xc
 1252 02ee 33020000 		.4byte	0x233
 1253 02f2 01       		.byte	0x1
 1254 02f3 05       		.byte	0x5
 1255 02f4 03       		.byte	0x3
 1256 02f5 00000000 		.4byte	gastrCrossSta
 1257 02f9 14       		.uleb128 0x14
 1258 02fa 78010000 		.4byte	.LASF35
 1259 02fe 01       		.byte	0x1
 1260 02ff 0F       		.byte	0xf
 1261 0300 29010000 		.4byte	0x129
 1262 0304 01       		.byte	0x1
 1263 0305 05       		.byte	0x5
 1264 0306 03       		.byte	0x3
 1265 0307 00000000 		.4byte	gstrCurCrossSta
 1266 030b 00       		.byte	0x0
 1267              		.section	.debug_abbrev
 1268 0000 01       		.uleb128 0x1
 1269 0001 11       		.uleb128 0x11
 1270 0002 01       		.byte	0x1
 1271 0003 25       		.uleb128 0x25
 1272 0004 0E       		.uleb128 0xe
 1273 0005 13       		.uleb128 0x13
 1274 0006 0B       		.uleb128 0xb
 1275 0007 03       		.uleb128 0x3
 1276 0008 0E       		.uleb128 0xe
 1277 0009 1B       		.uleb128 0x1b
 1278 000a 0E       		.uleb128 0xe
 1279 000b 11       		.uleb128 0x11
 1280 000c 01       		.uleb128 0x1
ARM GAS  C:\DOCUME~1\ADMINI~1\LOCALS~1\Temp\ccYtgux9.s 			page 29


 1281 000d 12       		.uleb128 0x12
 1282 000e 01       		.uleb128 0x1
 1283 000f 10       		.uleb128 0x10
 1284 0010 06       		.uleb128 0x6
 1285 0011 00       		.byte	0x0
 1286 0012 00       		.byte	0x0
 1287 0013 02       		.uleb128 0x2
 1288 0014 24       		.uleb128 0x24
 1289 0015 00       		.byte	0x0
 1290 0016 0B       		.uleb128 0xb
 1291 0017 0B       		.uleb128 0xb
 1292 0018 3E       		.uleb128 0x3e
 1293 0019 0B       		.uleb128 0xb
 1294 001a 03       		.uleb128 0x3
 1295 001b 0E       		.uleb128 0xe
 1296 001c 00       		.byte	0x0
 1297 001d 00       		.byte	0x0
 1298 001e 03       		.uleb128 0x3
 1299 001f 16       		.uleb128 0x16
 1300 0020 00       		.byte	0x0
 1301 0021 03       		.uleb128 0x3
 1302 0022 08       		.uleb128 0x8
 1303 0023 3A       		.uleb128 0x3a
 1304 0024 0B       		.uleb128 0xb
 1305 0025 3B       		.uleb128 0x3b
 1306 0026 0B       		.uleb128 0xb
 1307 0027 49       		.uleb128 0x49
 1308 0028 13       		.uleb128 0x13
 1309 0029 00       		.byte	0x0
 1310 002a 00       		.byte	0x0
 1311 002b 04       		.uleb128 0x4
 1312 002c 24       		.uleb128 0x24
 1313 002d 00       		.byte	0x0
 1314 002e 0B       		.uleb128 0xb
 1315 002f 0B       		.uleb128 0xb
 1316 0030 3E       		.uleb128 0x3e
 1317 0031 0B       		.uleb128 0xb
 1318 0032 03       		.uleb128 0x3
 1319 0033 08       		.uleb128 0x8
 1320 0034 00       		.byte	0x0
 1321 0035 00       		.byte	0x0
 1322 0036 05       		.uleb128 0x5
 1323 0037 13       		.uleb128 0x13
 1324 0038 01       		.byte	0x1
 1325 0039 03       		.uleb128 0x3
 1326 003a 0E       		.uleb128 0xe
 1327 003b 0B       		.uleb128 0xb
 1328 003c 0B       		.uleb128 0xb
 1329 003d 3A       		.uleb128 0x3a
 1330 003e 0B       		.uleb128 0xb
 1331 003f 3B       		.uleb128 0x3b
 1332 0040 0B       		.uleb128 0xb
 1333 0041 01       		.uleb128 0x1
 1334 0042 13       		.uleb128 0x13
 1335 0043 00       		.byte	0x0
 1336 0044 00       		.byte	0x0
 1337 0045 06       		.uleb128 0x6
ARM GAS  C:\DOCUME~1\ADMINI~1\LOCALS~1\Temp\ccYtgux9.s 			page 30


 1338 0046 0D       		.uleb128 0xd
 1339 0047 00       		.byte	0x0
 1340 0048 03       		.uleb128 0x3
 1341 0049 0E       		.uleb128 0xe
 1342 004a 3A       		.uleb128 0x3a
 1343 004b 0B       		.uleb128 0xb
 1344 004c 3B       		.uleb128 0x3b
 1345 004d 0B       		.uleb128 0xb
 1346 004e 49       		.uleb128 0x49
 1347 004f 13       		.uleb128 0x13
 1348 0050 38       		.uleb128 0x38
 1349 0051 0A       		.uleb128 0xa
 1350 0052 00       		.byte	0x0
 1351 0053 00       		.byte	0x0
 1352 0054 07       		.uleb128 0x7
 1353 0055 16       		.uleb128 0x16
 1354 0056 00       		.byte	0x0
 1355 0057 03       		.uleb128 0x3
 1356 0058 0E       		.uleb128 0xe
 1357 0059 3A       		.uleb128 0x3a
 1358 005a 0B       		.uleb128 0xb
 1359 005b 3B       		.uleb128 0x3b
 1360 005c 0B       		.uleb128 0xb
 1361 005d 49       		.uleb128 0x49
 1362 005e 13       		.uleb128 0x13
 1363 005f 00       		.byte	0x0
 1364 0060 00       		.byte	0x0
 1365 0061 08       		.uleb128 0x8
 1366 0062 04       		.uleb128 0x4
 1367 0063 01       		.byte	0x1
 1368 0064 03       		.uleb128 0x3
 1369 0065 0E       		.uleb128 0xe
 1370 0066 0B       		.uleb128 0xb
 1371 0067 0B       		.uleb128 0xb
 1372 0068 3A       		.uleb128 0x3a
 1373 0069 0B       		.uleb128 0xb
 1374 006a 3B       		.uleb128 0x3b
 1375 006b 0B       		.uleb128 0xb
 1376 006c 01       		.uleb128 0x1
 1377 006d 13       		.uleb128 0x13
 1378 006e 00       		.byte	0x0
 1379 006f 00       		.byte	0x0
 1380 0070 09       		.uleb128 0x9
 1381 0071 28       		.uleb128 0x28
 1382 0072 00       		.byte	0x0
 1383 0073 03       		.uleb128 0x3
 1384 0074 0E       		.uleb128 0xe
 1385 0075 1C       		.uleb128 0x1c
 1386 0076 0D       		.uleb128 0xd
 1387 0077 00       		.byte	0x0
 1388 0078 00       		.byte	0x0
 1389 0079 0A       		.uleb128 0xa
 1390 007a 01       		.uleb128 0x1
 1391 007b 01       		.byte	0x1
 1392 007c 49       		.uleb128 0x49
 1393 007d 13       		.uleb128 0x13
 1394 007e 01       		.uleb128 0x1
ARM GAS  C:\DOCUME~1\ADMINI~1\LOCALS~1\Temp\ccYtgux9.s 			page 31


 1395 007f 13       		.uleb128 0x13
 1396 0080 00       		.byte	0x0
 1397 0081 00       		.byte	0x0
 1398 0082 0B       		.uleb128 0xb
 1399 0083 21       		.uleb128 0x21
 1400 0084 00       		.byte	0x0
 1401 0085 49       		.uleb128 0x49
 1402 0086 13       		.uleb128 0x13
 1403 0087 2F       		.uleb128 0x2f
 1404 0088 0B       		.uleb128 0xb
 1405 0089 00       		.byte	0x0
 1406 008a 00       		.byte	0x0
 1407 008b 0C       		.uleb128 0xc
 1408 008c 2E       		.uleb128 0x2e
 1409 008d 00       		.byte	0x0
 1410 008e 3F       		.uleb128 0x3f
 1411 008f 0C       		.uleb128 0xc
 1412 0090 03       		.uleb128 0x3
 1413 0091 0E       		.uleb128 0xe
 1414 0092 3A       		.uleb128 0x3a
 1415 0093 0B       		.uleb128 0xb
 1416 0094 3B       		.uleb128 0x3b
 1417 0095 0B       		.uleb128 0xb
 1418 0096 27       		.uleb128 0x27
 1419 0097 0C       		.uleb128 0xc
 1420 0098 11       		.uleb128 0x11
 1421 0099 01       		.uleb128 0x1
 1422 009a 12       		.uleb128 0x12
 1423 009b 01       		.uleb128 0x1
 1424 009c 40       		.uleb128 0x40
 1425 009d 0A       		.uleb128 0xa
 1426 009e 00       		.byte	0x0
 1427 009f 00       		.byte	0x0
 1428 00a0 0D       		.uleb128 0xd
 1429 00a1 2E       		.uleb128 0x2e
 1430 00a2 01       		.byte	0x1
 1431 00a3 3F       		.uleb128 0x3f
 1432 00a4 0C       		.uleb128 0xc
 1433 00a5 03       		.uleb128 0x3
 1434 00a6 0E       		.uleb128 0xe
 1435 00a7 3A       		.uleb128 0x3a
 1436 00a8 0B       		.uleb128 0xb
 1437 00a9 3B       		.uleb128 0x3b
 1438 00aa 0B       		.uleb128 0xb
 1439 00ab 27       		.uleb128 0x27
 1440 00ac 0C       		.uleb128 0xc
 1441 00ad 11       		.uleb128 0x11
 1442 00ae 01       		.uleb128 0x1
 1443 00af 12       		.uleb128 0x12
 1444 00b0 01       		.uleb128 0x1
 1445 00b1 40       		.uleb128 0x40
 1446 00b2 06       		.uleb128 0x6
 1447 00b3 01       		.uleb128 0x1
 1448 00b4 13       		.uleb128 0x13
 1449 00b5 00       		.byte	0x0
 1450 00b6 00       		.byte	0x0
 1451 00b7 0E       		.uleb128 0xe
ARM GAS  C:\DOCUME~1\ADMINI~1\LOCALS~1\Temp\ccYtgux9.s 			page 32


 1452 00b8 34       		.uleb128 0x34
 1453 00b9 00       		.byte	0x0
 1454 00ba 03       		.uleb128 0x3
 1455 00bb 0E       		.uleb128 0xe
 1456 00bc 3A       		.uleb128 0x3a
 1457 00bd 0B       		.uleb128 0xb
 1458 00be 3B       		.uleb128 0x3b
 1459 00bf 0B       		.uleb128 0xb
 1460 00c0 49       		.uleb128 0x49
 1461 00c1 13       		.uleb128 0x13
 1462 00c2 02       		.uleb128 0x2
 1463 00c3 06       		.uleb128 0x6
 1464 00c4 00       		.byte	0x0
 1465 00c5 00       		.byte	0x0
 1466 00c6 0F       		.uleb128 0xf
 1467 00c7 34       		.uleb128 0x34
 1468 00c8 00       		.byte	0x0
 1469 00c9 03       		.uleb128 0x3
 1470 00ca 08       		.uleb128 0x8
 1471 00cb 3A       		.uleb128 0x3a
 1472 00cc 0B       		.uleb128 0xb
 1473 00cd 3B       		.uleb128 0x3b
 1474 00ce 0B       		.uleb128 0xb
 1475 00cf 49       		.uleb128 0x49
 1476 00d0 13       		.uleb128 0x13
 1477 00d1 02       		.uleb128 0x2
 1478 00d2 06       		.uleb128 0x6
 1479 00d3 00       		.byte	0x0
 1480 00d4 00       		.byte	0x0
 1481 00d5 10       		.uleb128 0x10
 1482 00d6 05       		.uleb128 0x5
 1483 00d7 00       		.byte	0x0
 1484 00d8 03       		.uleb128 0x3
 1485 00d9 0E       		.uleb128 0xe
 1486 00da 3A       		.uleb128 0x3a
 1487 00db 0B       		.uleb128 0xb
 1488 00dc 3B       		.uleb128 0x3b
 1489 00dd 0B       		.uleb128 0xb
 1490 00de 49       		.uleb128 0x49
 1491 00df 13       		.uleb128 0x13
 1492 00e0 02       		.uleb128 0x2
 1493 00e1 06       		.uleb128 0x6
 1494 00e2 00       		.byte	0x0
 1495 00e3 00       		.byte	0x0
 1496 00e4 11       		.uleb128 0x11
 1497 00e5 34       		.uleb128 0x34
 1498 00e6 00       		.byte	0x0
 1499 00e7 03       		.uleb128 0x3
 1500 00e8 0E       		.uleb128 0xe
 1501 00e9 3A       		.uleb128 0x3a
 1502 00ea 0B       		.uleb128 0xb
 1503 00eb 3B       		.uleb128 0x3b
 1504 00ec 0B       		.uleb128 0xb
 1505 00ed 49       		.uleb128 0x49
 1506 00ee 13       		.uleb128 0x13
 1507 00ef 3F       		.uleb128 0x3f
 1508 00f0 0C       		.uleb128 0xc
ARM GAS  C:\DOCUME~1\ADMINI~1\LOCALS~1\Temp\ccYtgux9.s 			page 33


 1509 00f1 3C       		.uleb128 0x3c
 1510 00f2 0C       		.uleb128 0xc
 1511 00f3 00       		.byte	0x0
 1512 00f4 00       		.byte	0x0
 1513 00f5 12       		.uleb128 0x12
 1514 00f6 0F       		.uleb128 0xf
 1515 00f7 00       		.byte	0x0
 1516 00f8 0B       		.uleb128 0xb
 1517 00f9 0B       		.uleb128 0xb
 1518 00fa 49       		.uleb128 0x49
 1519 00fb 13       		.uleb128 0x13
 1520 00fc 00       		.byte	0x0
 1521 00fd 00       		.byte	0x0
 1522 00fe 13       		.uleb128 0x13
 1523 00ff 21       		.uleb128 0x21
 1524 0100 00       		.byte	0x0
 1525 0101 49       		.uleb128 0x49
 1526 0102 13       		.uleb128 0x13
 1527 0103 2F       		.uleb128 0x2f
 1528 0104 05       		.uleb128 0x5
 1529 0105 00       		.byte	0x0
 1530 0106 00       		.byte	0x0
 1531 0107 14       		.uleb128 0x14
 1532 0108 34       		.uleb128 0x34
 1533 0109 00       		.byte	0x0
 1534 010a 03       		.uleb128 0x3
 1535 010b 0E       		.uleb128 0xe
 1536 010c 3A       		.uleb128 0x3a
 1537 010d 0B       		.uleb128 0xb
 1538 010e 3B       		.uleb128 0x3b
 1539 010f 0B       		.uleb128 0xb
 1540 0110 49       		.uleb128 0x49
 1541 0111 13       		.uleb128 0x13
 1542 0112 3F       		.uleb128 0x3f
 1543 0113 0C       		.uleb128 0xc
 1544 0114 02       		.uleb128 0x2
 1545 0115 0A       		.uleb128 0xa
 1546 0116 00       		.byte	0x0
 1547 0117 00       		.byte	0x0
 1548 0118 00       		.byte	0x0
 1549              		.section	.debug_pubnames,"",%progbits
 1550 0000 07010000 		.4byte	0x107
 1551 0004 0200     		.2byte	0x2
 1552 0006 00000000 		.4byte	.Ldebug_info0
 1553 000a 0C030000 		.4byte	0x30c
 1554 000e 34010000 		.4byte	0x134
 1555 0012 54455354 		.ascii	"TEST_CrossVarInit\000"
 1555      5F43726F 
 1555      73735661 
 1555      72496E69 
 1555      7400
 1556 0024 48010000 		.4byte	0x148
 1557 0028 54455354 		.ascii	"TEST_CrossStateTask\000"
 1557      5F43726F 
 1557      73735374 
 1557      61746554 
 1557      61736B00 
ARM GAS  C:\DOCUME~1\ADMINI~1\LOCALS~1\Temp\ccYtgux9.s 			page 34


 1558 003c 8D010000 		.4byte	0x18d
 1559 0040 54455354 		.ascii	"TEST_LedSet\000"
 1559      5F4C6564 
 1559      53657400 
 1560 004c C5010000 		.4byte	0x1c5
 1561 0050 54455354 		.ascii	"TEST_LedDisplayTask\000"
 1561      5F4C6564 
 1561      44697370 
 1561      6C617954 
 1561      61736B00 
 1562 0064 6E020000 		.4byte	0x26e
 1563 0068 67617563 		.ascii	"gaucCrossStateStack\000"
 1563      43726F73 
 1563      73537461 
 1563      74655374 
 1563      61636B00 
 1564 007c 80020000 		.4byte	0x280
 1565 0080 67617563 		.ascii	"gaucLedDisplayStack\000"
 1565      4C656444 
 1565      6973706C 
 1565      61795374 
 1565      61636B00 
 1566 0094 92020000 		.4byte	0x292
 1567 0098 67707374 		.ascii	"gpstrCrossStateTcb\000"
 1567      7243726F 
 1567      73735374 
 1567      61746554 
 1567      636200
 1568 00ab A4020000 		.4byte	0x2a4
 1569 00af 67707374 		.ascii	"gpstrLedDisplayTcb\000"
 1569      724C6564 
 1569      44697370 
 1569      6C617954 
 1569      636200
 1570 00c2 C3020000 		.4byte	0x2c3
 1571 00c6 67756943 		.ascii	"guiCurSta\000"
 1571      75725374 
 1571      6100
 1572 00d0 D5020000 		.4byte	0x2d5
 1573 00d4 67756953 		.ascii	"guiStaChange\000"
 1573      74614368 
 1573      616E6765 
 1573      00
 1574 00e1 E7020000 		.4byte	0x2e7
 1575 00e5 67617374 		.ascii	"gastrCrossSta\000"
 1575      7243726F 
 1575      73735374 
 1575      6100
 1576 00f3 F9020000 		.4byte	0x2f9
 1577 00f7 67737472 		.ascii	"gstrCurCrossSta\000"
 1577      43757243 
 1577      726F7373 
 1577      53746100 
 1578 0107 00000000 		.4byte	0x0
 1579              		.section	.debug_pubtypes,"",%progbits
 1580 0000 7E000000 		.4byte	0x7e
 1581 0004 0200     		.2byte	0x2
ARM GAS  C:\DOCUME~1\ADMINI~1\LOCALS~1\Temp\ccYtgux9.s 			page 35


 1582 0006 00000000 		.4byte	.Ldebug_info0
 1583 000a 0C030000 		.4byte	0x30c
 1584 000e 33000000 		.4byte	0x33
 1585 0012 553800   		.ascii	"U8\000"
 1586 0015 4B000000 		.4byte	0x4b
 1587 0019 55333200 		.ascii	"U32\000"
 1588 001d 6B000000 		.4byte	0x6b
 1589 0021 775F7463 		.ascii	"w_tcb\000"
 1589      6200
 1590 0027 86000000 		.4byte	0x86
 1591 002b 575F5443 		.ascii	"W_TCB\000"
 1591      4200
 1592 0031 91000000 		.4byte	0x91
 1593 0035 63726F73 		.ascii	"crossstate\000"
 1593      73737461 
 1593      746500
 1594 0040 BC000000 		.4byte	0xbc
 1595 0044 6C656473 		.ascii	"ledstate\000"
 1595      74617465 
 1595      00
 1596 004d E5000000 		.4byte	0xe5
 1597 0051 4C454453 		.ascii	"LEDSTATE\000"
 1597      54415445 
 1597      00
 1598 005a F0000000 		.4byte	0xf0
 1599 005e 63726F73 		.ascii	"crossstatestr\000"
 1599      73737461 
 1599      74657374 
 1599      7200
 1600 006c 29010000 		.4byte	0x129
 1601 0070 43524F53 		.ascii	"CROSSSTATESTR\000"
 1601      53535441 
 1601      54455354 
 1601      5200
 1602 007e 00000000 		.4byte	0x0
 1603              		.section	.debug_aranges,"",%progbits
 1604 0000 1C000000 		.4byte	0x1c
 1605 0004 0200     		.2byte	0x2
 1606 0006 00000000 		.4byte	.Ldebug_info0
 1607 000a 04       		.byte	0x4
 1608 000b 00       		.byte	0x0
 1609 000c 0000     		.2byte	0x0
 1610 000e 0000     		.2byte	0x0
 1611 0010 00000000 		.4byte	.Ltext0
 1612 0014 74030000 		.4byte	.Letext0-.Ltext0
 1613 0018 00000000 		.4byte	0x0
 1614 001c 00000000 		.4byte	0x0
 1615              		.section	.debug_str,"MS",%progbits,1
 1616              	.LASF24:
 1617 0000 54455354 		.ascii	"TEST_CrossStateTask\000"
 1617      5F43726F 
 1617      73735374 
 1617      61746554 
 1617      61736B00 
 1618              	.LASF15:
 1619 0014 75694C65 		.ascii	"uiLedState\000"
 1619      64537461 
ARM GAS  C:\DOCUME~1\ADMINI~1\LOCALS~1\Temp\ccYtgux9.s 			page 36


 1619      746500
 1620              	.LASF20:
 1621 001f 61737472 		.ascii	"astrLed\000"
 1621      4C656400 
 1622              	.LASF38:
 1623 0027 474E5520 		.ascii	"GNU C 4.5.2\000"
 1623      4320342E 
 1623      352E3200 
 1624              	.LASF31:
 1625 0033 67756953 		.ascii	"guiSystemTick\000"
 1625      79737465 
 1625      6D546963 
 1625      6B00
 1626              	.LASF28:
 1627 0041 54455354 		.ascii	"TEST_LedDisplayTask\000"
 1627      5F4C6564 
 1627      44697370 
 1627      6C617954 
 1627      61736B00 
 1628              	.LASF14:
 1629 0055 75695461 		.ascii	"uiTaskCurSp\000"
 1629      736B4375 
 1629      72537000 
 1630              	.LASF12:
 1631 0061 775F7463 		.ascii	"w_tcb\000"
 1631      6200
 1632              	.LASF37:
 1633 0067 67617563 		.ascii	"gaucLedDisplayStack\000"
 1633      4C656444 
 1633      6973706C 
 1633      61795374 
 1633      61636B00 
 1634              	.LASF6:
 1635 007b 575F5443 		.ascii	"W_TCB\000"
 1635      4200
 1636              	.LASF2:
 1637 0081 756E7369 		.ascii	"unsigned char\000"
 1637      676E6564 
 1637      20636861 
 1637      7200
 1638              	.LASF17:
 1639 008f 4C454453 		.ascii	"LEDSTATE\000"
 1639      54415445 
 1639      00
 1640              	.LASF27:
 1641 0098 75694C65 		.ascii	"uiLedSta\000"
 1641      64537461 
 1641      00
 1642              	.LASF22:
 1643 00a1 75695374 		.ascii	"uiStaEndTick\000"
 1643      61456E64 
 1643      5469636B 
 1643      00
 1644              	.LASF0:
 1645 00ae 6C6F6E67 		.ascii	"long unsigned int\000"
 1645      20756E73 
 1645      69676E65 
ARM GAS  C:\DOCUME~1\ADMINI~1\LOCALS~1\Temp\ccYtgux9.s 			page 37


 1645      6420696E 
 1645      7400
 1646              	.LASF25:
 1647 00c0 54455354 		.ascii	"TEST_LedSet\000"
 1647      5F4C6564 
 1647      53657400 
 1648              	.LASF3:
 1649 00cc 73686F72 		.ascii	"short unsigned int\000"
 1649      7420756E 
 1649      7369676E 
 1649      65642069 
 1649      6E7400
 1650              	.LASF18:
 1651 00df 63726F73 		.ascii	"crossstatestr\000"
 1651      73737461 
 1651      74657374 
 1651      7200
 1652              	.LASF26:
 1653 00ed 75694C65 		.ascii	"uiLedNo\000"
 1653      644E6F00 
 1654              	.LASF5:
 1655 00f5 73686F72 		.ascii	"short int\000"
 1655      7420696E 
 1655      7400
 1656              	.LASF11:
 1657 00ff 43524F53 		.ascii	"CROSSSTATENUM\000"
 1657      53535441 
 1657      54454E55 
 1657      4D00
 1658              	.LASF34:
 1659 010d 67617374 		.ascii	"gastrCrossSta\000"
 1659      7243726F 
 1659      73735374 
 1659      6100
 1660              	.LASF39:
 1661 011b 2E2E2F73 		.ascii	"../srccode/test.c\000"
 1661      7263636F 
 1661      64652F74 
 1661      6573742E 
 1661      6300
 1662              	.LASF32:
 1663 012d 67756943 		.ascii	"guiCurSta\000"
 1663      75725374 
 1663      6100
 1664              	.LASF33:
 1665 0137 67756953 		.ascii	"guiStaChange\000"
 1665      74614368 
 1665      616E6765 
 1665      00
 1666              	.LASF1:
 1667 0144 756E7369 		.ascii	"unsigned int\000"
 1667      676E6564 
 1667      20696E74 
 1667      00
 1668              	.LASF29:
 1669 0151 67707374 		.ascii	"gpstrCrossStateTcb\000"
 1669      7243726F 
ARM GAS  C:\DOCUME~1\ADMINI~1\LOCALS~1\Temp\ccYtgux9.s 			page 38


 1669      73735374 
 1669      61746554 
 1669      636200
 1670              	.LASF4:
 1671 0164 63686172 		.ascii	"char\000"
 1671      00
 1672              	.LASF23:
 1673 0169 7569466C 		.ascii	"uiFlashEndTick\000"
 1673      61736845 
 1673      6E645469 
 1673      636B00
 1674              	.LASF35:
 1675 0178 67737472 		.ascii	"gstrCurCrossSta\000"
 1675      43757243 
 1675      726F7373 
 1675      53746100 
 1676              	.LASF41:
 1677 0188 63726F73 		.ascii	"crossstate\000"
 1677      73737461 
 1677      746500
 1678              	.LASF19:
 1679 0193 75695275 		.ascii	"uiRunTime\000"
 1679      6E54696D 
 1679      6500
 1680              	.LASF21:
 1681 019d 43524F53 		.ascii	"CROSSSTATESTR\000"
 1681      53535441 
 1681      54455354 
 1681      5200
 1682              	.LASF30:
 1683 01ab 67707374 		.ascii	"gpstrLedDisplayTcb\000"
 1683      724C6564 
 1683      44697370 
 1683      6C617954 
 1683      636200
 1684              	.LASF42:
 1685 01be 54455354 		.ascii	"TEST_CrossVarInit\000"
 1685      5F43726F 
 1685      73735661 
 1685      72496E69 
 1685      7400
 1686              	.LASF40:
 1687 01d0 463A5C77 		.ascii	"F:\\workdir\\RTOS_Wanlix\\project\000"
 1687      6F726B64 
 1687      69725C52 
 1687      544F535F 
 1687      57616E6C 
 1688              	.LASF36:
 1689 01ef 67617563 		.ascii	"gaucCrossStateStack\000"
 1689      43726F73 
 1689      73537461 
 1689      74655374 
 1689      61636B00 
 1690              	.LASF7:
 1691 0203 43524F53 		.ascii	"CROSSSTATE1\000"
 1691      53535441 
 1691      54453100 
ARM GAS  C:\DOCUME~1\ADMINI~1\LOCALS~1\Temp\ccYtgux9.s 			page 39


 1692              	.LASF8:
 1693 020f 43524F53 		.ascii	"CROSSSTATE2\000"
 1693      53535441 
 1693      54453200 
 1694              	.LASF9:
 1695 021b 43524F53 		.ascii	"CROSSSTATE3\000"
 1695      53535441 
 1695      54453300 
 1696              	.LASF10:
 1697 0227 43524F53 		.ascii	"CROSSSTATE4\000"
 1697      53535441 
 1697      54453400 
 1698              	.LASF13:
 1699 0233 6C656473 		.ascii	"ledstate\000"
 1699      74617465 
 1699      00
 1700              	.LASF16:
 1701 023c 75694272 		.ascii	"uiBrightness\000"
 1701      69676874 
 1701      6E657373 
 1701      00
 1702              		.ident	"GCC: (Sourcery G++ Lite 2011.03-41) 4.5.2"
 1703              		.section	.note.GNU-stack,"",%progbits
ARM GAS  C:\DOCUME~1\ADMINI~1\LOCALS~1\Temp\ccYtgux9.s 			page 40


DEFINED SYMBOLS
                            *ABS*:00000000 test.c
C:\DOCUME~1\ADMINI~1\LOCALS~1\Temp\ccYtgux9.s:21     .text:00000000 $a
C:\DOCUME~1\ADMINI~1\LOCALS~1\Temp\ccYtgux9.s:24     .text:00000000 TEST_CrossVarInit
C:\DOCUME~1\ADMINI~1\LOCALS~1\Temp\ccYtgux9.s:55     .text:00000024 $d
                            *COM*:00000004 guiCurSta
                            *COM*:00000004 guiStaChange
                       .ARM.exidx:00000000 $d
C:\DOCUME~1\ADMINI~1\LOCALS~1\Temp\ccYtgux9.s:62     .text:00000030 $a
C:\DOCUME~1\ADMINI~1\LOCALS~1\Temp\ccYtgux9.s:65     .text:00000030 TEST_CrossStateTask
C:\DOCUME~1\ADMINI~1\LOCALS~1\Temp\ccYtgux9.s:306    .text:00000210 $d
                            *COM*:0000002c gstrCurCrossSta
                            *COM*:00000004 gpstrLedDisplayTcb
                       .ARM.extab:00000000 $d
C:\DOCUME~1\ADMINI~1\LOCALS~1\Temp\ccYtgux9.s:316    .text:00000228 $a
C:\DOCUME~1\ADMINI~1\LOCALS~1\Temp\ccYtgux9.s:319    .text:00000228 TEST_LedSet
C:\DOCUME~1\ADMINI~1\LOCALS~1\Temp\ccYtgux9.s:352    .text:00000248 $d
C:\DOCUME~1\ADMINI~1\LOCALS~1\Temp\ccYtgux9.s:359    .text:0000025c $a
C:\DOCUME~1\ADMINI~1\LOCALS~1\Temp\ccYtgux9.s:376    .text:00000280 $d
C:\DOCUME~1\ADMINI~1\LOCALS~1\Temp\ccYtgux9.s:383    .text:00000294 $a
C:\DOCUME~1\ADMINI~1\LOCALS~1\Temp\ccYtgux9.s:477    .text:00000324 TEST_LedDisplayTask
C:\DOCUME~1\ADMINI~1\LOCALS~1\Temp\ccYtgux9.s:531    .text:0000036c $d
                            *COM*:00000004 gpstrCrossStateTcb
C:\DOCUME~1\ADMINI~1\LOCALS~1\Temp\ccYtgux9.s:550    .data:00000000 gastrCrossSta
                            *COM*:00000190 gaucCrossStateStack
                            *COM*:00000190 gaucLedDisplayStack
C:\DOCUME~1\ADMINI~1\LOCALS~1\Temp\ccYtgux9.s:546    .data:00000000 $d
                     .debug_frame:00000010 $d

UNDEFINED SYMBOLS
guiSystemTick
__aeabi_unwind_cpp_pr0
ISR_PassengerIntUnlock
WLX_TaskSwitch
ISR_PassengerIntLock
__aeabi_unwind_cpp_pr1
DEV_SetGpio
DEV_ClrGpio
