ARM GAS  C:\DOCUME~1\ADMINI~1\LOCALS~1\Temp\cckoZDUI.s 			page 1


   1              		.cpu arm7tdmi
   2              		.fpu softvfp
   3              		.eabi_attribute 20, 1
   4              		.eabi_attribute 21, 1
   5              		.eabi_attribute 23, 3
   6              		.eabi_attribute 24, 1
   7              		.eabi_attribute 25, 1
   8              		.eabi_attribute 26, 2
   9              		.eabi_attribute 30, 2
  10              		.eabi_attribute 18, 4
  11              		.file	"wlx_userboot.c"
  18 0000 71000000 		.text
  18      02005200 
  18      00000201 
  18      FB0E0D00 
  18      01010101 
  19              	.Ltext0:
  20              		.cfi_sections	.debug_frame
  21              		.align	2
  22              		.global	WLX_RootTask
  23              		.type	WLX_RootTask, %function
  24              	WLX_RootTask:
  25              		.fnstart
  26              	.LFB0:
  27              		.file 1 "../srccode/wlx_userboot.c"
   1:../srccode/wlx_userboot.c **** 
   2:../srccode/wlx_userboot.c **** #include "wlx_userboot.h"
   3:../srccode/wlx_userboot.c **** 
   4:../srccode/wlx_userboot.c **** 
   5:../srccode/wlx_userboot.c **** /***********************************************************************************
   6:../srccode/wlx_userboot.c **** 函数功能: 根任务, 用户代码从这个函数开始执行.
   7:../srccode/wlx_userboot.c **** 入口参数: none.
   8:../srccode/wlx_userboot.c **** 返 回 值: none.
   9:../srccode/wlx_userboot.c **** ***********************************************************************************/
  10:../srccode/wlx_userboot.c **** void WLX_RootTask(void)
  11:../srccode/wlx_userboot.c **** {
  28              		.loc 1 11 0
  29              		.cfi_startproc
  30              		@ Function supports interworking.
  31              		@ args = 0, pretend = 0, frame = 0
  32              		@ frame_needed = 1, uses_anonymous_args = 0
  33              		.movsp ip
  34 0000 0DC0A0E1 		mov	ip, sp
  35              	.LCFI0:
  36              		.cfi_def_cfa_register 12
  37 0004 18D82DE9 		stmfd	sp!, {r3, r4, fp, ip, lr, pc}
  38              		.pad #4
  39              		.save {r3, r4, fp, ip, lr}
  40              		.setfp fp, ip, #-4
  41 0008 04B04CE2 		sub	fp, ip, #4
  42              		.cfi_offset 14, -8
ARM GAS  C:\DOCUME~1\ADMINI~1\LOCALS~1\Temp\cckoZDUI.s 			page 2


  43              		.cfi_offset 13, -12
  44              		.cfi_offset 11, -16
  45              		.cfi_offset 4, -20
  46              		.cfi_offset 3, -24
  47              	.LCFI1:
  48              		.cfi_def_cfa 11, 4
  12:../srccode/wlx_userboot.c ****     /* 初始化硬件 */
  13:../srccode/wlx_userboot.c ****     DEV_HardwareInit();
  49              		.loc 1 13 0
  50 000c FEFFFFEB 		bl	DEV_HardwareInit
  14:../srccode/wlx_userboot.c **** 
  15:../srccode/wlx_userboot.c ****     /* 创建任务 */
  16:../srccode/wlx_userboot.c ****     gpstrTask1Tcb = WLX_TaskCreate((VFUNC)TEST_TestTask1, gaucTask1Stack,
  51              		.loc 1 16 0
  52 0010 54109FE5 		ldr	r1, .L2
  53 0014 192EA0E3 		mov	r2, #400
  54 0018 50009FE5 		ldr	r0, .L2+4
  55 001c FEFFFFEB 		bl	WLX_TaskCreate
  56 0020 4C409FE5 		ldr	r4, .L2+8
  17:../srccode/wlx_userboot.c ****                                    TASKSTACK);
  18:../srccode/wlx_userboot.c ****     gpstrTask2Tcb = WLX_TaskCreate((VFUNC)TEST_TestTask2, gaucTask2Stack,
  57              		.loc 1 18 0
  58 0024 4C109FE5 		ldr	r1, .L2+12
  16:../srccode/wlx_userboot.c ****     gpstrTask1Tcb = WLX_TaskCreate((VFUNC)TEST_TestTask1, gaucTask1Stack,
  59              		.loc 1 16 0
  60 0028 000084E5 		str	r0, [r4, #0]
  61              		.loc 1 18 0
  62 002c 192EA0E3 		mov	r2, #400
  63 0030 44009FE5 		ldr	r0, .L2+16
  64 0034 FEFFFFEB 		bl	WLX_TaskCreate
  65 0038 40209FE5 		ldr	r2, .L2+20
  19:../srccode/wlx_userboot.c ****                                    TASKSTACK);
  20:../srccode/wlx_userboot.c ****     gpstrTask3Tcb = WLX_TaskCreate((VFUNC)TEST_TestTask3, gaucTask3Stack,
  66              		.loc 1 20 0
  67 003c 40109FE5 		ldr	r1, .L2+24
  18:../srccode/wlx_userboot.c ****     gpstrTask2Tcb = WLX_TaskCreate((VFUNC)TEST_TestTask2, gaucTask2Stack,
  68              		.loc 1 18 0
  69 0040 000082E5 		str	r0, [r2, #0]
  70              		.loc 1 20 0
  71 0044 192EA0E3 		mov	r2, #400
  72 0048 38009FE5 		ldr	r0, .L2+28
  73 004c FEFFFFEB 		bl	WLX_TaskCreate
  74 0050 34309FE5 		ldr	r3, .L2+32
  75 0054 000083E5 		str	r0, [r3, #0]
  21:../srccode/wlx_userboot.c ****                                    TASKSTACK);
  22:../srccode/wlx_userboot.c **** 
  23:../srccode/wlx_userboot.c ****     WLX_TaskSwitch(gpstrTask1Tcb);      /* 任务切换 */
  76              		.loc 1 23 0
  77 0058 000094E5 		ldr	r0, [r4, #0]
  78 005c FEFFFFEB 		bl	WLX_TaskSwitch
  24:../srccode/wlx_userboot.c **** }
  79              		.loc 1 24 0
  80 0060 14D04BE2 		sub	sp, fp, #20
  81 0064 18689DE8 		ldmfd	sp, {r3, r4, fp, sp, lr}
  82 0068 1EFF2FE1 		bx	lr
  83              	.L3:
  84              		.align	2
ARM GAS  C:\DOCUME~1\ADMINI~1\LOCALS~1\Temp\cckoZDUI.s 			page 3


  85              	.L2:
  86 006c 00000000 		.word	gaucTask1Stack
  87 0070 00000000 		.word	TEST_TestTask1
  88 0074 00000000 		.word	gpstrTask1Tcb
  89 0078 00000000 		.word	gaucTask2Stack
  90 007c 00000000 		.word	TEST_TestTask2
  91 0080 00000000 		.word	gpstrTask2Tcb
  92 0084 00000000 		.word	gaucTask3Stack
  93 0088 00000000 		.word	TEST_TestTask3
  94 008c 00000000 		.word	gpstrTask3Tcb
  95              		.cfi_endproc
  96              	.LFE0:
  97              		.fnend
  98              		.size	WLX_RootTask, .-WLX_RootTask
  99              	.Letext0:
 556              		.section	.note.GNU-stack,"",%progbits
ARM GAS  C:\DOCUME~1\ADMINI~1\LOCALS~1\Temp\cckoZDUI.s 			page 13

