ARM GAS  C:\DOCUME~1\ADMINI~1\LOCALS~1\Temp\cckoZDUI.s 			page 1


   1              		.cpu arm7tdmi
   2              		.fpu softvfp
   3              		.eabi_attribute 20, 1
   4              		.eabi_attribute 21, 1
   5              		.eabi_attribute 23, 3
   6              		.eabi_attribute 24, 1
   7              		.eabi_attribute 25, 1
   8              		.eabi_attribute 26, 2
   9              		.eabi_attribute 30, 2
  10              		.eabi_attribute 18, 4
  11              		.file	"wlx_userboot.c"
  12              		.section	.debug_abbrev,"",%progbits
  13              	.Ldebug_abbrev0:
  14              		.section	.debug_info,"",%progbits
  15              	.Ldebug_info0:
  16              		.section	.debug_line,"",%progbits
  17              	.Ldebug_line0:
  18 0000 71000000 		.text
  18      02005200 
  18      00000201 
  18      FB0E0D00 
  18      01010101 
  19              	.Ltext0:
  20              		.cfi_sections	.debug_frame
  21              		.align	2
  22              		.global	WLX_RootTask
  23              		.type	WLX_RootTask, %function
  24              	WLX_RootTask:
  25              		.fnstart
  26              	.LFB0:
  27              		.file 1 "../srccode/wlx_userboot.c"
   1:../srccode/wlx_userboot.c **** 
   2:../srccode/wlx_userboot.c **** #include "wlx_userboot.h"
   3:../srccode/wlx_userboot.c **** 
   4:../srccode/wlx_userboot.c **** 
   5:../srccode/wlx_userboot.c **** /***********************************************************************************
   6:../srccode/wlx_userboot.c **** 函数功能: 根任务, 用户代码从这个函数开始执行.
   7:../srccode/wlx_userboot.c **** 入口参数: none.
   8:../srccode/wlx_userboot.c **** 返 回 值: none.
   9:../srccode/wlx_userboot.c **** ***********************************************************************************/
  10:../srccode/wlx_userboot.c **** void WLX_RootTask(void)
  11:../srccode/wlx_userboot.c **** {
  28              		.loc 1 11 0
  29              		.cfi_startproc
  30              		@ Function supports interworking.
  31              		@ args = 0, pretend = 0, frame = 0
  32              		@ frame_needed = 1, uses_anonymous_args = 0
  33              		.movsp ip
  34 0000 0DC0A0E1 		mov	ip, sp
  35              	.LCFI0:
  36              		.cfi_def_cfa_register 12
  37 0004 18D82DE9 		stmfd	sp!, {r3, r4, fp, ip, lr, pc}
  38              		.pad #4
  39              		.save {r3, r4, fp, ip, lr}
  40              		.setfp fp, ip, #-4
  41 0008 04B04CE2 		sub	fp, ip, #4
  42              		.cfi_offset 14, -8
ARM GAS  C:\DOCUME~1\ADMINI~1\LOCALS~1\Temp\cckoZDUI.s 			page 2


  43              		.cfi_offset 13, -12
  44              		.cfi_offset 11, -16
  45              		.cfi_offset 4, -20
  46              		.cfi_offset 3, -24
  47              	.LCFI1:
  48              		.cfi_def_cfa 11, 4
  12:../srccode/wlx_userboot.c ****     /* 初始化硬件 */
  13:../srccode/wlx_userboot.c ****     DEV_HardwareInit();
  49              		.loc 1 13 0
  50 000c FEFFFFEB 		bl	DEV_HardwareInit
  14:../srccode/wlx_userboot.c **** 
  15:../srccode/wlx_userboot.c ****     /* 创建任务 */
  16:../srccode/wlx_userboot.c ****     gpstrTask1Tcb = WLX_TaskCreate((VFUNC)TEST_TestTask1, gaucTask1Stack,
  51              		.loc 1 16 0
  52 0010 54109FE5 		ldr	r1, .L2
  53 0014 192EA0E3 		mov	r2, #400
  54 0018 50009FE5 		ldr	r0, .L2+4
  55 001c FEFFFFEB 		bl	WLX_TaskCreate
  56 0020 4C409FE5 		ldr	r4, .L2+8
  17:../srccode/wlx_userboot.c ****                                    TASKSTACK);
  18:../srccode/wlx_userboot.c ****     gpstrTask2Tcb = WLX_TaskCreate((VFUNC)TEST_TestTask2, gaucTask2Stack,
  57              		.loc 1 18 0
  58 0024 4C109FE5 		ldr	r1, .L2+12
  16:../srccode/wlx_userboot.c ****     gpstrTask1Tcb = WLX_TaskCreate((VFUNC)TEST_TestTask1, gaucTask1Stack,
  59              		.loc 1 16 0
  60 0028 000084E5 		str	r0, [r4, #0]
  61              		.loc 1 18 0
  62 002c 192EA0E3 		mov	r2, #400
  63 0030 44009FE5 		ldr	r0, .L2+16
  64 0034 FEFFFFEB 		bl	WLX_TaskCreate
  65 0038 40209FE5 		ldr	r2, .L2+20
  19:../srccode/wlx_userboot.c ****                                    TASKSTACK);
  20:../srccode/wlx_userboot.c ****     gpstrTask3Tcb = WLX_TaskCreate((VFUNC)TEST_TestTask3, gaucTask3Stack,
  66              		.loc 1 20 0
  67 003c 40109FE5 		ldr	r1, .L2+24
  18:../srccode/wlx_userboot.c ****     gpstrTask2Tcb = WLX_TaskCreate((VFUNC)TEST_TestTask2, gaucTask2Stack,
  68              		.loc 1 18 0
  69 0040 000082E5 		str	r0, [r2, #0]
  70              		.loc 1 20 0
  71 0044 192EA0E3 		mov	r2, #400
  72 0048 38009FE5 		ldr	r0, .L2+28
  73 004c FEFFFFEB 		bl	WLX_TaskCreate
  74 0050 34309FE5 		ldr	r3, .L2+32
  75 0054 000083E5 		str	r0, [r3, #0]
  21:../srccode/wlx_userboot.c ****                                    TASKSTACK);
  22:../srccode/wlx_userboot.c **** 
  23:../srccode/wlx_userboot.c ****     WLX_TaskSwitch(gpstrTask1Tcb);      /* 任务切换 */
  76              		.loc 1 23 0
  77 0058 000094E5 		ldr	r0, [r4, #0]
  78 005c FEFFFFEB 		bl	WLX_TaskSwitch
  24:../srccode/wlx_userboot.c **** }
  79              		.loc 1 24 0
  80 0060 14D04BE2 		sub	sp, fp, #20
  81 0064 18689DE8 		ldmfd	sp, {r3, r4, fp, sp, lr}
  82 0068 1EFF2FE1 		bx	lr
  83              	.L3:
  84              		.align	2
ARM GAS  C:\DOCUME~1\ADMINI~1\LOCALS~1\Temp\cckoZDUI.s 			page 3


  85              	.L2:
  86 006c 00000000 		.word	gaucTask1Stack
  87 0070 00000000 		.word	TEST_TestTask1
  88 0074 00000000 		.word	gpstrTask1Tcb
  89 0078 00000000 		.word	gaucTask2Stack
  90 007c 00000000 		.word	TEST_TestTask2
  91 0080 00000000 		.word	gpstrTask2Tcb
  92 0084 00000000 		.word	gaucTask3Stack
  93 0088 00000000 		.word	TEST_TestTask3
  94 008c 00000000 		.word	gpstrTask3Tcb
  95              		.cfi_endproc
  96              	.LFE0:
  97              		.fnend
  98              		.size	WLX_RootTask, .-WLX_RootTask
  99              	.Letext0:
 100              		.section	.debug_loc,"",%progbits
 101              	.Ldebug_loc0:
 102              	.LLST0:
 103 0000 00000000 		.4byte	.LFB0-.Ltext0
 104 0004 04000000 		.4byte	.LCFI0-.Ltext0
 105 0008 0200     		.2byte	0x2
 106 000a 7D       		.byte	0x7d
 107 000b 00       		.sleb128 0
 108 000c 04000000 		.4byte	.LCFI0-.Ltext0
 109 0010 0C000000 		.4byte	.LCFI1-.Ltext0
 110 0014 0200     		.2byte	0x2
 111 0016 7C       		.byte	0x7c
 112 0017 00       		.sleb128 0
 113 0018 0C000000 		.4byte	.LCFI1-.Ltext0
 114 001c 90000000 		.4byte	.LFE0-.Ltext0
 115 0020 0200     		.2byte	0x2
 116 0022 7B       		.byte	0x7b
 117 0023 04       		.sleb128 4
 118 0024 00000000 		.4byte	0x0
 119 0028 00000000 		.4byte	0x0
 120              		.file 2 "../wanlix/wanlix.h"
 121              		.file 3 "../srccode/global.h"
 122              		.section	.debug_info
 123 0000 69010000 		.4byte	0x169
 124 0004 0200     		.2byte	0x2
 125 0006 00000000 		.4byte	.Ldebug_abbrev0
 126 000a 04       		.byte	0x4
 127 000b 01       		.uleb128 0x1
 128 000c 00000000 		.4byte	.LASF14
 129 0010 01       		.byte	0x1
 130 0011 DD000000 		.4byte	.LASF15
 131 0015 25000000 		.4byte	.LASF16
 132 0019 00000000 		.4byte	.Ltext0
 133 001d 90000000 		.4byte	.Letext0
 134 0021 00000000 		.4byte	.Ldebug_line0
 135 0025 02       		.uleb128 0x2
 136 0026 04       		.byte	0x4
 137 0027 07       		.byte	0x7
 138 0028 52000000 		.4byte	.LASF0
 139 002c 02       		.uleb128 0x2
 140 002d 04       		.byte	0x4
 141 002e 07       		.byte	0x7
ARM GAS  C:\DOCUME~1\ADMINI~1\LOCALS~1\Temp\cckoZDUI.s 			page 4


 142 002f 0C000000 		.4byte	.LASF1
 143 0033 03       		.uleb128 0x3
 144 0034 04       		.byte	0x4
 145 0035 39000000 		.4byte	0x39
 146 0039 04       		.uleb128 0x4
 147 003a 01       		.byte	0x1
 148 003b 05       		.uleb128 0x5
 149 003c 553800   		.ascii	"U8\000"
 150 003f 02       		.byte	0x2
 151 0040 07       		.byte	0x7
 152 0041 45000000 		.4byte	0x45
 153 0045 02       		.uleb128 0x2
 154 0046 01       		.byte	0x1
 155 0047 08       		.byte	0x8
 156 0048 7F000000 		.4byte	.LASF2
 157 004c 02       		.uleb128 0x2
 158 004d 02       		.byte	0x2
 159 004e 07       		.byte	0x7
 160 004f AD000000 		.4byte	.LASF3
 161 0053 05       		.uleb128 0x5
 162 0054 55333200 		.ascii	"U32\000"
 163 0058 02       		.byte	0x2
 164 0059 09       		.byte	0x9
 165 005a 2C000000 		.4byte	0x2c
 166 005e 02       		.uleb128 0x2
 167 005f 01       		.byte	0x1
 168 0060 08       		.byte	0x8
 169 0061 8D000000 		.4byte	.LASF4
 170 0065 02       		.uleb128 0x2
 171 0066 02       		.byte	0x2
 172 0067 05       		.byte	0x5
 173 0068 F7000000 		.4byte	.LASF5
 174 006c 06       		.uleb128 0x6
 175 006d 04       		.byte	0x4
 176 006e 05       		.byte	0x5
 177 006f 696E7400 		.ascii	"int\000"
 178 0073 07       		.uleb128 0x7
 179 0074 64000000 		.4byte	.LASF6
 180 0078 02       		.byte	0x2
 181 0079 0D       		.byte	0xd
 182 007a 33000000 		.4byte	0x33
 183 007e 08       		.uleb128 0x8
 184 007f 01010000 		.4byte	.LASF17
 185 0083 04       		.byte	0x4
 186 0084 02       		.byte	0x2
 187 0085 22       		.byte	0x22
 188 0086 99000000 		.4byte	0x99
 189 008a 09       		.uleb128 0x9
 190 008b 19000000 		.4byte	.LASF18
 191 008f 02       		.byte	0x2
 192 0090 24       		.byte	0x24
 193 0091 53000000 		.4byte	0x53
 194 0095 02       		.byte	0x2
 195 0096 23       		.byte	0x23
 196 0097 00       		.uleb128 0x0
 197 0098 00       		.byte	0x0
 198 0099 07       		.uleb128 0x7
ARM GAS  C:\DOCUME~1\ADMINI~1\LOCALS~1\Temp\cckoZDUI.s 			page 5


 199 009a 79000000 		.4byte	.LASF7
 200 009e 02       		.byte	0x2
 201 009f 25       		.byte	0x25
 202 00a0 7E000000 		.4byte	0x7e
 203 00a4 0A       		.uleb128 0xa
 204 00a5 01       		.byte	0x1
 205 00a6 92000000 		.4byte	.LASF19
 206 00aa 01       		.byte	0x1
 207 00ab 0A       		.byte	0xa
 208 00ac 01       		.byte	0x1
 209 00ad 00000000 		.4byte	.LFB0
 210 00b1 90000000 		.4byte	.LFE0
 211 00b5 00000000 		.4byte	.LLST0
 212 00b9 0B       		.uleb128 0xb
 213 00ba 3B000000 		.4byte	0x3b
 214 00be CA000000 		.4byte	0xca
 215 00c2 0C       		.uleb128 0xc
 216 00c3 2C000000 		.4byte	0x2c
 217 00c7 8F01     		.2byte	0x18f
 218 00c9 00       		.byte	0x0
 219 00ca 0D       		.uleb128 0xd
 220 00cb 6A000000 		.4byte	.LASF8
 221 00cf 03       		.byte	0x3
 222 00d0 0E       		.byte	0xe
 223 00d1 B9000000 		.4byte	0xb9
 224 00d5 01       		.byte	0x1
 225 00d6 01       		.byte	0x1
 226 00d7 0D       		.uleb128 0xd
 227 00d8 CE000000 		.4byte	.LASF9
 228 00dc 03       		.byte	0x3
 229 00dd 0F       		.byte	0xf
 230 00de B9000000 		.4byte	0xb9
 231 00e2 01       		.byte	0x1
 232 00e3 01       		.byte	0x1
 233 00e4 0D       		.uleb128 0xd
 234 00e5 07010000 		.4byte	.LASF10
 235 00e9 03       		.byte	0x3
 236 00ea 10       		.byte	0x10
 237 00eb B9000000 		.4byte	0xb9
 238 00ef 01       		.byte	0x1
 239 00f0 01       		.byte	0x1
 240 00f1 0D       		.uleb128 0xd
 241 00f2 9F000000 		.4byte	.LASF11
 242 00f6 03       		.byte	0x3
 243 00f7 12       		.byte	0x12
 244 00f8 FE000000 		.4byte	0xfe
 245 00fc 01       		.byte	0x1
 246 00fd 01       		.byte	0x1
 247 00fe 03       		.uleb128 0x3
 248 00ff 04       		.byte	0x4
 249 0100 99000000 		.4byte	0x99
 250 0104 0D       		.uleb128 0xd
 251 0105 44000000 		.4byte	.LASF12
 252 0109 03       		.byte	0x3
 253 010a 13       		.byte	0x13
 254 010b FE000000 		.4byte	0xfe
 255 010f 01       		.byte	0x1
ARM GAS  C:\DOCUME~1\ADMINI~1\LOCALS~1\Temp\cckoZDUI.s 			page 6


 256 0110 01       		.byte	0x1
 257 0111 0D       		.uleb128 0xd
 258 0112 C0000000 		.4byte	.LASF13
 259 0116 03       		.byte	0x3
 260 0117 14       		.byte	0x14
 261 0118 FE000000 		.4byte	0xfe
 262 011c 01       		.byte	0x1
 263 011d 01       		.byte	0x1
 264 011e 0D       		.uleb128 0xd
 265 011f 6A000000 		.4byte	.LASF8
 266 0123 03       		.byte	0x3
 267 0124 0E       		.byte	0xe
 268 0125 B9000000 		.4byte	0xb9
 269 0129 01       		.byte	0x1
 270 012a 01       		.byte	0x1
 271 012b 0D       		.uleb128 0xd
 272 012c CE000000 		.4byte	.LASF9
 273 0130 03       		.byte	0x3
 274 0131 0F       		.byte	0xf
 275 0132 B9000000 		.4byte	0xb9
 276 0136 01       		.byte	0x1
 277 0137 01       		.byte	0x1
 278 0138 0D       		.uleb128 0xd
 279 0139 07010000 		.4byte	.LASF10
 280 013d 03       		.byte	0x3
 281 013e 10       		.byte	0x10
 282 013f B9000000 		.4byte	0xb9
 283 0143 01       		.byte	0x1
 284 0144 01       		.byte	0x1
 285 0145 0D       		.uleb128 0xd
 286 0146 9F000000 		.4byte	.LASF11
 287 014a 03       		.byte	0x3
 288 014b 12       		.byte	0x12
 289 014c FE000000 		.4byte	0xfe
 290 0150 01       		.byte	0x1
 291 0151 01       		.byte	0x1
 292 0152 0D       		.uleb128 0xd
 293 0153 44000000 		.4byte	.LASF12
 294 0157 03       		.byte	0x3
 295 0158 13       		.byte	0x13
 296 0159 FE000000 		.4byte	0xfe
 297 015d 01       		.byte	0x1
 298 015e 01       		.byte	0x1
 299 015f 0D       		.uleb128 0xd
 300 0160 C0000000 		.4byte	.LASF13
 301 0164 03       		.byte	0x3
 302 0165 14       		.byte	0x14
 303 0166 FE000000 		.4byte	0xfe
 304 016a 01       		.byte	0x1
 305 016b 01       		.byte	0x1
 306 016c 00       		.byte	0x0
 307              		.section	.debug_abbrev
 308 0000 01       		.uleb128 0x1
 309 0001 11       		.uleb128 0x11
 310 0002 01       		.byte	0x1
 311 0003 25       		.uleb128 0x25
 312 0004 0E       		.uleb128 0xe
ARM GAS  C:\DOCUME~1\ADMINI~1\LOCALS~1\Temp\cckoZDUI.s 			page 7


 313 0005 13       		.uleb128 0x13
 314 0006 0B       		.uleb128 0xb
 315 0007 03       		.uleb128 0x3
 316 0008 0E       		.uleb128 0xe
 317 0009 1B       		.uleb128 0x1b
 318 000a 0E       		.uleb128 0xe
 319 000b 11       		.uleb128 0x11
 320 000c 01       		.uleb128 0x1
 321 000d 12       		.uleb128 0x12
 322 000e 01       		.uleb128 0x1
 323 000f 10       		.uleb128 0x10
 324 0010 06       		.uleb128 0x6
 325 0011 00       		.byte	0x0
 326 0012 00       		.byte	0x0
 327 0013 02       		.uleb128 0x2
 328 0014 24       		.uleb128 0x24
 329 0015 00       		.byte	0x0
 330 0016 0B       		.uleb128 0xb
 331 0017 0B       		.uleb128 0xb
 332 0018 3E       		.uleb128 0x3e
 333 0019 0B       		.uleb128 0xb
 334 001a 03       		.uleb128 0x3
 335 001b 0E       		.uleb128 0xe
 336 001c 00       		.byte	0x0
 337 001d 00       		.byte	0x0
 338 001e 03       		.uleb128 0x3
 339 001f 0F       		.uleb128 0xf
 340 0020 00       		.byte	0x0
 341 0021 0B       		.uleb128 0xb
 342 0022 0B       		.uleb128 0xb
 343 0023 49       		.uleb128 0x49
 344 0024 13       		.uleb128 0x13
 345 0025 00       		.byte	0x0
 346 0026 00       		.byte	0x0
 347 0027 04       		.uleb128 0x4
 348 0028 15       		.uleb128 0x15
 349 0029 00       		.byte	0x0
 350 002a 27       		.uleb128 0x27
 351 002b 0C       		.uleb128 0xc
 352 002c 00       		.byte	0x0
 353 002d 00       		.byte	0x0
 354 002e 05       		.uleb128 0x5
 355 002f 16       		.uleb128 0x16
 356 0030 00       		.byte	0x0
 357 0031 03       		.uleb128 0x3
 358 0032 08       		.uleb128 0x8
 359 0033 3A       		.uleb128 0x3a
 360 0034 0B       		.uleb128 0xb
 361 0035 3B       		.uleb128 0x3b
 362 0036 0B       		.uleb128 0xb
 363 0037 49       		.uleb128 0x49
 364 0038 13       		.uleb128 0x13
 365 0039 00       		.byte	0x0
 366 003a 00       		.byte	0x0
 367 003b 06       		.uleb128 0x6
 368 003c 24       		.uleb128 0x24
 369 003d 00       		.byte	0x0
ARM GAS  C:\DOCUME~1\ADMINI~1\LOCALS~1\Temp\cckoZDUI.s 			page 8


 370 003e 0B       		.uleb128 0xb
 371 003f 0B       		.uleb128 0xb
 372 0040 3E       		.uleb128 0x3e
 373 0041 0B       		.uleb128 0xb
 374 0042 03       		.uleb128 0x3
 375 0043 08       		.uleb128 0x8
 376 0044 00       		.byte	0x0
 377 0045 00       		.byte	0x0
 378 0046 07       		.uleb128 0x7
 379 0047 16       		.uleb128 0x16
 380 0048 00       		.byte	0x0
 381 0049 03       		.uleb128 0x3
 382 004a 0E       		.uleb128 0xe
 383 004b 3A       		.uleb128 0x3a
 384 004c 0B       		.uleb128 0xb
 385 004d 3B       		.uleb128 0x3b
 386 004e 0B       		.uleb128 0xb
 387 004f 49       		.uleb128 0x49
 388 0050 13       		.uleb128 0x13
 389 0051 00       		.byte	0x0
 390 0052 00       		.byte	0x0
 391 0053 08       		.uleb128 0x8
 392 0054 13       		.uleb128 0x13
 393 0055 01       		.byte	0x1
 394 0056 03       		.uleb128 0x3
 395 0057 0E       		.uleb128 0xe
 396 0058 0B       		.uleb128 0xb
 397 0059 0B       		.uleb128 0xb
 398 005a 3A       		.uleb128 0x3a
 399 005b 0B       		.uleb128 0xb
 400 005c 3B       		.uleb128 0x3b
 401 005d 0B       		.uleb128 0xb
 402 005e 01       		.uleb128 0x1
 403 005f 13       		.uleb128 0x13
 404 0060 00       		.byte	0x0
 405 0061 00       		.byte	0x0
 406 0062 09       		.uleb128 0x9
 407 0063 0D       		.uleb128 0xd
 408 0064 00       		.byte	0x0
 409 0065 03       		.uleb128 0x3
 410 0066 0E       		.uleb128 0xe
 411 0067 3A       		.uleb128 0x3a
 412 0068 0B       		.uleb128 0xb
 413 0069 3B       		.uleb128 0x3b
 414 006a 0B       		.uleb128 0xb
 415 006b 49       		.uleb128 0x49
 416 006c 13       		.uleb128 0x13
 417 006d 38       		.uleb128 0x38
 418 006e 0A       		.uleb128 0xa
 419 006f 00       		.byte	0x0
 420 0070 00       		.byte	0x0
 421 0071 0A       		.uleb128 0xa
 422 0072 2E       		.uleb128 0x2e
 423 0073 00       		.byte	0x0
 424 0074 3F       		.uleb128 0x3f
 425 0075 0C       		.uleb128 0xc
 426 0076 03       		.uleb128 0x3
ARM GAS  C:\DOCUME~1\ADMINI~1\LOCALS~1\Temp\cckoZDUI.s 			page 9


 427 0077 0E       		.uleb128 0xe
 428 0078 3A       		.uleb128 0x3a
 429 0079 0B       		.uleb128 0xb
 430 007a 3B       		.uleb128 0x3b
 431 007b 0B       		.uleb128 0xb
 432 007c 27       		.uleb128 0x27
 433 007d 0C       		.uleb128 0xc
 434 007e 11       		.uleb128 0x11
 435 007f 01       		.uleb128 0x1
 436 0080 12       		.uleb128 0x12
 437 0081 01       		.uleb128 0x1
 438 0082 40       		.uleb128 0x40
 439 0083 06       		.uleb128 0x6
 440 0084 00       		.byte	0x0
 441 0085 00       		.byte	0x0
 442 0086 0B       		.uleb128 0xb
 443 0087 01       		.uleb128 0x1
 444 0088 01       		.byte	0x1
 445 0089 49       		.uleb128 0x49
 446 008a 13       		.uleb128 0x13
 447 008b 01       		.uleb128 0x1
 448 008c 13       		.uleb128 0x13
 449 008d 00       		.byte	0x0
 450 008e 00       		.byte	0x0
 451 008f 0C       		.uleb128 0xc
 452 0090 21       		.uleb128 0x21
 453 0091 00       		.byte	0x0
 454 0092 49       		.uleb128 0x49
 455 0093 13       		.uleb128 0x13
 456 0094 2F       		.uleb128 0x2f
 457 0095 05       		.uleb128 0x5
 458 0096 00       		.byte	0x0
 459 0097 00       		.byte	0x0
 460 0098 0D       		.uleb128 0xd
 461 0099 34       		.uleb128 0x34
 462 009a 00       		.byte	0x0
 463 009b 03       		.uleb128 0x3
 464 009c 0E       		.uleb128 0xe
 465 009d 3A       		.uleb128 0x3a
 466 009e 0B       		.uleb128 0xb
 467 009f 3B       		.uleb128 0x3b
 468 00a0 0B       		.uleb128 0xb
 469 00a1 49       		.uleb128 0x49
 470 00a2 13       		.uleb128 0x13
 471 00a3 3F       		.uleb128 0x3f
 472 00a4 0C       		.uleb128 0xc
 473 00a5 3C       		.uleb128 0x3c
 474 00a6 0C       		.uleb128 0xc
 475 00a7 00       		.byte	0x0
 476 00a8 00       		.byte	0x0
 477 00a9 00       		.byte	0x0
 478              		.section	.debug_pubnames,"",%progbits
 479 0000 1F000000 		.4byte	0x1f
 480 0004 0200     		.2byte	0x2
 481 0006 00000000 		.4byte	.Ldebug_info0
 482 000a 6D010000 		.4byte	0x16d
 483 000e A4000000 		.4byte	0xa4
ARM GAS  C:\DOCUME~1\ADMINI~1\LOCALS~1\Temp\cckoZDUI.s 			page 10


 484 0012 574C585F 		.ascii	"WLX_RootTask\000"
 484      526F6F74 
 484      5461736B 
 484      00
 485 001f 00000000 		.4byte	0x0
 486              		.section	.debug_pubtypes,"",%progbits
 487 0000 3B000000 		.4byte	0x3b
 488 0004 0200     		.2byte	0x2
 489 0006 00000000 		.4byte	.Ldebug_info0
 490 000a 6D010000 		.4byte	0x16d
 491 000e 3B000000 		.4byte	0x3b
 492 0012 553800   		.ascii	"U8\000"
 493 0015 53000000 		.4byte	0x53
 494 0019 55333200 		.ascii	"U32\000"
 495 001d 73000000 		.4byte	0x73
 496 0021 5646554E 		.ascii	"VFUNC\000"
 496      4300
 497 0027 7E000000 		.4byte	0x7e
 498 002b 775F7463 		.ascii	"w_tcb\000"
 498      6200
 499 0031 99000000 		.4byte	0x99
 500 0035 575F5443 		.ascii	"W_TCB\000"
 500      4200
 501 003b 00000000 		.4byte	0x0
 502              		.section	.debug_aranges,"",%progbits
 503 0000 1C000000 		.4byte	0x1c
 504 0004 0200     		.2byte	0x2
 505 0006 00000000 		.4byte	.Ldebug_info0
 506 000a 04       		.byte	0x4
 507 000b 00       		.byte	0x0
 508 000c 0000     		.2byte	0x0
 509 000e 0000     		.2byte	0x0
 510 0010 00000000 		.4byte	.Ltext0
 511 0014 90000000 		.4byte	.Letext0-.Ltext0
 512 0018 00000000 		.4byte	0x0
 513 001c 00000000 		.4byte	0x0
 514              		.section	.debug_str,"MS",%progbits,1
 515              	.LASF14:
 516 0000 474E5520 		.ascii	"GNU C 4.5.2\000"
 516      4320342E 
 516      352E3200 
 517              	.LASF1:
 518 000c 756E7369 		.ascii	"unsigned int\000"
 518      676E6564 
 518      20696E74 
 518      00
 519              	.LASF18:
 520 0019 75695461 		.ascii	"uiTaskCurSp\000"
 520      736B4375 
 520      72537000 
 521              	.LASF16:
 522 0025 463A5C77 		.ascii	"F:\\workdir\\RTOS_Wanlix\\project\000"
 522      6F726B64 
 522      69725C52 
 522      544F535F 
 522      57616E6C 
 523              	.LASF12:
ARM GAS  C:\DOCUME~1\ADMINI~1\LOCALS~1\Temp\cckoZDUI.s 			page 11


 524 0044 67707374 		.ascii	"gpstrTask2Tcb\000"
 524      72546173 
 524      6B325463 
 524      6200
 525              	.LASF0:
 526 0052 6C6F6E67 		.ascii	"long unsigned int\000"
 526      20756E73 
 526      69676E65 
 526      6420696E 
 526      7400
 527              	.LASF6:
 528 0064 5646554E 		.ascii	"VFUNC\000"
 528      4300
 529              	.LASF8:
 530 006a 67617563 		.ascii	"gaucTask1Stack\000"
 530      5461736B 
 530      31537461 
 530      636B00
 531              	.LASF7:
 532 0079 575F5443 		.ascii	"W_TCB\000"
 532      4200
 533              	.LASF2:
 534 007f 756E7369 		.ascii	"unsigned char\000"
 534      676E6564 
 534      20636861 
 534      7200
 535              	.LASF4:
 536 008d 63686172 		.ascii	"char\000"
 536      00
 537              	.LASF19:
 538 0092 574C585F 		.ascii	"WLX_RootTask\000"
 538      526F6F74 
 538      5461736B 
 538      00
 539              	.LASF11:
 540 009f 67707374 		.ascii	"gpstrTask1Tcb\000"
 540      72546173 
 540      6B315463 
 540      6200
 541              	.LASF3:
 542 00ad 73686F72 		.ascii	"short unsigned int\000"
 542      7420756E 
 542      7369676E 
 542      65642069 
 542      6E7400
 543              	.LASF13:
 544 00c0 67707374 		.ascii	"gpstrTask3Tcb\000"
 544      72546173 
 544      6B335463 
 544      6200
 545              	.LASF9:
 546 00ce 67617563 		.ascii	"gaucTask2Stack\000"
 546      5461736B 
 546      32537461 
 546      636B00
 547              	.LASF15:
 548 00dd 2E2E2F73 		.ascii	"../srccode/wlx_userboot.c\000"
ARM GAS  C:\DOCUME~1\ADMINI~1\LOCALS~1\Temp\cckoZDUI.s 			page 12


 548      7263636F 
 548      64652F77 
 548      6C785F75 
 548      73657262 
 549              	.LASF5:
 550 00f7 73686F72 		.ascii	"short int\000"
 550      7420696E 
 550      7400
 551              	.LASF17:
 552 0101 775F7463 		.ascii	"w_tcb\000"
 552      6200
 553              	.LASF10:
 554 0107 67617563 		.ascii	"gaucTask3Stack\000"
 554      5461736B 
 554      33537461 
 554      636B00
 555              		.ident	"GCC: (Sourcery G++ Lite 2011.03-41) 4.5.2"
 556              		.section	.note.GNU-stack,"",%progbits
ARM GAS  C:\DOCUME~1\ADMINI~1\LOCALS~1\Temp\cckoZDUI.s 			page 13


DEFINED SYMBOLS
                            *ABS*:00000000 wlx_userboot.c
C:\DOCUME~1\ADMINI~1\LOCALS~1\Temp\cckoZDUI.s:21     .text:00000000 $a
C:\DOCUME~1\ADMINI~1\LOCALS~1\Temp\cckoZDUI.s:24     .text:00000000 WLX_RootTask
C:\DOCUME~1\ADMINI~1\LOCALS~1\Temp\cckoZDUI.s:86     .text:0000006c $d
                       .ARM.extab:00000000 $d
                       .ARM.exidx:00000000 $d
                     .debug_frame:00000010 $d

UNDEFINED SYMBOLS
DEV_HardwareInit
WLX_TaskCreate
WLX_TaskSwitch
gaucTask1Stack
TEST_TestTask1
gpstrTask1Tcb
gaucTask2Stack
TEST_TestTask2
gpstrTask2Tcb
gaucTask3Stack
TEST_TestTask3
gpstrTask3Tcb
__aeabi_unwind_cpp_pr1
