ARM GAS  C:\DOCUME~1\ADMINI~1\LOCALS~1\Temp\cccxxmtW.s 			page 1


   1              		.cpu arm7tdmi
   2              		.fpu softvfp
   3              		.eabi_attribute 20, 1
   4              		.eabi_attribute 21, 1
   5              		.eabi_attribute 23, 3
   6              		.eabi_attribute 24, 1
   7              		.eabi_attribute 25, 1
   8              		.eabi_attribute 26, 2
   9              		.eabi_attribute 30, 2
  10              		.eabi_attribute 18, 4
  11              		.file	"test.c"
  18 0000 94000000 		.text
  18      02003E00 
  18      00000201 
  18      FB0E0D00 
  18      01010101 
  19              	.Ltext0:
  20              		.cfi_sections	.debug_frame
  21              		.align	2
  22              		.global	TEST_TestTask3
  23              		.type	TEST_TestTask3, %function
  24              	TEST_TestTask3:
  25              		.fnstart
  26              	.LFB3:
  27              		.file 1 "../srccode/test.c"
   1:../srccode/test.c **** 
   2:../srccode/test.c **** #include "test.h"
   3:../srccode/test.c **** 
   4:../srccode/test.c **** U8 gaucTask1Stack[TASKSTACK];       /* 任务1的堆栈 */
   5:../srccode/test.c **** U8 gaucTask2Stack[TASKSTACK];       /* 任务2的堆栈 */
   6:../srccode/test.c **** U8 gaucTask3Stack[TASKSTACK];       /* 任务3的堆栈 */
   7:../srccode/test.c **** 
   8:../srccode/test.c **** W_TCB* gpstrTask1Tcb;               /* 任务1的TCB指针 */
   9:../srccode/test.c **** W_TCB* gpstrTask2Tcb;               /* 任务2的TCB指针 */
  10:../srccode/test.c **** W_TCB* gpstrTask3Tcb;               /* 任务3的TCB指针 */
  11:../srccode/test.c **** 
  12:../srccode/test.c **** 
  13:../srccode/test.c **** 
  14:../srccode/test.c **** /***********************************************************************************
  15:../srccode/test.c **** 函数功能: 主函数, C程序从此函数开始运行. 该函数创建系统任务并从非任务状态切换到Root
  16:../srccode/test.c ****           任务运行.
  17:../srccode/test.c **** 入口参数: none.
  18:../srccode/test.c **** 返 回 值: none.
  19:../srccode/test.c **** ***********************************************************************************/
  20:../srccode/test.c **** S32 main(void)
  21:../srccode/test.c **** {
  22:../srccode/test.c ****     /* 初始化硬件 */
  23:../srccode/test.c ****     DEV_HardwareInit();
  24:../srccode/test.c **** 
  25:../srccode/test.c ****     /* 创建任务 */
  26:../srccode/test.c ****     gpstrTask1Tcb = WLX_TaskCreate((VFUNC)TEST_TestTask1, gaucTask1Stack,
ARM GAS  C:\DOCUME~1\ADMINI~1\LOCALS~1\Temp\cccxxmtW.s 			page 2


  27:../srccode/test.c ****                                    TASKSTACK);
  28:../srccode/test.c ****     gpstrTask2Tcb = WLX_TaskCreate((VFUNC)TEST_TestTask2, gaucTask2Stack,
  29:../srccode/test.c ****                                    TASKSTACK);
  30:../srccode/test.c ****     gpstrTask3Tcb = WLX_TaskCreate((VFUNC)TEST_TestTask3, gaucTask3Stack,
  31:../srccode/test.c ****                                    TASKSTACK);
  32:../srccode/test.c **** 
  33:../srccode/test.c ****     /* 开始任务调度, 从任务1开始执行 */
  34:../srccode/test.c ****     WLX_TaskStart(gpstrTask1Tcb);
  35:../srccode/test.c **** 
  36:../srccode/test.c ****     return 0;
  37:../srccode/test.c **** }
  38:../srccode/test.c **** 
  39:../srccode/test.c **** /***********************************************************************************
  40:../srccode/test.c **** 函数功能: 测试任务切换函数1, 向串口打印字符串.
  41:../srccode/test.c **** 入口参数: none.
  42:../srccode/test.c **** 返 回 值: none.
  43:../srccode/test.c **** ***********************************************************************************/
  44:../srccode/test.c **** void TEST_TestTask1(void)
  45:../srccode/test.c **** {
  46:../srccode/test.c ****     while(1)
  47:../srccode/test.c ****     {
  48:../srccode/test.c ****         DEV_PutString((U8*)"\r\nTask1 is running!");
  49:../srccode/test.c **** 
  50:../srccode/test.c ****         DEV_DelayMs(1000);              /* 延迟1s */
  51:../srccode/test.c **** 
  52:../srccode/test.c ****         WLX_TaskSwitch(gpstrTask3Tcb);  /* 任务切换 */
  53:../srccode/test.c ****     }
  54:../srccode/test.c **** }
  55:../srccode/test.c **** 
  56:../srccode/test.c **** /***********************************************************************************
  57:../srccode/test.c **** 函数功能: 测试任务切换函数2, 向串口打印字符串.
  58:../srccode/test.c **** 入口参数: none.
  59:../srccode/test.c **** 返 回 值: none.
  60:../srccode/test.c **** ***********************************************************************************/
  61:../srccode/test.c **** void TEST_TestTask2(void)
  62:../srccode/test.c **** {
  63:../srccode/test.c ****     while(1)
  64:../srccode/test.c ****     {
  65:../srccode/test.c ****         DEV_PutString((U8*)"\r\nTask2 is running!");
  66:../srccode/test.c **** 
  67:../srccode/test.c ****         DEV_DelayMs(2000);              /* 延迟2s */
  68:../srccode/test.c **** 
  69:../srccode/test.c ****         WLX_TaskSwitch(gpstrTask1Tcb);  /* 任务切换 */
  70:../srccode/test.c ****     }
  71:../srccode/test.c **** }
  72:../srccode/test.c **** 
  73:../srccode/test.c **** /***********************************************************************************
  74:../srccode/test.c **** 函数功能: 测试任务切换函数3, 向串口打印字符串.
  75:../srccode/test.c **** 入口参数: none.
  76:../srccode/test.c **** 返 回 值: none.
  77:../srccode/test.c **** ***********************************************************************************/
  78:../srccode/test.c **** void TEST_TestTask3(void)
  79:../srccode/test.c **** {
  28              		.loc 1 79 0
  29              		.cfi_startproc
  30              		@ Function supports interworking.
  31              		@ args = 0, pretend = 0, frame = 0
ARM GAS  C:\DOCUME~1\ADMINI~1\LOCALS~1\Temp\cccxxmtW.s 			page 3


  32              		@ frame_needed = 1, uses_anonymous_args = 0
  33              		.movsp ip
  34 0000 0DC0A0E1 		mov	ip, sp
  35              	.LCFI0:
  36              		.cfi_def_cfa_register 12
  37 0004 18D82DE9 		stmfd	sp!, {r3, r4, fp, ip, lr, pc}
  38              		.pad #4
  39              		.save {r3, r4, fp, ip, lr}
  40 0008 1C409FE5 		ldr	r4, .L4
  41              		.cfi_offset 14, -8
  42              		.cfi_offset 13, -12
  43              		.cfi_offset 11, -16
  44              		.cfi_offset 4, -20
  45              		.cfi_offset 3, -24
  46              		.setfp fp, ip, #-4
  47 000c 04B04CE2 		sub	fp, ip, #4
  48              	.LCFI1:
  49              		.cfi_def_cfa 11, 4
  50              	.L2:
  80:../srccode/test.c ****     while(1)
  81:../srccode/test.c ****     {
  82:../srccode/test.c ****         DEV_PutString((U8*)"\r\nTask3 is running!");
  51              		.loc 1 82 0 discriminator 1
  52 0010 18009FE5 		ldr	r0, .L4+4
  53 0014 FEFFFFEB 		bl	DEV_PutString
  83:../srccode/test.c **** 
  84:../srccode/test.c ****         DEV_DelayMs(3000);              /* 延迟3s */
  54              		.loc 1 84 0 discriminator 1
  55 0018 14009FE5 		ldr	r0, .L4+8
  56 001c FEFFFFEB 		bl	DEV_DelayMs
  85:../srccode/test.c **** 
  86:../srccode/test.c ****         WLX_TaskSwitch(gpstrTask2Tcb);  /* 任务切换 */
  57              		.loc 1 86 0 discriminator 1
  58 0020 000094E5 		ldr	r0, [r4, #0]
  59 0024 FEFFFFEB 		bl	WLX_TaskSwitch
  60 0028 F8FFFFEA 		b	.L2
  61              	.L5:
  62              		.align	2
  63              	.L4:
  64 002c 00000000 		.word	gpstrTask2Tcb
  65 0030 00000000 		.word	.LC0
  66 0034 B80B0000 		.word	3000
  67              		.cfi_endproc
  68              	.LFE3:
  69              		.fnend
  70              		.size	TEST_TestTask3, .-TEST_TestTask3
  71              		.align	2
  72              		.global	TEST_TestTask2
  73              		.type	TEST_TestTask2, %function
  74              	TEST_TestTask2:
  75              		.fnstart
  76              	.LFB2:
  62:../srccode/test.c **** {
  77              		.loc 1 62 0
  78              		.cfi_startproc
  79              		@ Function supports interworking.
  80              		@ args = 0, pretend = 0, frame = 0
ARM GAS  C:\DOCUME~1\ADMINI~1\LOCALS~1\Temp\cccxxmtW.s 			page 4


  81              		@ frame_needed = 1, uses_anonymous_args = 0
  82              		.movsp ip
  83 0038 0DC0A0E1 		mov	ip, sp
  84              	.LCFI2:
  85              		.cfi_def_cfa_register 12
  86 003c 18D82DE9 		stmfd	sp!, {r3, r4, fp, ip, lr, pc}
  87              		.pad #4
  88              		.save {r3, r4, fp, ip, lr}
  89 0040 1C409FE5 		ldr	r4, .L8
  90              		.cfi_offset 14, -8
  91              		.cfi_offset 13, -12
  92              		.cfi_offset 11, -16
  93              		.cfi_offset 4, -20
  94              		.cfi_offset 3, -24
  95              		.setfp fp, ip, #-4
  96 0044 04B04CE2 		sub	fp, ip, #4
  97              	.LCFI3:
  98              		.cfi_def_cfa 11, 4
  99              	.L7:
  65:../srccode/test.c ****         DEV_PutString((U8*)"\r\nTask2 is running!");
 100              		.loc 1 65 0 discriminator 1
 101 0048 18009FE5 		ldr	r0, .L8+4
 102 004c FEFFFFEB 		bl	DEV_PutString
  67:../srccode/test.c ****         DEV_DelayMs(2000);              /* 延迟2s */
 103              		.loc 1 67 0 discriminator 1
 104 0050 7D0EA0E3 		mov	r0, #2000
 105 0054 FEFFFFEB 		bl	DEV_DelayMs
  69:../srccode/test.c ****         WLX_TaskSwitch(gpstrTask1Tcb);  /* 任务切换 */
 106              		.loc 1 69 0 discriminator 1
 107 0058 000094E5 		ldr	r0, [r4, #0]
 108 005c FEFFFFEB 		bl	WLX_TaskSwitch
 109 0060 F8FFFFEA 		b	.L7
 110              	.L9:
 111              		.align	2
 112              	.L8:
 113 0064 00000000 		.word	gpstrTask1Tcb
 114 0068 14000000 		.word	.LC1
 115              		.cfi_endproc
 116              	.LFE2:
 117              		.fnend
 118              		.size	TEST_TestTask2, .-TEST_TestTask2
 119              		.align	2
 120              		.global	TEST_TestTask1
 121              		.type	TEST_TestTask1, %function
 122              	TEST_TestTask1:
 123              		.fnstart
 124              	.LFB1:
  45:../srccode/test.c **** {
 125              		.loc 1 45 0
 126              		.cfi_startproc
 127              		@ Function supports interworking.
 128              		@ args = 0, pretend = 0, frame = 0
 129              		@ frame_needed = 1, uses_anonymous_args = 0
 130              		.movsp ip
 131 006c 0DC0A0E1 		mov	ip, sp
 132              	.LCFI4:
 133              		.cfi_def_cfa_register 12
ARM GAS  C:\DOCUME~1\ADMINI~1\LOCALS~1\Temp\cccxxmtW.s 			page 5


 134 0070 18D82DE9 		stmfd	sp!, {r3, r4, fp, ip, lr, pc}
 135              		.pad #4
 136              		.save {r3, r4, fp, ip, lr}
 137 0074 1C409FE5 		ldr	r4, .L12
 138              		.cfi_offset 14, -8
 139              		.cfi_offset 13, -12
 140              		.cfi_offset 11, -16
 141              		.cfi_offset 4, -20
 142              		.cfi_offset 3, -24
 143              		.setfp fp, ip, #-4
 144 0078 04B04CE2 		sub	fp, ip, #4
 145              	.LCFI5:
 146              		.cfi_def_cfa 11, 4
 147              	.L11:
  48:../srccode/test.c ****         DEV_PutString((U8*)"\r\nTask1 is running!");
 148              		.loc 1 48 0 discriminator 1
 149 007c 18009FE5 		ldr	r0, .L12+4
 150 0080 FEFFFFEB 		bl	DEV_PutString
  50:../srccode/test.c ****         DEV_DelayMs(1000);              /* 延迟1s */
 151              		.loc 1 50 0 discriminator 1
 152 0084 FA0FA0E3 		mov	r0, #1000
 153 0088 FEFFFFEB 		bl	DEV_DelayMs
  52:../srccode/test.c ****         WLX_TaskSwitch(gpstrTask3Tcb);  /* 任务切换 */
 154              		.loc 1 52 0 discriminator 1
 155 008c 000094E5 		ldr	r0, [r4, #0]
 156 0090 FEFFFFEB 		bl	WLX_TaskSwitch
 157 0094 F8FFFFEA 		b	.L11
 158              	.L13:
 159              		.align	2
 160              	.L12:
 161 0098 00000000 		.word	gpstrTask3Tcb
 162 009c 28000000 		.word	.LC2
 163              		.cfi_endproc
 164              	.LFE1:
 165              		.fnend
 166              		.size	TEST_TestTask1, .-TEST_TestTask1
 167              		.align	2
 168              		.global	main
 169              		.type	main, %function
 170              	main:
 171              		.fnstart
 172              	.LFB0:
  21:../srccode/test.c **** {
 173              		.loc 1 21 0
 174              		.cfi_startproc
 175              		@ Function supports interworking.
 176              		@ args = 0, pretend = 0, frame = 0
 177              		@ frame_needed = 1, uses_anonymous_args = 0
 178              		.movsp ip
 179 00a0 0DC0A0E1 		mov	ip, sp
 180              	.LCFI6:
 181              		.cfi_def_cfa_register 12
 182 00a4 18D82DE9 		stmfd	sp!, {r3, r4, fp, ip, lr, pc}
 183              		.pad #4
 184              		.save {r3, r4, fp, ip, lr}
 185              		.setfp fp, ip, #-4
 186 00a8 04B04CE2 		sub	fp, ip, #4
ARM GAS  C:\DOCUME~1\ADMINI~1\LOCALS~1\Temp\cccxxmtW.s 			page 6


 187              		.cfi_offset 14, -8
 188              		.cfi_offset 13, -12
 189              		.cfi_offset 11, -16
 190              		.cfi_offset 4, -20
 191              		.cfi_offset 3, -24
 192              	.LCFI7:
 193              		.cfi_def_cfa 11, 4
  23:../srccode/test.c ****     DEV_HardwareInit();
 194              		.loc 1 23 0
 195 00ac FEFFFFEB 		bl	DEV_HardwareInit
  26:../srccode/test.c ****     gpstrTask1Tcb = WLX_TaskCreate((VFUNC)TEST_TestTask1, gaucTask1Stack,
 196              		.loc 1 26 0
 197 00b0 58109FE5 		ldr	r1, .L15
 198 00b4 192EA0E3 		mov	r2, #400
 199 00b8 54009FE5 		ldr	r0, .L15+4
 200 00bc FEFFFFEB 		bl	WLX_TaskCreate
 201 00c0 50409FE5 		ldr	r4, .L15+8
  28:../srccode/test.c ****     gpstrTask2Tcb = WLX_TaskCreate((VFUNC)TEST_TestTask2, gaucTask2Stack,
 202              		.loc 1 28 0
 203 00c4 50109FE5 		ldr	r1, .L15+12
  26:../srccode/test.c ****     gpstrTask1Tcb = WLX_TaskCreate((VFUNC)TEST_TestTask1, gaucTask1Stack,
 204              		.loc 1 26 0
 205 00c8 000084E5 		str	r0, [r4, #0]
  28:../srccode/test.c ****     gpstrTask2Tcb = WLX_TaskCreate((VFUNC)TEST_TestTask2, gaucTask2Stack,
 206              		.loc 1 28 0
 207 00cc 192EA0E3 		mov	r2, #400
 208 00d0 48009FE5 		ldr	r0, .L15+16
 209 00d4 FEFFFFEB 		bl	WLX_TaskCreate
 210 00d8 44209FE5 		ldr	r2, .L15+20
  30:../srccode/test.c ****     gpstrTask3Tcb = WLX_TaskCreate((VFUNC)TEST_TestTask3, gaucTask3Stack,
 211              		.loc 1 30 0
 212 00dc 44109FE5 		ldr	r1, .L15+24
  28:../srccode/test.c ****     gpstrTask2Tcb = WLX_TaskCreate((VFUNC)TEST_TestTask2, gaucTask2Stack,
 213              		.loc 1 28 0
 214 00e0 000082E5 		str	r0, [r2, #0]
  30:../srccode/test.c ****     gpstrTask3Tcb = WLX_TaskCreate((VFUNC)TEST_TestTask3, gaucTask3Stack,
 215              		.loc 1 30 0
 216 00e4 192EA0E3 		mov	r2, #400
 217 00e8 3C009FE5 		ldr	r0, .L15+28
 218 00ec FEFFFFEB 		bl	WLX_TaskCreate
 219 00f0 38309FE5 		ldr	r3, .L15+32
 220 00f4 000083E5 		str	r0, [r3, #0]
  34:../srccode/test.c ****     WLX_TaskStart(gpstrTask1Tcb);
 221              		.loc 1 34 0
 222 00f8 000094E5 		ldr	r0, [r4, #0]
 223 00fc FEFFFFEB 		bl	WLX_TaskStart
  37:../srccode/test.c **** }
 224              		.loc 1 37 0
 225 0100 0000A0E3 		mov	r0, #0
 226 0104 14D04BE2 		sub	sp, fp, #20
 227 0108 18689DE8 		ldmfd	sp, {r3, r4, fp, sp, lr}
 228 010c 1EFF2FE1 		bx	lr
 229              	.L16:
 230              		.align	2
 231              	.L15:
 232 0110 00000000 		.word	gaucTask1Stack
 233 0114 00000000 		.word	TEST_TestTask1
ARM GAS  C:\DOCUME~1\ADMINI~1\LOCALS~1\Temp\cccxxmtW.s 			page 7


 234 0118 00000000 		.word	gpstrTask1Tcb
 235 011c 00000000 		.word	gaucTask2Stack
 236 0120 00000000 		.word	TEST_TestTask2
 237 0124 00000000 		.word	gpstrTask2Tcb
 238 0128 00000000 		.word	gaucTask3Stack
 239 012c 00000000 		.word	TEST_TestTask3
 240 0130 00000000 		.word	gpstrTask3Tcb
 241              		.cfi_endproc
 242              	.LFE0:
 243              		.fnend
 244              		.size	main, .-main
 245              		.comm	gaucTask1Stack,400,4
 246              		.comm	gaucTask2Stack,400,4
 247              		.comm	gaucTask3Stack,400,4
 248              		.comm	gpstrTask1Tcb,4,4
 249              		.comm	gpstrTask2Tcb,4,4
 250              		.comm	gpstrTask3Tcb,4,4
 251              		.section	.rodata.str1.4,"aMS",%progbits,1
 252              		.align	2
 253              	.LC0:
 254 0000 0D0A5461 		.ascii	"\015\012Task3 is running!\000"
 254      736B3320 
 254      69732072 
 254      756E6E69 
 254      6E672100 
 255              	.LC1:
 256 0014 0D0A5461 		.ascii	"\015\012Task2 is running!\000"
 256      736B3220 
 256      69732072 
 256      756E6E69 
 256      6E672100 
 257              	.LC2:
 258 0028 0D0A5461 		.ascii	"\015\012Task1 is running!\000"
 258      736B3120 
 258      69732072 
 258      756E6E69 
 258      6E672100 
 259              		.text
 260              	.Letext0:
 881              		.section	.note.GNU-stack,"",%progbits
ARM GAS  C:\DOCUME~1\ADMINI~1\LOCALS~1\Temp\cccxxmtW.s 			page 21

