ARM GAS  C:\DOCUME~1\ADMINI~1\LOCALS~1\Temp\cccxxmtW.s 			page 1


   1              		.cpu arm7tdmi
   2              		.fpu softvfp
   3              		.eabi_attribute 20, 1
   4              		.eabi_attribute 21, 1
   5              		.eabi_attribute 23, 3
   6              		.eabi_attribute 24, 1
   7              		.eabi_attribute 25, 1
   8              		.eabi_attribute 26, 2
   9              		.eabi_attribute 30, 2
  10              		.eabi_attribute 18, 4
  11              		.file	"test.c"
  12              		.section	.debug_abbrev,"",%progbits
  13              	.Ldebug_abbrev0:
  14              		.section	.debug_info,"",%progbits
  15              	.Ldebug_info0:
  16              		.section	.debug_line,"",%progbits
  17              	.Ldebug_line0:
  18 0000 94000000 		.text
  18      02003E00 
  18      00000201 
  18      FB0E0D00 
  18      01010101 
  19              	.Ltext0:
  20              		.cfi_sections	.debug_frame
  21              		.align	2
  22              		.global	TEST_TestTask3
  23              		.type	TEST_TestTask3, %function
  24              	TEST_TestTask3:
  25              		.fnstart
  26              	.LFB3:
  27              		.file 1 "../srccode/test.c"
   1:../srccode/test.c **** 
   2:../srccode/test.c **** #include "test.h"
   3:../srccode/test.c **** 
   4:../srccode/test.c **** U8 gaucTask1Stack[TASKSTACK];       /* 任务1的堆栈 */
   5:../srccode/test.c **** U8 gaucTask2Stack[TASKSTACK];       /* 任务2的堆栈 */
   6:../srccode/test.c **** U8 gaucTask3Stack[TASKSTACK];       /* 任务3的堆栈 */
   7:../srccode/test.c **** 
   8:../srccode/test.c **** W_TCB* gpstrTask1Tcb;               /* 任务1的TCB指针 */
   9:../srccode/test.c **** W_TCB* gpstrTask2Tcb;               /* 任务2的TCB指针 */
  10:../srccode/test.c **** W_TCB* gpstrTask3Tcb;               /* 任务3的TCB指针 */
  11:../srccode/test.c **** 
  12:../srccode/test.c **** 
  13:../srccode/test.c **** 
  14:../srccode/test.c **** /***********************************************************************************
  15:../srccode/test.c **** 函数功能: 主函数, C程序从此函数开始运行. 该函数创建系统任务并从非任务状态切换到Root
  16:../srccode/test.c ****           任务运行.
  17:../srccode/test.c **** 入口参数: none.
  18:../srccode/test.c **** 返 回 值: none.
  19:../srccode/test.c **** ***********************************************************************************/
  20:../srccode/test.c **** S32 main(void)
  21:../srccode/test.c **** {
  22:../srccode/test.c ****     /* 初始化硬件 */
  23:../srccode/test.c ****     DEV_HardwareInit();
  24:../srccode/test.c **** 
  25:../srccode/test.c ****     /* 创建任务 */
  26:../srccode/test.c ****     gpstrTask1Tcb = WLX_TaskCreate((VFUNC)TEST_TestTask1, gaucTask1Stack,
ARM GAS  C:\DOCUME~1\ADMINI~1\LOCALS~1\Temp\cccxxmtW.s 			page 2


  27:../srccode/test.c ****                                    TASKSTACK);
  28:../srccode/test.c ****     gpstrTask2Tcb = WLX_TaskCreate((VFUNC)TEST_TestTask2, gaucTask2Stack,
  29:../srccode/test.c ****                                    TASKSTACK);
  30:../srccode/test.c ****     gpstrTask3Tcb = WLX_TaskCreate((VFUNC)TEST_TestTask3, gaucTask3Stack,
  31:../srccode/test.c ****                                    TASKSTACK);
  32:../srccode/test.c **** 
  33:../srccode/test.c ****     /* 开始任务调度, 从任务1开始执行 */
  34:../srccode/test.c ****     WLX_TaskStart(gpstrTask1Tcb);
  35:../srccode/test.c **** 
  36:../srccode/test.c ****     return 0;
  37:../srccode/test.c **** }
  38:../srccode/test.c **** 
  39:../srccode/test.c **** /***********************************************************************************
  40:../srccode/test.c **** 函数功能: 测试任务切换函数1, 向串口打印字符串.
  41:../srccode/test.c **** 入口参数: none.
  42:../srccode/test.c **** 返 回 值: none.
  43:../srccode/test.c **** ***********************************************************************************/
  44:../srccode/test.c **** void TEST_TestTask1(void)
  45:../srccode/test.c **** {
  46:../srccode/test.c ****     while(1)
  47:../srccode/test.c ****     {
  48:../srccode/test.c ****         DEV_PutString((U8*)"\r\nTask1 is running!");
  49:../srccode/test.c **** 
  50:../srccode/test.c ****         DEV_DelayMs(1000);              /* 延迟1s */
  51:../srccode/test.c **** 
  52:../srccode/test.c ****         WLX_TaskSwitch(gpstrTask3Tcb);  /* 任务切换 */
  53:../srccode/test.c ****     }
  54:../srccode/test.c **** }
  55:../srccode/test.c **** 
  56:../srccode/test.c **** /***********************************************************************************
  57:../srccode/test.c **** 函数功能: 测试任务切换函数2, 向串口打印字符串.
  58:../srccode/test.c **** 入口参数: none.
  59:../srccode/test.c **** 返 回 值: none.
  60:../srccode/test.c **** ***********************************************************************************/
  61:../srccode/test.c **** void TEST_TestTask2(void)
  62:../srccode/test.c **** {
  63:../srccode/test.c ****     while(1)
  64:../srccode/test.c ****     {
  65:../srccode/test.c ****         DEV_PutString((U8*)"\r\nTask2 is running!");
  66:../srccode/test.c **** 
  67:../srccode/test.c ****         DEV_DelayMs(2000);              /* 延迟2s */
  68:../srccode/test.c **** 
  69:../srccode/test.c ****         WLX_TaskSwitch(gpstrTask1Tcb);  /* 任务切换 */
  70:../srccode/test.c ****     }
  71:../srccode/test.c **** }
  72:../srccode/test.c **** 
  73:../srccode/test.c **** /***********************************************************************************
  74:../srccode/test.c **** 函数功能: 测试任务切换函数3, 向串口打印字符串.
  75:../srccode/test.c **** 入口参数: none.
  76:../srccode/test.c **** 返 回 值: none.
  77:../srccode/test.c **** ***********************************************************************************/
  78:../srccode/test.c **** void TEST_TestTask3(void)
  79:../srccode/test.c **** {
  28              		.loc 1 79 0
  29              		.cfi_startproc
  30              		@ Function supports interworking.
  31              		@ args = 0, pretend = 0, frame = 0
ARM GAS  C:\DOCUME~1\ADMINI~1\LOCALS~1\Temp\cccxxmtW.s 			page 3


  32              		@ frame_needed = 1, uses_anonymous_args = 0
  33              		.movsp ip
  34 0000 0DC0A0E1 		mov	ip, sp
  35              	.LCFI0:
  36              		.cfi_def_cfa_register 12
  37 0004 18D82DE9 		stmfd	sp!, {r3, r4, fp, ip, lr, pc}
  38              		.pad #4
  39              		.save {r3, r4, fp, ip, lr}
  40 0008 1C409FE5 		ldr	r4, .L4
  41              		.cfi_offset 14, -8
  42              		.cfi_offset 13, -12
  43              		.cfi_offset 11, -16
  44              		.cfi_offset 4, -20
  45              		.cfi_offset 3, -24
  46              		.setfp fp, ip, #-4
  47 000c 04B04CE2 		sub	fp, ip, #4
  48              	.LCFI1:
  49              		.cfi_def_cfa 11, 4
  50              	.L2:
  80:../srccode/test.c ****     while(1)
  81:../srccode/test.c ****     {
  82:../srccode/test.c ****         DEV_PutString((U8*)"\r\nTask3 is running!");
  51              		.loc 1 82 0 discriminator 1
  52 0010 18009FE5 		ldr	r0, .L4+4
  53 0014 FEFFFFEB 		bl	DEV_PutString
  83:../srccode/test.c **** 
  84:../srccode/test.c ****         DEV_DelayMs(3000);              /* 延迟3s */
  54              		.loc 1 84 0 discriminator 1
  55 0018 14009FE5 		ldr	r0, .L4+8
  56 001c FEFFFFEB 		bl	DEV_DelayMs
  85:../srccode/test.c **** 
  86:../srccode/test.c ****         WLX_TaskSwitch(gpstrTask2Tcb);  /* 任务切换 */
  57              		.loc 1 86 0 discriminator 1
  58 0020 000094E5 		ldr	r0, [r4, #0]
  59 0024 FEFFFFEB 		bl	WLX_TaskSwitch
  60 0028 F8FFFFEA 		b	.L2
  61              	.L5:
  62              		.align	2
  63              	.L4:
  64 002c 00000000 		.word	gpstrTask2Tcb
  65 0030 00000000 		.word	.LC0
  66 0034 B80B0000 		.word	3000
  67              		.cfi_endproc
  68              	.LFE3:
  69              		.fnend
  70              		.size	TEST_TestTask3, .-TEST_TestTask3
  71              		.align	2
  72              		.global	TEST_TestTask2
  73              		.type	TEST_TestTask2, %function
  74              	TEST_TestTask2:
  75              		.fnstart
  76              	.LFB2:
  62:../srccode/test.c **** {
  77              		.loc 1 62 0
  78              		.cfi_startproc
  79              		@ Function supports interworking.
  80              		@ args = 0, pretend = 0, frame = 0
ARM GAS  C:\DOCUME~1\ADMINI~1\LOCALS~1\Temp\cccxxmtW.s 			page 4


  81              		@ frame_needed = 1, uses_anonymous_args = 0
  82              		.movsp ip
  83 0038 0DC0A0E1 		mov	ip, sp
  84              	.LCFI2:
  85              		.cfi_def_cfa_register 12
  86 003c 18D82DE9 		stmfd	sp!, {r3, r4, fp, ip, lr, pc}
  87              		.pad #4
  88              		.save {r3, r4, fp, ip, lr}
  89 0040 1C409FE5 		ldr	r4, .L8
  90              		.cfi_offset 14, -8
  91              		.cfi_offset 13, -12
  92              		.cfi_offset 11, -16
  93              		.cfi_offset 4, -20
  94              		.cfi_offset 3, -24
  95              		.setfp fp, ip, #-4
  96 0044 04B04CE2 		sub	fp, ip, #4
  97              	.LCFI3:
  98              		.cfi_def_cfa 11, 4
  99              	.L7:
  65:../srccode/test.c ****         DEV_PutString((U8*)"\r\nTask2 is running!");
 100              		.loc 1 65 0 discriminator 1
 101 0048 18009FE5 		ldr	r0, .L8+4
 102 004c FEFFFFEB 		bl	DEV_PutString
  67:../srccode/test.c ****         DEV_DelayMs(2000);              /* 延迟2s */
 103              		.loc 1 67 0 discriminator 1
 104 0050 7D0EA0E3 		mov	r0, #2000
 105 0054 FEFFFFEB 		bl	DEV_DelayMs
  69:../srccode/test.c ****         WLX_TaskSwitch(gpstrTask1Tcb);  /* 任务切换 */
 106              		.loc 1 69 0 discriminator 1
 107 0058 000094E5 		ldr	r0, [r4, #0]
 108 005c FEFFFFEB 		bl	WLX_TaskSwitch
 109 0060 F8FFFFEA 		b	.L7
 110              	.L9:
 111              		.align	2
 112              	.L8:
 113 0064 00000000 		.word	gpstrTask1Tcb
 114 0068 14000000 		.word	.LC1
 115              		.cfi_endproc
 116              	.LFE2:
 117              		.fnend
 118              		.size	TEST_TestTask2, .-TEST_TestTask2
 119              		.align	2
 120              		.global	TEST_TestTask1
 121              		.type	TEST_TestTask1, %function
 122              	TEST_TestTask1:
 123              		.fnstart
 124              	.LFB1:
  45:../srccode/test.c **** {
 125              		.loc 1 45 0
 126              		.cfi_startproc
 127              		@ Function supports interworking.
 128              		@ args = 0, pretend = 0, frame = 0
 129              		@ frame_needed = 1, uses_anonymous_args = 0
 130              		.movsp ip
 131 006c 0DC0A0E1 		mov	ip, sp
 132              	.LCFI4:
 133              		.cfi_def_cfa_register 12
ARM GAS  C:\DOCUME~1\ADMINI~1\LOCALS~1\Temp\cccxxmtW.s 			page 5


 134 0070 18D82DE9 		stmfd	sp!, {r3, r4, fp, ip, lr, pc}
 135              		.pad #4
 136              		.save {r3, r4, fp, ip, lr}
 137 0074 1C409FE5 		ldr	r4, .L12
 138              		.cfi_offset 14, -8
 139              		.cfi_offset 13, -12
 140              		.cfi_offset 11, -16
 141              		.cfi_offset 4, -20
 142              		.cfi_offset 3, -24
 143              		.setfp fp, ip, #-4
 144 0078 04B04CE2 		sub	fp, ip, #4
 145              	.LCFI5:
 146              		.cfi_def_cfa 11, 4
 147              	.L11:
  48:../srccode/test.c ****         DEV_PutString((U8*)"\r\nTask1 is running!");
 148              		.loc 1 48 0 discriminator 1
 149 007c 18009FE5 		ldr	r0, .L12+4
 150 0080 FEFFFFEB 		bl	DEV_PutString
  50:../srccode/test.c ****         DEV_DelayMs(1000);              /* 延迟1s */
 151              		.loc 1 50 0 discriminator 1
 152 0084 FA0FA0E3 		mov	r0, #1000
 153 0088 FEFFFFEB 		bl	DEV_DelayMs
  52:../srccode/test.c ****         WLX_TaskSwitch(gpstrTask3Tcb);  /* 任务切换 */
 154              		.loc 1 52 0 discriminator 1
 155 008c 000094E5 		ldr	r0, [r4, #0]
 156 0090 FEFFFFEB 		bl	WLX_TaskSwitch
 157 0094 F8FFFFEA 		b	.L11
 158              	.L13:
 159              		.align	2
 160              	.L12:
 161 0098 00000000 		.word	gpstrTask3Tcb
 162 009c 28000000 		.word	.LC2
 163              		.cfi_endproc
 164              	.LFE1:
 165              		.fnend
 166              		.size	TEST_TestTask1, .-TEST_TestTask1
 167              		.align	2
 168              		.global	main
 169              		.type	main, %function
 170              	main:
 171              		.fnstart
 172              	.LFB0:
  21:../srccode/test.c **** {
 173              		.loc 1 21 0
 174              		.cfi_startproc
 175              		@ Function supports interworking.
 176              		@ args = 0, pretend = 0, frame = 0
 177              		@ frame_needed = 1, uses_anonymous_args = 0
 178              		.movsp ip
 179 00a0 0DC0A0E1 		mov	ip, sp
 180              	.LCFI6:
 181              		.cfi_def_cfa_register 12
 182 00a4 18D82DE9 		stmfd	sp!, {r3, r4, fp, ip, lr, pc}
 183              		.pad #4
 184              		.save {r3, r4, fp, ip, lr}
 185              		.setfp fp, ip, #-4
 186 00a8 04B04CE2 		sub	fp, ip, #4
ARM GAS  C:\DOCUME~1\ADMINI~1\LOCALS~1\Temp\cccxxmtW.s 			page 6


 187              		.cfi_offset 14, -8
 188              		.cfi_offset 13, -12
 189              		.cfi_offset 11, -16
 190              		.cfi_offset 4, -20
 191              		.cfi_offset 3, -24
 192              	.LCFI7:
 193              		.cfi_def_cfa 11, 4
  23:../srccode/test.c ****     DEV_HardwareInit();
 194              		.loc 1 23 0
 195 00ac FEFFFFEB 		bl	DEV_HardwareInit
  26:../srccode/test.c ****     gpstrTask1Tcb = WLX_TaskCreate((VFUNC)TEST_TestTask1, gaucTask1Stack,
 196              		.loc 1 26 0
 197 00b0 58109FE5 		ldr	r1, .L15
 198 00b4 192EA0E3 		mov	r2, #400
 199 00b8 54009FE5 		ldr	r0, .L15+4
 200 00bc FEFFFFEB 		bl	WLX_TaskCreate
 201 00c0 50409FE5 		ldr	r4, .L15+8
  28:../srccode/test.c ****     gpstrTask2Tcb = WLX_TaskCreate((VFUNC)TEST_TestTask2, gaucTask2Stack,
 202              		.loc 1 28 0
 203 00c4 50109FE5 		ldr	r1, .L15+12
  26:../srccode/test.c ****     gpstrTask1Tcb = WLX_TaskCreate((VFUNC)TEST_TestTask1, gaucTask1Stack,
 204              		.loc 1 26 0
 205 00c8 000084E5 		str	r0, [r4, #0]
  28:../srccode/test.c ****     gpstrTask2Tcb = WLX_TaskCreate((VFUNC)TEST_TestTask2, gaucTask2Stack,
 206              		.loc 1 28 0
 207 00cc 192EA0E3 		mov	r2, #400
 208 00d0 48009FE5 		ldr	r0, .L15+16
 209 00d4 FEFFFFEB 		bl	WLX_TaskCreate
 210 00d8 44209FE5 		ldr	r2, .L15+20
  30:../srccode/test.c ****     gpstrTask3Tcb = WLX_TaskCreate((VFUNC)TEST_TestTask3, gaucTask3Stack,
 211              		.loc 1 30 0
 212 00dc 44109FE5 		ldr	r1, .L15+24
  28:../srccode/test.c ****     gpstrTask2Tcb = WLX_TaskCreate((VFUNC)TEST_TestTask2, gaucTask2Stack,
 213              		.loc 1 28 0
 214 00e0 000082E5 		str	r0, [r2, #0]
  30:../srccode/test.c ****     gpstrTask3Tcb = WLX_TaskCreate((VFUNC)TEST_TestTask3, gaucTask3Stack,
 215              		.loc 1 30 0
 216 00e4 192EA0E3 		mov	r2, #400
 217 00e8 3C009FE5 		ldr	r0, .L15+28
 218 00ec FEFFFFEB 		bl	WLX_TaskCreate
 219 00f0 38309FE5 		ldr	r3, .L15+32
 220 00f4 000083E5 		str	r0, [r3, #0]
  34:../srccode/test.c ****     WLX_TaskStart(gpstrTask1Tcb);
 221              		.loc 1 34 0
 222 00f8 000094E5 		ldr	r0, [r4, #0]
 223 00fc FEFFFFEB 		bl	WLX_TaskStart
  37:../srccode/test.c **** }
 224              		.loc 1 37 0
 225 0100 0000A0E3 		mov	r0, #0
 226 0104 14D04BE2 		sub	sp, fp, #20
 227 0108 18689DE8 		ldmfd	sp, {r3, r4, fp, sp, lr}
 228 010c 1EFF2FE1 		bx	lr
 229              	.L16:
 230              		.align	2
 231              	.L15:
 232 0110 00000000 		.word	gaucTask1Stack
 233 0114 00000000 		.word	TEST_TestTask1
ARM GAS  C:\DOCUME~1\ADMINI~1\LOCALS~1\Temp\cccxxmtW.s 			page 7


 234 0118 00000000 		.word	gpstrTask1Tcb
 235 011c 00000000 		.word	gaucTask2Stack
 236 0120 00000000 		.word	TEST_TestTask2
 237 0124 00000000 		.word	gpstrTask2Tcb
 238 0128 00000000 		.word	gaucTask3Stack
 239 012c 00000000 		.word	TEST_TestTask3
 240 0130 00000000 		.word	gpstrTask3Tcb
 241              		.cfi_endproc
 242              	.LFE0:
 243              		.fnend
 244              		.size	main, .-main
 245              		.comm	gaucTask1Stack,400,4
 246              		.comm	gaucTask2Stack,400,4
 247              		.comm	gaucTask3Stack,400,4
 248              		.comm	gpstrTask1Tcb,4,4
 249              		.comm	gpstrTask2Tcb,4,4
 250              		.comm	gpstrTask3Tcb,4,4
 251              		.section	.rodata.str1.4,"aMS",%progbits,1
 252              		.align	2
 253              	.LC0:
 254 0000 0D0A5461 		.ascii	"\015\012Task3 is running!\000"
 254      736B3320 
 254      69732072 
 254      756E6E69 
 254      6E672100 
 255              	.LC1:
 256 0014 0D0A5461 		.ascii	"\015\012Task2 is running!\000"
 256      736B3220 
 256      69732072 
 256      756E6E69 
 256      6E672100 
 257              	.LC2:
 258 0028 0D0A5461 		.ascii	"\015\012Task1 is running!\000"
 258      736B3120 
 258      69732072 
 258      756E6E69 
 258      6E672100 
 259              		.text
 260              	.Letext0:
 261              		.section	.debug_loc,"",%progbits
 262              	.Ldebug_loc0:
 263              	.LLST0:
 264 0000 00000000 		.4byte	.LFB3-.Ltext0
 265 0004 04000000 		.4byte	.LCFI0-.Ltext0
 266 0008 0200     		.2byte	0x2
 267 000a 7D       		.byte	0x7d
 268 000b 00       		.sleb128 0
 269 000c 04000000 		.4byte	.LCFI0-.Ltext0
 270 0010 10000000 		.4byte	.LCFI1-.Ltext0
 271 0014 0200     		.2byte	0x2
 272 0016 7C       		.byte	0x7c
 273 0017 00       		.sleb128 0
 274 0018 10000000 		.4byte	.LCFI1-.Ltext0
 275 001c 38000000 		.4byte	.LFE3-.Ltext0
 276 0020 0200     		.2byte	0x2
 277 0022 7B       		.byte	0x7b
 278 0023 04       		.sleb128 4
ARM GAS  C:\DOCUME~1\ADMINI~1\LOCALS~1\Temp\cccxxmtW.s 			page 8


 279 0024 00000000 		.4byte	0x0
 280 0028 00000000 		.4byte	0x0
 281              	.LLST1:
 282 002c 38000000 		.4byte	.LFB2-.Ltext0
 283 0030 3C000000 		.4byte	.LCFI2-.Ltext0
 284 0034 0200     		.2byte	0x2
 285 0036 7D       		.byte	0x7d
 286 0037 00       		.sleb128 0
 287 0038 3C000000 		.4byte	.LCFI2-.Ltext0
 288 003c 48000000 		.4byte	.LCFI3-.Ltext0
 289 0040 0200     		.2byte	0x2
 290 0042 7C       		.byte	0x7c
 291 0043 00       		.sleb128 0
 292 0044 48000000 		.4byte	.LCFI3-.Ltext0
 293 0048 6C000000 		.4byte	.LFE2-.Ltext0
 294 004c 0200     		.2byte	0x2
 295 004e 7B       		.byte	0x7b
 296 004f 04       		.sleb128 4
 297 0050 00000000 		.4byte	0x0
 298 0054 00000000 		.4byte	0x0
 299              	.LLST2:
 300 0058 6C000000 		.4byte	.LFB1-.Ltext0
 301 005c 70000000 		.4byte	.LCFI4-.Ltext0
 302 0060 0200     		.2byte	0x2
 303 0062 7D       		.byte	0x7d
 304 0063 00       		.sleb128 0
 305 0064 70000000 		.4byte	.LCFI4-.Ltext0
 306 0068 7C000000 		.4byte	.LCFI5-.Ltext0
 307 006c 0200     		.2byte	0x2
 308 006e 7C       		.byte	0x7c
 309 006f 00       		.sleb128 0
 310 0070 7C000000 		.4byte	.LCFI5-.Ltext0
 311 0074 A0000000 		.4byte	.LFE1-.Ltext0
 312 0078 0200     		.2byte	0x2
 313 007a 7B       		.byte	0x7b
 314 007b 04       		.sleb128 4
 315 007c 00000000 		.4byte	0x0
 316 0080 00000000 		.4byte	0x0
 317              	.LLST3:
 318 0084 A0000000 		.4byte	.LFB0-.Ltext0
 319 0088 A4000000 		.4byte	.LCFI6-.Ltext0
 320 008c 0200     		.2byte	0x2
 321 008e 7D       		.byte	0x7d
 322 008f 00       		.sleb128 0
 323 0090 A4000000 		.4byte	.LCFI6-.Ltext0
 324 0094 AC000000 		.4byte	.LCFI7-.Ltext0
 325 0098 0200     		.2byte	0x2
 326 009a 7C       		.byte	0x7c
 327 009b 00       		.sleb128 0
 328 009c AC000000 		.4byte	.LCFI7-.Ltext0
 329 00a0 34010000 		.4byte	.LFE0-.Ltext0
 330 00a4 0200     		.2byte	0x2
 331 00a6 7B       		.byte	0x7b
 332 00a7 04       		.sleb128 4
 333 00a8 00000000 		.4byte	0x0
 334 00ac 00000000 		.4byte	0x0
 335              		.file 2 "../wanlix/wanlix.h"
ARM GAS  C:\DOCUME~1\ADMINI~1\LOCALS~1\Temp\cccxxmtW.s 			page 9


 336              		.section	.debug_info
 337 0000 D5010000 		.4byte	0x1d5
 338 0004 0200     		.2byte	0x2
 339 0006 00000000 		.4byte	.Ldebug_abbrev0
 340 000a 04       		.byte	0x4
 341 000b 01       		.uleb128 0x1
 342 000c 00000000 		.4byte	.LASF17
 343 0010 01       		.byte	0x1
 344 0011 4B000000 		.4byte	.LASF18
 345 0015 19000000 		.4byte	.LASF19
 346 0019 00000000 		.4byte	.Ltext0
 347 001d 34010000 		.4byte	.Letext0
 348 0021 00000000 		.4byte	.Ldebug_line0
 349 0025 02       		.uleb128 0x2
 350 0026 04       		.byte	0x4
 351 0027 07       		.byte	0x7
 352 0028 5D000000 		.4byte	.LASF0
 353 002c 02       		.uleb128 0x2
 354 002d 04       		.byte	0x4
 355 002e 07       		.byte	0x7
 356 002f 0C000000 		.4byte	.LASF1
 357 0033 03       		.uleb128 0x3
 358 0034 04       		.byte	0x4
 359 0035 39000000 		.4byte	0x39
 360 0039 04       		.uleb128 0x4
 361 003a 01       		.byte	0x1
 362 003b 05       		.uleb128 0x5
 363 003c 553800   		.ascii	"U8\000"
 364 003f 02       		.byte	0x2
 365 0040 07       		.byte	0x7
 366 0041 45000000 		.4byte	0x45
 367 0045 02       		.uleb128 0x2
 368 0046 01       		.byte	0x1
 369 0047 08       		.byte	0x8
 370 0048 8A000000 		.4byte	.LASF2
 371 004c 02       		.uleb128 0x2
 372 004d 02       		.byte	0x2
 373 004e 07       		.byte	0x7
 374 004f B7000000 		.4byte	.LASF3
 375 0053 05       		.uleb128 0x5
 376 0054 55333200 		.ascii	"U32\000"
 377 0058 02       		.byte	0x2
 378 0059 09       		.byte	0x9
 379 005a 2C000000 		.4byte	0x2c
 380 005e 02       		.uleb128 0x2
 381 005f 01       		.byte	0x1
 382 0060 08       		.byte	0x8
 383 0061 98000000 		.4byte	.LASF4
 384 0065 02       		.uleb128 0x2
 385 0066 02       		.byte	0x2
 386 0067 05       		.byte	0x5
 387 0068 14010000 		.4byte	.LASF5
 388 006c 05       		.uleb128 0x5
 389 006d 53333200 		.ascii	"S32\000"
 390 0071 02       		.byte	0x2
 391 0072 0C       		.byte	0xc
 392 0073 77000000 		.4byte	0x77
ARM GAS  C:\DOCUME~1\ADMINI~1\LOCALS~1\Temp\cccxxmtW.s 			page 10


 393 0077 06       		.uleb128 0x6
 394 0078 04       		.byte	0x4
 395 0079 05       		.byte	0x5
 396 007a 696E7400 		.ascii	"int\000"
 397 007e 07       		.uleb128 0x7
 398 007f 6F000000 		.4byte	.LASF6
 399 0083 02       		.byte	0x2
 400 0084 0D       		.byte	0xd
 401 0085 33000000 		.4byte	0x33
 402 0089 08       		.uleb128 0x8
 403 008a 1E010000 		.4byte	.LASF20
 404 008e 04       		.byte	0x4
 405 008f 02       		.byte	0x2
 406 0090 1F       		.byte	0x1f
 407 0091 A4000000 		.4byte	0xa4
 408 0095 09       		.uleb128 0x9
 409 0096 AB000000 		.4byte	.LASF21
 410 009a 02       		.byte	0x2
 411 009b 21       		.byte	0x21
 412 009c 53000000 		.4byte	0x53
 413 00a0 02       		.byte	0x2
 414 00a1 23       		.byte	0x23
 415 00a2 00       		.uleb128 0x0
 416 00a3 00       		.byte	0x0
 417 00a4 07       		.uleb128 0x7
 418 00a5 84000000 		.4byte	.LASF7
 419 00a9 02       		.byte	0x2
 420 00aa 22       		.byte	0x22
 421 00ab 89000000 		.4byte	0x89
 422 00af 0A       		.uleb128 0xa
 423 00b0 01       		.byte	0x1
 424 00b1 05010000 		.4byte	.LASF8
 425 00b5 01       		.byte	0x1
 426 00b6 4E       		.byte	0x4e
 427 00b7 01       		.byte	0x1
 428 00b8 00000000 		.4byte	.LFB3
 429 00bc 38000000 		.4byte	.LFE3
 430 00c0 00000000 		.4byte	.LLST0
 431 00c4 0A       		.uleb128 0xa
 432 00c5 01       		.byte	0x1
 433 00c6 F6000000 		.4byte	.LASF9
 434 00ca 01       		.byte	0x1
 435 00cb 3D       		.byte	0x3d
 436 00cc 01       		.byte	0x1
 437 00cd 38000000 		.4byte	.LFB2
 438 00d1 6C000000 		.4byte	.LFE2
 439 00d5 2C000000 		.4byte	.LLST1
 440 00d9 0A       		.uleb128 0xa
 441 00da 01       		.byte	0x1
 442 00db E7000000 		.4byte	.LASF10
 443 00df 01       		.byte	0x1
 444 00e0 2C       		.byte	0x2c
 445 00e1 01       		.byte	0x1
 446 00e2 6C000000 		.4byte	.LFB1
 447 00e6 A0000000 		.4byte	.LFE1
 448 00ea 58000000 		.4byte	.LLST2
 449 00ee 0B       		.uleb128 0xb
ARM GAS  C:\DOCUME~1\ADMINI~1\LOCALS~1\Temp\cccxxmtW.s 			page 11


 450 00ef 01       		.byte	0x1
 451 00f0 38000000 		.4byte	.LASF22
 452 00f4 01       		.byte	0x1
 453 00f5 14       		.byte	0x14
 454 00f6 01       		.byte	0x1
 455 00f7 6C000000 		.4byte	0x6c
 456 00fb A0000000 		.4byte	.LFB0
 457 00ff 34010000 		.4byte	.LFE0
 458 0103 84000000 		.4byte	.LLST3
 459 0107 0C       		.uleb128 0xc
 460 0108 3B000000 		.4byte	0x3b
 461 010c 18010000 		.4byte	0x118
 462 0110 0D       		.uleb128 0xd
 463 0111 2C000000 		.4byte	0x2c
 464 0115 8F01     		.2byte	0x18f
 465 0117 00       		.byte	0x0
 466 0118 0E       		.uleb128 0xe
 467 0119 75000000 		.4byte	.LASF11
 468 011d 01       		.byte	0x1
 469 011e 04       		.byte	0x4
 470 011f 07010000 		.4byte	0x107
 471 0123 01       		.byte	0x1
 472 0124 01       		.byte	0x1
 473 0125 0E       		.uleb128 0xe
 474 0126 D8000000 		.4byte	.LASF12
 475 012a 01       		.byte	0x1
 476 012b 05       		.byte	0x5
 477 012c 07010000 		.4byte	0x107
 478 0130 01       		.byte	0x1
 479 0131 01       		.byte	0x1
 480 0132 0E       		.uleb128 0xe
 481 0133 24010000 		.4byte	.LASF13
 482 0137 01       		.byte	0x1
 483 0138 06       		.byte	0x6
 484 0139 07010000 		.4byte	0x107
 485 013d 01       		.byte	0x1
 486 013e 01       		.byte	0x1
 487 013f 0E       		.uleb128 0xe
 488 0140 9D000000 		.4byte	.LASF14
 489 0144 01       		.byte	0x1
 490 0145 08       		.byte	0x8
 491 0146 4C010000 		.4byte	0x14c
 492 014a 01       		.byte	0x1
 493 014b 01       		.byte	0x1
 494 014c 03       		.uleb128 0x3
 495 014d 04       		.byte	0x4
 496 014e A4000000 		.4byte	0xa4
 497 0152 0E       		.uleb128 0xe
 498 0153 3D000000 		.4byte	.LASF15
 499 0157 01       		.byte	0x1
 500 0158 09       		.byte	0x9
 501 0159 4C010000 		.4byte	0x14c
 502 015d 01       		.byte	0x1
 503 015e 01       		.byte	0x1
 504 015f 0E       		.uleb128 0xe
 505 0160 CA000000 		.4byte	.LASF16
 506 0164 01       		.byte	0x1
ARM GAS  C:\DOCUME~1\ADMINI~1\LOCALS~1\Temp\cccxxmtW.s 			page 12


 507 0165 0A       		.byte	0xa
 508 0166 4C010000 		.4byte	0x14c
 509 016a 01       		.byte	0x1
 510 016b 01       		.byte	0x1
 511 016c 0F       		.uleb128 0xf
 512 016d 75000000 		.4byte	.LASF11
 513 0171 01       		.byte	0x1
 514 0172 04       		.byte	0x4
 515 0173 07010000 		.4byte	0x107
 516 0177 01       		.byte	0x1
 517 0178 05       		.byte	0x5
 518 0179 03       		.byte	0x3
 519 017a 00000000 		.4byte	gaucTask1Stack
 520 017e 0F       		.uleb128 0xf
 521 017f D8000000 		.4byte	.LASF12
 522 0183 01       		.byte	0x1
 523 0184 05       		.byte	0x5
 524 0185 07010000 		.4byte	0x107
 525 0189 01       		.byte	0x1
 526 018a 05       		.byte	0x5
 527 018b 03       		.byte	0x3
 528 018c 00000000 		.4byte	gaucTask2Stack
 529 0190 0F       		.uleb128 0xf
 530 0191 24010000 		.4byte	.LASF13
 531 0195 01       		.byte	0x1
 532 0196 06       		.byte	0x6
 533 0197 07010000 		.4byte	0x107
 534 019b 01       		.byte	0x1
 535 019c 05       		.byte	0x5
 536 019d 03       		.byte	0x3
 537 019e 00000000 		.4byte	gaucTask3Stack
 538 01a2 0F       		.uleb128 0xf
 539 01a3 9D000000 		.4byte	.LASF14
 540 01a7 01       		.byte	0x1
 541 01a8 08       		.byte	0x8
 542 01a9 4C010000 		.4byte	0x14c
 543 01ad 01       		.byte	0x1
 544 01ae 05       		.byte	0x5
 545 01af 03       		.byte	0x3
 546 01b0 00000000 		.4byte	gpstrTask1Tcb
 547 01b4 0F       		.uleb128 0xf
 548 01b5 3D000000 		.4byte	.LASF15
 549 01b9 01       		.byte	0x1
 550 01ba 09       		.byte	0x9
 551 01bb 4C010000 		.4byte	0x14c
 552 01bf 01       		.byte	0x1
 553 01c0 05       		.byte	0x5
 554 01c1 03       		.byte	0x3
 555 01c2 00000000 		.4byte	gpstrTask2Tcb
 556 01c6 0F       		.uleb128 0xf
 557 01c7 CA000000 		.4byte	.LASF16
 558 01cb 01       		.byte	0x1
 559 01cc 0A       		.byte	0xa
 560 01cd 4C010000 		.4byte	0x14c
 561 01d1 01       		.byte	0x1
 562 01d2 05       		.byte	0x5
 563 01d3 03       		.byte	0x3
ARM GAS  C:\DOCUME~1\ADMINI~1\LOCALS~1\Temp\cccxxmtW.s 			page 13


 564 01d4 00000000 		.4byte	gpstrTask3Tcb
 565 01d8 00       		.byte	0x0
 566              		.section	.debug_abbrev
 567 0000 01       		.uleb128 0x1
 568 0001 11       		.uleb128 0x11
 569 0002 01       		.byte	0x1
 570 0003 25       		.uleb128 0x25
 571 0004 0E       		.uleb128 0xe
 572 0005 13       		.uleb128 0x13
 573 0006 0B       		.uleb128 0xb
 574 0007 03       		.uleb128 0x3
 575 0008 0E       		.uleb128 0xe
 576 0009 1B       		.uleb128 0x1b
 577 000a 0E       		.uleb128 0xe
 578 000b 11       		.uleb128 0x11
 579 000c 01       		.uleb128 0x1
 580 000d 12       		.uleb128 0x12
 581 000e 01       		.uleb128 0x1
 582 000f 10       		.uleb128 0x10
 583 0010 06       		.uleb128 0x6
 584 0011 00       		.byte	0x0
 585 0012 00       		.byte	0x0
 586 0013 02       		.uleb128 0x2
 587 0014 24       		.uleb128 0x24
 588 0015 00       		.byte	0x0
 589 0016 0B       		.uleb128 0xb
 590 0017 0B       		.uleb128 0xb
 591 0018 3E       		.uleb128 0x3e
 592 0019 0B       		.uleb128 0xb
 593 001a 03       		.uleb128 0x3
 594 001b 0E       		.uleb128 0xe
 595 001c 00       		.byte	0x0
 596 001d 00       		.byte	0x0
 597 001e 03       		.uleb128 0x3
 598 001f 0F       		.uleb128 0xf
 599 0020 00       		.byte	0x0
 600 0021 0B       		.uleb128 0xb
 601 0022 0B       		.uleb128 0xb
 602 0023 49       		.uleb128 0x49
 603 0024 13       		.uleb128 0x13
 604 0025 00       		.byte	0x0
 605 0026 00       		.byte	0x0
 606 0027 04       		.uleb128 0x4
 607 0028 15       		.uleb128 0x15
 608 0029 00       		.byte	0x0
 609 002a 27       		.uleb128 0x27
 610 002b 0C       		.uleb128 0xc
 611 002c 00       		.byte	0x0
 612 002d 00       		.byte	0x0
 613 002e 05       		.uleb128 0x5
 614 002f 16       		.uleb128 0x16
 615 0030 00       		.byte	0x0
 616 0031 03       		.uleb128 0x3
 617 0032 08       		.uleb128 0x8
 618 0033 3A       		.uleb128 0x3a
 619 0034 0B       		.uleb128 0xb
 620 0035 3B       		.uleb128 0x3b
ARM GAS  C:\DOCUME~1\ADMINI~1\LOCALS~1\Temp\cccxxmtW.s 			page 14


 621 0036 0B       		.uleb128 0xb
 622 0037 49       		.uleb128 0x49
 623 0038 13       		.uleb128 0x13
 624 0039 00       		.byte	0x0
 625 003a 00       		.byte	0x0
 626 003b 06       		.uleb128 0x6
 627 003c 24       		.uleb128 0x24
 628 003d 00       		.byte	0x0
 629 003e 0B       		.uleb128 0xb
 630 003f 0B       		.uleb128 0xb
 631 0040 3E       		.uleb128 0x3e
 632 0041 0B       		.uleb128 0xb
 633 0042 03       		.uleb128 0x3
 634 0043 08       		.uleb128 0x8
 635 0044 00       		.byte	0x0
 636 0045 00       		.byte	0x0
 637 0046 07       		.uleb128 0x7
 638 0047 16       		.uleb128 0x16
 639 0048 00       		.byte	0x0
 640 0049 03       		.uleb128 0x3
 641 004a 0E       		.uleb128 0xe
 642 004b 3A       		.uleb128 0x3a
 643 004c 0B       		.uleb128 0xb
 644 004d 3B       		.uleb128 0x3b
 645 004e 0B       		.uleb128 0xb
 646 004f 49       		.uleb128 0x49
 647 0050 13       		.uleb128 0x13
 648 0051 00       		.byte	0x0
 649 0052 00       		.byte	0x0
 650 0053 08       		.uleb128 0x8
 651 0054 13       		.uleb128 0x13
 652 0055 01       		.byte	0x1
 653 0056 03       		.uleb128 0x3
 654 0057 0E       		.uleb128 0xe
 655 0058 0B       		.uleb128 0xb
 656 0059 0B       		.uleb128 0xb
 657 005a 3A       		.uleb128 0x3a
 658 005b 0B       		.uleb128 0xb
 659 005c 3B       		.uleb128 0x3b
 660 005d 0B       		.uleb128 0xb
 661 005e 01       		.uleb128 0x1
 662 005f 13       		.uleb128 0x13
 663 0060 00       		.byte	0x0
 664 0061 00       		.byte	0x0
 665 0062 09       		.uleb128 0x9
 666 0063 0D       		.uleb128 0xd
 667 0064 00       		.byte	0x0
 668 0065 03       		.uleb128 0x3
 669 0066 0E       		.uleb128 0xe
 670 0067 3A       		.uleb128 0x3a
 671 0068 0B       		.uleb128 0xb
 672 0069 3B       		.uleb128 0x3b
 673 006a 0B       		.uleb128 0xb
 674 006b 49       		.uleb128 0x49
 675 006c 13       		.uleb128 0x13
 676 006d 38       		.uleb128 0x38
 677 006e 0A       		.uleb128 0xa
ARM GAS  C:\DOCUME~1\ADMINI~1\LOCALS~1\Temp\cccxxmtW.s 			page 15


 678 006f 00       		.byte	0x0
 679 0070 00       		.byte	0x0
 680 0071 0A       		.uleb128 0xa
 681 0072 2E       		.uleb128 0x2e
 682 0073 00       		.byte	0x0
 683 0074 3F       		.uleb128 0x3f
 684 0075 0C       		.uleb128 0xc
 685 0076 03       		.uleb128 0x3
 686 0077 0E       		.uleb128 0xe
 687 0078 3A       		.uleb128 0x3a
 688 0079 0B       		.uleb128 0xb
 689 007a 3B       		.uleb128 0x3b
 690 007b 0B       		.uleb128 0xb
 691 007c 27       		.uleb128 0x27
 692 007d 0C       		.uleb128 0xc
 693 007e 11       		.uleb128 0x11
 694 007f 01       		.uleb128 0x1
 695 0080 12       		.uleb128 0x12
 696 0081 01       		.uleb128 0x1
 697 0082 40       		.uleb128 0x40
 698 0083 06       		.uleb128 0x6
 699 0084 00       		.byte	0x0
 700 0085 00       		.byte	0x0
 701 0086 0B       		.uleb128 0xb
 702 0087 2E       		.uleb128 0x2e
 703 0088 00       		.byte	0x0
 704 0089 3F       		.uleb128 0x3f
 705 008a 0C       		.uleb128 0xc
 706 008b 03       		.uleb128 0x3
 707 008c 0E       		.uleb128 0xe
 708 008d 3A       		.uleb128 0x3a
 709 008e 0B       		.uleb128 0xb
 710 008f 3B       		.uleb128 0x3b
 711 0090 0B       		.uleb128 0xb
 712 0091 27       		.uleb128 0x27
 713 0092 0C       		.uleb128 0xc
 714 0093 49       		.uleb128 0x49
 715 0094 13       		.uleb128 0x13
 716 0095 11       		.uleb128 0x11
 717 0096 01       		.uleb128 0x1
 718 0097 12       		.uleb128 0x12
 719 0098 01       		.uleb128 0x1
 720 0099 40       		.uleb128 0x40
 721 009a 06       		.uleb128 0x6
 722 009b 00       		.byte	0x0
 723 009c 00       		.byte	0x0
 724 009d 0C       		.uleb128 0xc
 725 009e 01       		.uleb128 0x1
 726 009f 01       		.byte	0x1
 727 00a0 49       		.uleb128 0x49
 728 00a1 13       		.uleb128 0x13
 729 00a2 01       		.uleb128 0x1
 730 00a3 13       		.uleb128 0x13
 731 00a4 00       		.byte	0x0
 732 00a5 00       		.byte	0x0
 733 00a6 0D       		.uleb128 0xd
 734 00a7 21       		.uleb128 0x21
ARM GAS  C:\DOCUME~1\ADMINI~1\LOCALS~1\Temp\cccxxmtW.s 			page 16


 735 00a8 00       		.byte	0x0
 736 00a9 49       		.uleb128 0x49
 737 00aa 13       		.uleb128 0x13
 738 00ab 2F       		.uleb128 0x2f
 739 00ac 05       		.uleb128 0x5
 740 00ad 00       		.byte	0x0
 741 00ae 00       		.byte	0x0
 742 00af 0E       		.uleb128 0xe
 743 00b0 34       		.uleb128 0x34
 744 00b1 00       		.byte	0x0
 745 00b2 03       		.uleb128 0x3
 746 00b3 0E       		.uleb128 0xe
 747 00b4 3A       		.uleb128 0x3a
 748 00b5 0B       		.uleb128 0xb
 749 00b6 3B       		.uleb128 0x3b
 750 00b7 0B       		.uleb128 0xb
 751 00b8 49       		.uleb128 0x49
 752 00b9 13       		.uleb128 0x13
 753 00ba 3F       		.uleb128 0x3f
 754 00bb 0C       		.uleb128 0xc
 755 00bc 3C       		.uleb128 0x3c
 756 00bd 0C       		.uleb128 0xc
 757 00be 00       		.byte	0x0
 758 00bf 00       		.byte	0x0
 759 00c0 0F       		.uleb128 0xf
 760 00c1 34       		.uleb128 0x34
 761 00c2 00       		.byte	0x0
 762 00c3 03       		.uleb128 0x3
 763 00c4 0E       		.uleb128 0xe
 764 00c5 3A       		.uleb128 0x3a
 765 00c6 0B       		.uleb128 0xb
 766 00c7 3B       		.uleb128 0x3b
 767 00c8 0B       		.uleb128 0xb
 768 00c9 49       		.uleb128 0x49
 769 00ca 13       		.uleb128 0x13
 770 00cb 3F       		.uleb128 0x3f
 771 00cc 0C       		.uleb128 0xc
 772 00cd 02       		.uleb128 0x2
 773 00ce 0A       		.uleb128 0xa
 774 00cf 00       		.byte	0x0
 775 00d0 00       		.byte	0x0
 776 00d1 00       		.byte	0x0
 777              		.section	.debug_pubnames,"",%progbits
 778 0000 BF000000 		.4byte	0xbf
 779 0004 0200     		.2byte	0x2
 780 0006 00000000 		.4byte	.Ldebug_info0
 781 000a D9010000 		.4byte	0x1d9
 782 000e AF000000 		.4byte	0xaf
 783 0012 54455354 		.ascii	"TEST_TestTask3\000"
 783      5F546573 
 783      74546173 
 783      6B3300
 784 0021 C4000000 		.4byte	0xc4
 785 0025 54455354 		.ascii	"TEST_TestTask2\000"
 785      5F546573 
 785      74546173 
 785      6B3200
ARM GAS  C:\DOCUME~1\ADMINI~1\LOCALS~1\Temp\cccxxmtW.s 			page 17


 786 0034 D9000000 		.4byte	0xd9
 787 0038 54455354 		.ascii	"TEST_TestTask1\000"
 787      5F546573 
 787      74546173 
 787      6B3100
 788 0047 EE000000 		.4byte	0xee
 789 004b 6D61696E 		.ascii	"main\000"
 789      00
 790 0050 6C010000 		.4byte	0x16c
 791 0054 67617563 		.ascii	"gaucTask1Stack\000"
 791      5461736B 
 791      31537461 
 791      636B00
 792 0063 7E010000 		.4byte	0x17e
 793 0067 67617563 		.ascii	"gaucTask2Stack\000"
 793      5461736B 
 793      32537461 
 793      636B00
 794 0076 90010000 		.4byte	0x190
 795 007a 67617563 		.ascii	"gaucTask3Stack\000"
 795      5461736B 
 795      33537461 
 795      636B00
 796 0089 A2010000 		.4byte	0x1a2
 797 008d 67707374 		.ascii	"gpstrTask1Tcb\000"
 797      72546173 
 797      6B315463 
 797      6200
 798 009b B4010000 		.4byte	0x1b4
 799 009f 67707374 		.ascii	"gpstrTask2Tcb\000"
 799      72546173 
 799      6B325463 
 799      6200
 800 00ad C6010000 		.4byte	0x1c6
 801 00b1 67707374 		.ascii	"gpstrTask3Tcb\000"
 801      72546173 
 801      6B335463 
 801      6200
 802 00bf 00000000 		.4byte	0x0
 803              		.section	.debug_pubtypes,"",%progbits
 804 0000 43000000 		.4byte	0x43
 805 0004 0200     		.2byte	0x2
 806 0006 00000000 		.4byte	.Ldebug_info0
 807 000a D9010000 		.4byte	0x1d9
 808 000e 3B000000 		.4byte	0x3b
 809 0012 553800   		.ascii	"U8\000"
 810 0015 53000000 		.4byte	0x53
 811 0019 55333200 		.ascii	"U32\000"
 812 001d 6C000000 		.4byte	0x6c
 813 0021 53333200 		.ascii	"S32\000"
 814 0025 7E000000 		.4byte	0x7e
 815 0029 5646554E 		.ascii	"VFUNC\000"
 815      4300
 816 002f 89000000 		.4byte	0x89
 817 0033 775F7463 		.ascii	"w_tcb\000"
 817      6200
 818 0039 A4000000 		.4byte	0xa4
ARM GAS  C:\DOCUME~1\ADMINI~1\LOCALS~1\Temp\cccxxmtW.s 			page 18


 819 003d 575F5443 		.ascii	"W_TCB\000"
 819      4200
 820 0043 00000000 		.4byte	0x0
 821              		.section	.debug_aranges,"",%progbits
 822 0000 1C000000 		.4byte	0x1c
 823 0004 0200     		.2byte	0x2
 824 0006 00000000 		.4byte	.Ldebug_info0
 825 000a 04       		.byte	0x4
 826 000b 00       		.byte	0x0
 827 000c 0000     		.2byte	0x0
 828 000e 0000     		.2byte	0x0
 829 0010 00000000 		.4byte	.Ltext0
 830 0014 34010000 		.4byte	.Letext0-.Ltext0
 831 0018 00000000 		.4byte	0x0
 832 001c 00000000 		.4byte	0x0
 833              		.section	.debug_str,"MS",%progbits,1
 834              	.LASF17:
 835 0000 474E5520 		.ascii	"GNU C 4.5.2\000"
 835      4320342E 
 835      352E3200 
 836              	.LASF1:
 837 000c 756E7369 		.ascii	"unsigned int\000"
 837      676E6564 
 837      20696E74 
 837      00
 838              	.LASF19:
 839 0019 463A5C77 		.ascii	"F:\\workdir\\RTOS_Wanlix\\project\000"
 839      6F726B64 
 839      69725C52 
 839      544F535F 
 839      57616E6C 
 840              	.LASF22:
 841 0038 6D61696E 		.ascii	"main\000"
 841      00
 842              	.LASF15:
 843 003d 67707374 		.ascii	"gpstrTask2Tcb\000"
 843      72546173 
 843      6B325463 
 843      6200
 844              	.LASF18:
 845 004b 2E2E2F73 		.ascii	"../srccode/test.c\000"
 845      7263636F 
 845      64652F74 
 845      6573742E 
 845      6300
 846              	.LASF0:
 847 005d 6C6F6E67 		.ascii	"long unsigned int\000"
 847      20756E73 
 847      69676E65 
 847      6420696E 
 847      7400
 848              	.LASF6:
 849 006f 5646554E 		.ascii	"VFUNC\000"
 849      4300
 850              	.LASF11:
 851 0075 67617563 		.ascii	"gaucTask1Stack\000"
 851      5461736B 
ARM GAS  C:\DOCUME~1\ADMINI~1\LOCALS~1\Temp\cccxxmtW.s 			page 19


 851      31537461 
 851      636B00
 852              	.LASF7:
 853 0084 575F5443 		.ascii	"W_TCB\000"
 853      4200
 854              	.LASF2:
 855 008a 756E7369 		.ascii	"unsigned char\000"
 855      676E6564 
 855      20636861 
 855      7200
 856              	.LASF4:
 857 0098 63686172 		.ascii	"char\000"
 857      00
 858              	.LASF14:
 859 009d 67707374 		.ascii	"gpstrTask1Tcb\000"
 859      72546173 
 859      6B315463 
 859      6200
 860              	.LASF21:
 861 00ab 75695461 		.ascii	"uiTaskCurSp\000"
 861      736B4375 
 861      72537000 
 862              	.LASF3:
 863 00b7 73686F72 		.ascii	"short unsigned int\000"
 863      7420756E 
 863      7369676E 
 863      65642069 
 863      6E7400
 864              	.LASF16:
 865 00ca 67707374 		.ascii	"gpstrTask3Tcb\000"
 865      72546173 
 865      6B335463 
 865      6200
 866              	.LASF12:
 867 00d8 67617563 		.ascii	"gaucTask2Stack\000"
 867      5461736B 
 867      32537461 
 867      636B00
 868              	.LASF10:
 869 00e7 54455354 		.ascii	"TEST_TestTask1\000"
 869      5F546573 
 869      74546173 
 869      6B3100
 870              	.LASF9:
 871 00f6 54455354 		.ascii	"TEST_TestTask2\000"
 871      5F546573 
 871      74546173 
 871      6B3200
 872              	.LASF8:
 873 0105 54455354 		.ascii	"TEST_TestTask3\000"
 873      5F546573 
 873      74546173 
 873      6B3300
 874              	.LASF5:
 875 0114 73686F72 		.ascii	"short int\000"
 875      7420696E 
 875      7400
ARM GAS  C:\DOCUME~1\ADMINI~1\LOCALS~1\Temp\cccxxmtW.s 			page 20


 876              	.LASF20:
 877 011e 775F7463 		.ascii	"w_tcb\000"
 877      6200
 878              	.LASF13:
 879 0124 67617563 		.ascii	"gaucTask3Stack\000"
 879      5461736B 
 879      33537461 
 879      636B00
 880              		.ident	"GCC: (Sourcery G++ Lite 2011.03-41) 4.5.2"
 881              		.section	.note.GNU-stack,"",%progbits
ARM GAS  C:\DOCUME~1\ADMINI~1\LOCALS~1\Temp\cccxxmtW.s 			page 21


DEFINED SYMBOLS
                            *ABS*:00000000 test.c
C:\DOCUME~1\ADMINI~1\LOCALS~1\Temp\cccxxmtW.s:21     .text:00000000 $a
C:\DOCUME~1\ADMINI~1\LOCALS~1\Temp\cccxxmtW.s:24     .text:00000000 TEST_TestTask3
C:\DOCUME~1\ADMINI~1\LOCALS~1\Temp\cccxxmtW.s:64     .text:0000002c $d
                            *COM*:00000004 gpstrTask2Tcb
                       .ARM.extab:00000000 $d
                       .ARM.exidx:00000000 $d
C:\DOCUME~1\ADMINI~1\LOCALS~1\Temp\cccxxmtW.s:71     .text:00000038 $a
C:\DOCUME~1\ADMINI~1\LOCALS~1\Temp\cccxxmtW.s:74     .text:00000038 TEST_TestTask2
C:\DOCUME~1\ADMINI~1\LOCALS~1\Temp\cccxxmtW.s:113    .text:00000064 $d
                            *COM*:00000004 gpstrTask1Tcb
C:\DOCUME~1\ADMINI~1\LOCALS~1\Temp\cccxxmtW.s:119    .text:0000006c $a
C:\DOCUME~1\ADMINI~1\LOCALS~1\Temp\cccxxmtW.s:122    .text:0000006c TEST_TestTask1
C:\DOCUME~1\ADMINI~1\LOCALS~1\Temp\cccxxmtW.s:161    .text:00000098 $d
                            *COM*:00000004 gpstrTask3Tcb
C:\DOCUME~1\ADMINI~1\LOCALS~1\Temp\cccxxmtW.s:167    .text:000000a0 $a
C:\DOCUME~1\ADMINI~1\LOCALS~1\Temp\cccxxmtW.s:170    .text:000000a0 main
C:\DOCUME~1\ADMINI~1\LOCALS~1\Temp\cccxxmtW.s:232    .text:00000110 $d
                            *COM*:00000190 gaucTask1Stack
                            *COM*:00000190 gaucTask2Stack
                            *COM*:00000190 gaucTask3Stack
C:\DOCUME~1\ADMINI~1\LOCALS~1\Temp\cccxxmtW.s:252    .rodata.str1.4:00000000 $d
                     .debug_frame:00000010 $d

UNDEFINED SYMBOLS
DEV_PutString
DEV_DelayMs
WLX_TaskSwitch
__aeabi_unwind_cpp_pr1
DEV_HardwareInit
WLX_TaskCreate
WLX_TaskStart
