Archive member included because of file (symbol)

c:\Keil\ARM\INC\ADI\\libaduc7024.a(irq.o)
                              ../outfile/startup.o (ADI_IRQ_Interrupt_Setup)

Allocating common symbols
Common symbol       size              file

gpstrTask1Tcb       0x4               ../outfile/test.o
gaucTask1Stack      0x190             ../outfile/test.o
gaucTask2Stack      0x190             ../outfile/test.o
gpstrTask2Tcb       0x4               ../outfile/test.o
gpuiCurTaskSpAddr   0x4               ../outfile/wlx_core_c.o
guiNextTaskSp       0x4               ../outfile/wlx_core_c.o
gaucTask3Stack      0x190             ../outfile/test.o
gpstrCurTcb         0x4               ../outfile/wlx_core_c.o
gpstrTask3Tcb       0x4               ../outfile/test.o

Memory Configuration

Name             Origin             Length             Attributes
IntFLASH         0x00080000         0x0000f800         xr
IntRAM           0x00010000         0x00001b74         rw
*default*        0x00000000         0xffffffff

Linker script and memory map

LOAD ../outfile/wlx_core_a.o
LOAD ../outfile/wlx_core_c.o
LOAD ../outfile/wlx_userboot.o
LOAD ../outfile/device.o
LOAD ../outfile/test.o
LOAD ../outfile/unoptimize.o
LOAD ../outfile/startup.o
LOAD c:/program files/codesourcery/sourcery g++ lite/bin/../arm-none-linux-gnueabi/libc/armv4t/usr/lib/libm.so
LOAD c:/program files/codesourcery/sourcery g++ lite/bin/../lib/gcc/arm-none-linux-gnueabi/4.5.2/armv4t\libgcc.a
LOAD c:/program files/codesourcery/sourcery g++ lite/bin/../arm-none-linux-gnueabi/libc/armv4t/lib/libgcc_s.so
START GROUP
LOAD c:/program files/codesourcery/sourcery g++ lite/bin/../arm-none-linux-gnueabi/libc/armv4t/lib\libgcc_s.so.1
LOAD c:/program files/codesourcery/sourcery g++ lite/bin/../lib/gcc/arm-none-linux-gnueabi/4.5.2/armv4t\libgcc.a
END GROUP
LOAD c:/program files/codesourcery/sourcery g++ lite/bin/../arm-none-linux-gnueabi/libc/armv4t/usr/lib/libc.so
START GROUP
LOAD c:\program files\codesourcery\sourcery g++ lite\bin\../arm-none-linux-gnueabi/libc/armv4t/lib/libc.so.6
LOAD c:\program files\codesourcery\sourcery g++ lite\bin\../arm-none-linux-gnueabi/libc/armv4t/usr/lib/libc_nonshared.a
LOAD c:\program files\codesourcery\sourcery g++ lite\bin\../arm-none-linux-gnueabi/libc/armv4t/lib/ld-linux.so.3
END GROUP
LOAD c:/program files/codesourcery/sourcery g++ lite/bin/../lib/gcc/arm-none-linux-gnueabi/4.5.2/armv4t\libgcc.a
LOAD c:/program files/codesourcery/sourcery g++ lite/bin/../arm-none-linux-gnueabi/libc/armv4t/lib/libgcc_s.so
START GROUP
LOAD c:/program files/codesourcery/sourcery g++ lite/bin/../arm-none-linux-gnueabi/libc/armv4t/lib\libgcc_s.so.1
LOAD c:/program files/codesourcery/sourcery g++ lite/bin/../lib/gcc/arm-none-linux-gnueabi/4.5.2/armv4t\libgcc.a
END GROUP
LOAD c:\Keil\ARM\INC\ADI\\libaduc7024.a

.text           0x00080000      0x6d4
 *startup.o(.text)
 .text          0x00080000      0x108 ../outfile/startup.o
                0x00080000                _startup
 *(.text)
 .text          0x00080108       0x54 ../outfile/wlx_core_a.o
                0x00080108                WLX_ContextSwitch
                0x0008013c                WLX_SwitchToTask
 .text          0x0008015c      0x1b0 ../outfile/wlx_core_c.o
                0x0008015c                WLX_TaskTcbInit
                0x00080170                WLX_TaskStackInit
                0x00080234                WLX_TaskCreate
                0x0008028c                WLX_TaskSwitch
                0x000802d4                WLX_TaskStart
 .text          0x0008030c        0x0 ../outfile/wlx_userboot.o
 .text          0x0008030c       0xd4 ../outfile/device.o
                0x0008030c                DEV_HardwareInit
                0x00080348                DEV_UartInit
                0x00080378                DEV_PutChar
                0x00080394                DEV_PutString
                0x000803d0                DEV_SetGpioMode
 .text          0x000803e0      0x134 ../outfile/test.o
                0x000803e0                TEST_TestTask3
                0x00080418                TEST_TestTask2
                0x0008044c                TEST_TestTask1
                0x00080480                main
 .text          0x00080514       0x70 ../outfile/unoptimize.o
                0x00080514                DEV_DelayMs
 .text          0x00080584      0x150 c:\Keil\ARM\INC\ADI\\libaduc7024.a(irq.o)
                0x00080584                ADI_IRQ_Interrupt_Setup
                0x000805bc                ADI_FIQ_Interrupt_Setup
                0x000805f4                ADI_SWI_Interrupt_Setup
                0x0008062c                ADI_UNDEF_Interrupt_Setup
                0x00080664                ADI_PABORT_Interrupt_Setup
                0x0008069c                ADI_DABORT_Interrupt_Setup
 *(.glue_7t)
 .glue_7t       0x00000000        0x0 linker stubs
 *(.glue_7)
 .glue_7        0x00000000        0x0 linker stubs

.vfp11_veneer   0x000806d4        0x0
 .vfp11_veneer  0x00000000        0x0 linker stubs

.v4_bx          0x000806d4        0x0
 .v4_bx         0x00000000        0x0 linker stubs

.plt            0x000806d4        0x0
 .plt           0x00000000        0x0 c:/program files/codesourcery/sourcery g++ lite/bin/../arm-none-linux-gnueabi/libc/armv4t/usr/lib/libm.so
                0x000806d4                . = ALIGN (0x4)

.rodata
 *(.rodata)

.ARM.extab      0x000806d4       0x60
 .ARM.extab     0x000806d4       0x24 ../outfile/wlx_core_c.o
 .ARM.extab     0x000806f8        0x0 ../outfile/device.o
 .ARM.extab     0x000806f8       0x30 ../outfile/test.o
 .ARM.extab     0x00080728        0xc ../outfile/unoptimize.o

.ARM.exidx      0x00080734       0x60
 .ARM.exidx     0x00080734       0x28 ../outfile/wlx_core_c.o
 .ARM.exidx     0x0008075c        0x8 ../outfile/device.o
                                 0x28 (size before relaxing)
 .ARM.exidx     0x00080764       0x20 ../outfile/test.o
 .ARM.exidx     0x00080784       0x10 ../outfile/unoptimize.o
                                  0x8 (size before relaxing)

.rodata.str1.4  0x00080794       0x3c
 .rodata.str1.4
                0x00080794       0x3c ../outfile/test.o

.interp         0x000807d0       0x13
 .interp        0x000807d0       0x13 c:/program files/codesourcery/sourcery g++ lite/bin/../arm-none-linux-gnueabi/libc/armv4t/usr/lib/libm.so

.gnu.version_d  0x000807e4        0x0 load address 0x000807e3
 .gnu.version_d
                0x00000000        0x0 c:/program files/codesourcery/sourcery g++ lite/bin/../arm-none-linux-gnueabi/libc/armv4t/usr/lib/libm.so

.gnu.version    0x000807e4        0x6
 .gnu.version   0x000807e4        0x6 c:/program files/codesourcery/sourcery g++ lite/bin/../arm-none-linux-gnueabi/libc/armv4t/usr/lib/libm.so

.gnu.version_r  0x000807ec       0x20
 .gnu.version_r
                0x000807ec       0x20 c:/program files/codesourcery/sourcery g++ lite/bin/../arm-none-linux-gnueabi/libc/armv4t/usr/lib/libm.so

.dynsym         0x0008080c       0x30
 .dynsym        0x0008080c       0x30 c:/program files/codesourcery/sourcery g++ lite/bin/../arm-none-linux-gnueabi/libc/armv4t/usr/lib/libm.so

.dynstr         0x0008083c       0x59
 .dynstr        0x0008083c       0x59 c:/program files/codesourcery/sourcery g++ lite/bin/../arm-none-linux-gnueabi/libc/armv4t/usr/lib/libm.so

.hash           0x00080898       0x18
 .hash          0x00080898       0x18 c:/program files/codesourcery/sourcery g++ lite/bin/../arm-none-linux-gnueabi/libc/armv4t/usr/lib/libm.so

.rel.dyn        0x000808b0        0x0
 .rel.got       0x00000000        0x0 c:/program files/codesourcery/sourcery g++ lite/bin/../arm-none-linux-gnueabi/libc/armv4t/usr/lib/libm.so
 .rel.plt       0x00000000        0x0 c:/program files/codesourcery/sourcery g++ lite/bin/../arm-none-linux-gnueabi/libc/armv4t/usr/lib/libm.so
 .rel.bss       0x00000000        0x0 c:/program files/codesourcery/sourcery g++ lite/bin/../arm-none-linux-gnueabi/libc/armv4t/usr/lib/libm.so
                0x000808b0                . = ALIGN (0x4)
                0x000808b0                _etext = .
                0x000808b0                PROVIDE (etext, .)

.data           0x00010000        0x0 load address 0x000808b0
                0x00010000                _data = .
 *(.data)
 .data          0x00010000        0x0 ../outfile/wlx_core_a.o
 .data          0x00010000        0x0 ../outfile/wlx_core_c.o
 .data          0x00010000        0x0 ../outfile/wlx_userboot.o
 .data          0x00010000        0x0 ../outfile/device.o
 .data          0x00010000        0x0 ../outfile/test.o
 .data          0x00010000        0x0 ../outfile/unoptimize.o
 .data          0x00010000        0x0 ../outfile/startup.o
 .data          0x00010000        0x0 c:\Keil\ARM\INC\ADI\\libaduc7024.a(irq.o)

.dynamic        0x00010000       0x90 load address 0x000808b0
 .dynamic       0x00010000       0x90 c:/program files/codesourcery/sourcery g++ lite/bin/../arm-none-linux-gnueabi/libc/armv4t/usr/lib/libm.so
                0x00010000                _DYNAMIC

.got            0x00010090        0x0 load address 0x00080940
 .got           0x00000000        0x0 c:/program files/codesourcery/sourcery g++ lite/bin/../arm-none-linux-gnueabi/libc/armv4t/usr/lib/libm.so

.got.plt        0x00010090        0xc load address 0x00080940
 .got.plt       0x00010090        0xc c:/program files/codesourcery/sourcery g++ lite/bin/../arm-none-linux-gnueabi/libc/armv4t/usr/lib/libm.so
                0x00010090                _GLOBAL_OFFSET_TABLE_
                0x0001009c                . = ALIGN (0x4)
                0x0001009c                _edata = .
                0x0001009c                PROVIDE (edata, .)

.bss            0x0001009c      0x4e0 load address 0x0008094c
                0x0001009c                __bss_start = .
                0x0001009c                __bss_start__ = .
 *(.bss)
 .bss           0x0001009c        0x0 ../outfile/wlx_core_a.o
 .bss           0x0001009c        0x0 ../outfile/wlx_core_c.o
 .bss           0x0001009c        0x0 ../outfile/wlx_userboot.o
 .bss           0x0001009c        0x0 ../outfile/device.o
 .bss           0x0001009c        0x0 ../outfile/test.o
 .bss           0x0001009c        0x0 ../outfile/unoptimize.o
 .bss           0x0001009c        0x0 ../outfile/startup.o
 .bss           0x0001009c       0x18 c:\Keil\ARM\INC\ADI\\libaduc7024.a(irq.o)
                0x0001009c                IRQ
                0x000100a0                FIQ
                0x000100a4                SWI
                0x000100a8                UNDEF
                0x000100ac                PABORT
                0x000100b0                DABORT
 *(COMMON)
 COMMON         0x000100b4        0xc ../outfile/wlx_core_c.o
                0x000100b4                gpuiCurTaskSpAddr
                0x000100b8                guiNextTaskSp
                0x000100bc                gpstrCurTcb
 COMMON         0x000100c0      0x4bc ../outfile/test.o
                0x000100c0                gpstrTask1Tcb
                0x000100c4                gaucTask1Stack
                0x00010254                gaucTask2Stack
                0x000103e4                gpstrTask2Tcb
                0x000103e8                gaucTask3Stack
                0x00010578                gpstrTask3Tcb

.dynbss         0x0001057c        0x0 load address 0x00080e2c
 .dynbss        0x00000000        0x0 c:/program files/codesourcery/sourcery g++ lite/bin/../arm-none-linux-gnueabi/libc/armv4t/usr/lib/libm.so
                0x0001057c                . = ALIGN (0x4)
                0x0001057c                __bss_end__ = .
                0x0001057c                __bss_end__ = .
                0x0001057c                _end = .
                0x0001057c                PROVIDE (end, .)

.stab
 *(.stab)

.stabstr
 *(.stabstr)

.stab.excl
 *(.stab.excl)

.stab.exclstr
 *(.stab.exclstr)

.stab.index
 *(.stab.index)

.stab.indexstr
 *(.stab.indexstr)

.ARM.attributes
                0x00000000       0x2c
 .ARM.attributes
                0x00000000       0x22 ../outfile/wlx_core_a.o
 .ARM.attributes
                0x00000022       0x32 ../outfile/wlx_core_c.o
 .ARM.attributes
                0x00000054       0x32 ../outfile/wlx_userboot.o
 .ARM.attributes
                0x00000086       0x32 ../outfile/device.o
 .ARM.attributes
                0x000000b8       0x32 ../outfile/test.o
 .ARM.attributes
                0x000000ea       0x32 ../outfile/unoptimize.o
 .ARM.attributes
                0x0000011c       0x22 ../outfile/startup.o
 .ARM.attributes
                0x0000013e       0x2e c:\Keil\ARM\INC\ADI\\libaduc7024.a(irq.o)

.note.GNU-stack
                0x00000000        0x0
 .note.GNU-stack
                0x00000000        0x0 ../outfile/wlx_core_c.o
 .note.GNU-stack
                0x00000000        0x0 ../outfile/wlx_userboot.o
 .note.GNU-stack
                0x00000000        0x0 ../outfile/device.o
 .note.GNU-stack
                0x00000000        0x0 ../outfile/test.o
 .note.GNU-stack
                0x00000000        0x0 ../outfile/unoptimize.o

.comment        0x00000000       0x55
 *(.comment)
 .comment       0x00000000       0x2a ../outfile/wlx_core_c.o
                                 0x2b (size before relaxing)
 .comment       0x00000000       0x2b ../outfile/wlx_userboot.o
 .comment       0x00000000       0x2b ../outfile/device.o
 .comment       0x00000000       0x2b ../outfile/test.o
 .comment       0x00000000       0x2b ../outfile/unoptimize.o
 .comment       0x0000002a       0x2b c:\Keil\ARM\INC\ADI\\libaduc7024.a(irq.o)

.debug
 *(.debug)

.line
 *(.line)

.debug_srcinfo
 *(.debug_srcinfo)

.debug_sfnames
 *(.debug_sfnames)

.debug_aranges  0x00000000       0xe0
 *(.debug_aranges)
 .debug_aranges
                0x00000000       0x20 ../outfile/wlx_core_a.o
 .debug_aranges
                0x00000020       0x20 ../outfile/wlx_core_c.o
 .debug_aranges
                0x00000040       0x20 ../outfile/device.o
 .debug_aranges
                0x00000060       0x20 ../outfile/test.o
 .debug_aranges
                0x00000080       0x20 ../outfile/unoptimize.o
 .debug_aranges
                0x000000a0       0x20 ../outfile/startup.o
 .debug_aranges
                0x000000c0       0x20 c:\Keil\ARM\INC\ADI\\libaduc7024.a(irq.o)

.debug_pubnames
                0x00000000      0x2f9
 *(.debug_pubnames)
 .debug_pubnames
                0x00000000       0xac ../outfile/wlx_core_c.o
 .debug_pubnames
                0x000000ac       0x6e ../outfile/device.o
 .debug_pubnames
                0x0000011a       0xc3 ../outfile/test.o
 .debug_pubnames
                0x000001dd       0x22 ../outfile/unoptimize.o
 .debug_pubnames
                0x000001ff       0xfa c:\Keil\ARM\INC\ADI\\libaduc7024.a(irq.o)

.debug_info     0x00000000      0x8ac
 *(.debug_info .gnu.linkonce.wi.*)
 .debug_info    0x00000000       0x61 ../outfile/wlx_core_a.o
 .debug_info    0x00000061      0x2ae ../outfile/wlx_core_c.o
 .debug_info    0x0000030f       0x57 ../outfile/wlx_userboot.o
 .debug_info    0x00000366      0x150 ../outfile/device.o
 .debug_info    0x000004b6      0x1d9 ../outfile/test.o
 .debug_info    0x0000068f       0x9e ../outfile/unoptimize.o
 .debug_info    0x0000072d       0x5c ../outfile/startup.o
 .debug_info    0x00000789      0x123 c:\Keil\ARM\INC\ADI\\libaduc7024.a(irq.o)

.debug_abbrev   0x00000000      0x457
 *(.debug_abbrev)
 .debug_abbrev  0x00000000       0x14 ../outfile/wlx_core_a.o
 .debug_abbrev  0x00000014      0x171 ../outfile/wlx_core_c.o
 .debug_abbrev  0x00000185       0x2a ../outfile/wlx_userboot.o
 .debug_abbrev  0x000001af       0xf0 ../outfile/device.o
 .debug_abbrev  0x0000029f       0xd2 ../outfile/test.o
 .debug_abbrev  0x00000371       0x6a ../outfile/unoptimize.o
 .debug_abbrev  0x000003db       0x14 ../outfile/startup.o
 .debug_abbrev  0x000003ef       0x68 c:\Keil\ARM\INC\ADI\\libaduc7024.a(irq.o)

.debug_line     0x00000000      0x397
 *(.debug_line)
 .debug_line    0x00000000       0x5c ../outfile/wlx_core_a.o
 .debug_line    0x0000005c       0xc4 ../outfile/wlx_core_c.o
 .debug_line    0x00000120       0x1d ../outfile/wlx_userboot.o
 .debug_line    0x0000013d       0x96 ../outfile/device.o
 .debug_line    0x000001d3       0x98 ../outfile/test.o
 .debug_line    0x0000026b       0x64 ../outfile/unoptimize.o
 .debug_line    0x000002cf       0x7c ../outfile/startup.o
 .debug_line    0x0000034b       0x4c c:\Keil\ARM\INC\ADI\\libaduc7024.a(irq.o)

.debug_frame    0x00000000      0x2f4
 *(.debug_frame)
 .debug_frame   0x00000000       0xb4 ../outfile/wlx_core_c.o
 .debug_frame   0x000000b4       0x60 ../outfile/device.o
 .debug_frame   0x00000114       0xb0 ../outfile/test.o
 .debug_frame   0x000001c4       0x30 ../outfile/unoptimize.o
 .debug_frame   0x000001f4      0x100 c:\Keil\ARM\INC\ADI\\libaduc7024.a(irq.o)

.debug_str      0x00000000      0x384
 *(.debug_str)
 .debug_str     0x00000000      0x146 ../outfile/wlx_core_c.o
                                0x158 (size before relaxing)
 .debug_str     0x00000146       0x2c ../outfile/wlx_userboot.o
                                 0x94 (size before relaxing)
 .debug_str     0x00000172       0x64 ../outfile/device.o
                                 0xe5 (size before relaxing)
 .debug_str     0x000001d6       0x9b ../outfile/test.o
                                0x133 (size before relaxing)
 .debug_str     0x00000271       0x29 ../outfile/unoptimize.o
                                 0xa3 (size before relaxing)
 .debug_str     0x0000029a       0xea c:\Keil\ARM\INC\ADI\\libaduc7024.a(irq.o)

.debug_loc      0x00000000      0x434
 *(.debug_loc)
 .debug_loc     0x00000000      0x23d ../outfile/wlx_core_c.o
 .debug_loc     0x0000023d       0x1f ../outfile/device.o
 .debug_loc     0x0000025c       0xb0 ../outfile/test.o
 .debug_loc     0x0000030c       0x2c ../outfile/unoptimize.o
 .debug_loc     0x00000338       0xfc c:\Keil\ARM\INC\ADI\\libaduc7024.a(irq.o)

.debug_macinfo
 *(.debug_macinfo)

.debug_weaknames
 *(.debug_weaknames)

.debug_funcnames
 *(.debug_funcnames)

.debug_typenames
 *(.debug_typenames)

.debug_varnames
 *(.debug_varnames)
OUTPUT(../outfile/wanlix.elf elf32-littlearm)

.debug_pubtypes
                0x00000000       0xcb
 .debug_pubtypes
                0x00000000       0x3f ../outfile/wlx_core_c.o
 .debug_pubtypes
                0x0000003f       0x12 ../outfile/wlx_userboot.o
 .debug_pubtypes
                0x00000051       0x19 ../outfile/device.o
 .debug_pubtypes
                0x0000006a       0x47 ../outfile/test.o
 .debug_pubtypes
                0x000000b1       0x1a ../outfile/unoptimize.o
